; Listing generated by Microsoft (R) Optimizing Compiler Version 19.00.24231.0 

include listing.inc

INCLUDELIB MSVCRTD
INCLUDELIB OLDNAMES

PUBLIC	?texoutDlg@BerconNoise@@2PEAVParamDlg@@EA	; BerconNoise::texoutDlg
PUBLIC	WinbaseIsolationAwarePrivateT_UnPgpgk
PUBLIC	IsolationAwarePrivateT_SqbjaYRiRY
PUBLIC	IsolationAwarePrivateT_SAbnPgpgk
PUBLIC	WinbaseIsolationAwarePrivateT_SpeRNgRQnPgpgk
PUBLIC	WinbaseIsolationAwarePrivateT_SpYRNahcpNYYRQ
_BSS	SEGMENT
?texoutDlg@BerconNoise@@2PEAVParamDlg@@EA DQ 01H DUP (?) ; BerconNoise::texoutDlg
_BSS	ENDS
;	COMDAT IsolationAwarePrivateT_SqbjaYRiRY
_BSS	SEGMENT
IsolationAwarePrivateT_SqbjaYRiRY DD 01H DUP (?)
_BSS	ENDS
;	COMDAT IsolationAwarePrivateT_SAbnPgpgk
_BSS	SEGMENT
IsolationAwarePrivateT_SAbnPgpgk DD 01H DUP (?)
_BSS	ENDS
;	COMDAT WinbaseIsolationAwarePrivateT_SpeRNgRQnPgpgk
_BSS	SEGMENT
WinbaseIsolationAwarePrivateT_SpeRNgRQnPgpgk DD 01H DUP (?)
_BSS	ENDS
;	COMDAT WinbaseIsolationAwarePrivateT_SpYRNahcpNYYRQ
_BSS	SEGMENT
WinbaseIsolationAwarePrivateT_SpYRNahcpNYYRQ DD 01H DUP (?)
_BSS	ENDS
;	COMDAT WinbaseIsolationAwarePrivateT_UnPgpgk
_DATA	SEGMENT
WinbaseIsolationAwarePrivateT_UnPgpgk DQ ffffffffffffffffH
_DATA	ENDS
CONST	SEGMENT
$SG212221 DB	00H, 00H
	ORG $+6
$SG211770 DB	'o', 00H, 'u', 00H, 't', 00H, 'p', 00H, 'u', 00H, 't', 00H
	DB	00H, 00H
	ORG $+2
$SG211771 DB	'U', 00H, 'V', 00H, 'W', 00H, 'd', 00H, 'i', 00H, 's', 00H
	DB	't', 00H, 'o', 00H, 'r', 00H, 't', 00H, 'i', 00H, 'o', 00H, 'n'
	DB	00H, 00H, 00H
	ORG $+4
$SG211772 DB	'u', 00H, 's', 00H, 'e', 00H, 'D', 00H, 'i', 00H, 's', 00H
	DB	't', 00H, 'o', 00H, 'r', 00H, 't', 00H, 'i', 00H, 'o', 00H, 'n'
	DB	00H, 00H, 00H
	ORG $+4
$SG211773 DB	'd', 00H, 'i', 00H, 's', 00H, 't', 00H, 'o', 00H, 'r', 00H
	DB	't', 00H, 'i', 00H, 'o', 00H, 'n', 00H, 'S', 00H, 't', 00H, 'r'
	DB	00H, 00H, 00H
	ORG $+4
$SG211774 DB	'm', 00H, 'a', 00H, 'p', 00H, '4', 00H, 00H, 00H
	ORG $+6
$SG211775 DB	'm', 00H, 'a', 00H, 'p', 00H, '3', 00H, 00H, 00H
	ORG $+6
$SG211776 DB	'f', 00H, 'r', 00H, 'a', 00H, 'c', 00H, 't', 00H, 'a', 00H
	DB	'l', 00H, 'L', 00H, 'a', 00H, 'c', 00H, 'u', 00H, 'n', 00H, 'a'
	DB	00H, 'r', 00H, 'i', 00H, 't', 00H, 'y', 00H, 00H, 00H
	ORG $+4
$SG211777 DB	'f', 00H, 'r', 00H, 'a', 00H, 'c', 00H, 't', 00H, 'a', 00H
	DB	'l', 00H, 'H', 00H, 00H, 00H
	ORG $+6
$SG211778 DB	'f', 00H, 'r', 00H, 'a', 00H, 'c', 00H, 't', 00H, 'a', 00H
	DB	'l', 00H, 'O', 00H, 'f', 00H, 'f', 00H, 's', 00H, 'e', 00H, 't'
	DB	00H, 00H, 00H
	ORG $+4
$SG211779 DB	'f', 00H, 'r', 00H, 'a', 00H, 'c', 00H, 't', 00H, 'a', 00H
	DB	'l', 00H, 'G', 00H, 'a', 00H, 'i', 00H, 'n', 00H, 00H, 00H
$SG211780 DB	'l', 00H, 'e', 00H, 'v', 00H, 'e', 00H, 'l', 00H, 's', 00H
	DB	00H, 00H
	ORG $+2
$SG211781 DB	'f', 00H, 'r', 00H, 'a', 00H, 'c', 00H, 't', 00H, 'a', 00H
	DB	'l', 00H, 'T', 00H, 'y', 00H, 'p', 00H, 'e', 00H, 00H, 00H
$SG211782 DB	'w', 00H, 'o', 00H, 'r', 00H, 'l', 00H, 'e', 00H, 'y', 00H
	DB	'S', 00H, 'p', 00H, 'r', 00H, 'e', 00H, 'a', 00H, 'd', 00H, 00H
	DB	00H
	ORG $+6
$SG211783 DB	'w', 00H, 'F', 00H, '4', 00H, 00H, 00H
$SG211784 DB	'w', 00H, 'F', 00H, '3', 00H, 00H, 00H
$SG211785 DB	'w', 00H, 'F', 00H, '2', 00H, 00H, 00H
$SG211786 DB	'w', 00H, 'F', 00H, '1', 00H, 00H, 00H
$SG211787 DB	'w', 00H, 'o', 00H, 'r', 00H, 'l', 00H, 'e', 00H, 'y', 00H
	DB	'D', 00H, 'i', 00H, 's', 00H, 't', 00H, 'a', 00H, 'n', 00H, 'c'
	DB	00H, 'e', 00H, 00H, 00H
	ORG $+2
$SG211788 DB	'n', 00H, 'o', 00H, 'i', 00H, 's', 00H, 'e', 00H, '_', 00H
	DB	'f', 00H, 'u', 00H, 'n', 00H, 'c', 00H, 't', 00H, 'i', 00H, 'o'
	DB	00H, 'n', 00H, 00H, 00H
	ORG $+2
$SG211789 DB	'p', 00H, 'h', 00H, 'a', 00H, 's', 00H, 'e', 00H, 00H, 00H
	ORG $+4
$SG211790 DB	't', 00H, 'h', 00H, 'r', 00H, 'e', 00H, 's', 00H, 'h', 00H
	DB	'o', 00H, 'l', 00H, 'd', 00H, 'H', 00H, 'i', 00H, 'g', 00H, 'h'
	DB	00H, 00H, 00H
	ORG $+4
$SG211791 DB	't', 00H, 'h', 00H, 'r', 00H, 'e', 00H, 's', 00H, 'h', 00H
	DB	'o', 00H, 'l', 00H, 'd', 00H, 'L', 00H, 'o', 00H, 'w', 00H, 00H
	DB	00H
	ORG $+6
$SG211792 DB	's', 00H, 'i', 00H, 'z', 00H, 'e', 00H, 00H, 00H
	ORG $+6
$SG211793 DB	'm', 00H, 'a', 00H, 'p', 00H, '2', 00H, 'E', 00H, 'n', 00H
	DB	'a', 00H, 'b', 00H, 'l', 00H, 'e', 00H, 'd', 00H, 00H, 00H
$SG211794 DB	'm', 00H, 'a', 00H, 'p', 00H, '1', 00H, 'E', 00H, 'n', 00H
	DB	'a', 00H, 'b', 00H, 'l', 00H, 'e', 00H, 'd', 00H, 00H, 00H
$SG211795 DB	'm', 00H, 'a', 00H, 'p', 00H, '2', 00H, 00H, 00H
	ORG $+6
$SG211796 DB	'm', 00H, 'a', 00H, 'p', 00H, '1', 00H, 00H, 00H
	ORG $+6
$SG211797 DB	'c', 00H, 'o', 00H, 'l', 00H, 'o', 00H, 'r', 00H, '2', 00H
	DB	00H, 00H
	ORG $+2
$SG211798 DB	'c', 00H, 'o', 00H, 'l', 00H, 'o', 00H, 'r', 00H, '1', 00H
	DB	00H, 00H
	ORG $+2
$SG211799 DB	'p', 00H, 'a', 00H, 'r', 00H, 'a', 00H, 'm', 00H, 's', 00H
	DB	00H, 00H
	ORG $+2
$SG211812 DB	'c', 00H, 'u', 00H, 'r', 00H, 'v', 00H, 'e', 00H, 'C', 00H
	DB	'o', 00H, 'n', 00H, 't', 00H, 'r', 00H, 'o', 00H, 'l', 00H, 00H
	DB	00H
	ORG $+6
$SG211813 DB	'e', 00H, 'n', 00H, 'a', 00H, 'b', 00H, 'l', 00H, 'e', 00H
	DB	'C', 00H, 'u', 00H, 'r', 00H, 'v', 00H, 'e', 00H, 00H, 00H
$SG211814 DB	'p', 00H, 'a', 00H, 'r', 00H, 'a', 00H, 'm', 00H, 's', 00H
	DB	00H, 00H
	ORG $+2
$SG211850 DB	'b', 00H, 'm', 00H, 'a', 00H, 'p', 00H, '1', 00H, '4', 00H
	DB	'E', 00H, 'n', 00H, 'a', 00H, 'b', 00H, 'l', 00H, 'e', 00H, 'd'
	DB	00H, 00H, 00H
	ORG $+4
$SG211851 DB	'b', 00H, 'm', 00H, 'a', 00H, 'p', 00H, '1', 00H, '4', 00H
	DB	00H, 00H
	ORG $+2
$SG211852 DB	'b', 00H, 'm', 00H, 'a', 00H, 'p', 00H, '1', 00H, '3', 00H
	DB	'E', 00H, 'n', 00H, 'a', 00H, 'b', 00H, 'l', 00H, 'e', 00H, 'd'
	DB	00H, 00H, 00H
	ORG $+4
$SG211853 DB	'b', 00H, 'm', 00H, 'a', 00H, 'p', 00H, '1', 00H, '3', 00H
	DB	00H, 00H
	ORG $+2
$SG211854 DB	'b', 00H, 'm', 00H, 'a', 00H, 'p', 00H, '1', 00H, '2', 00H
	DB	'E', 00H, 'n', 00H, 'a', 00H, 'b', 00H, 'l', 00H, 'e', 00H, 'd'
	DB	00H, 00H, 00H
	ORG $+4
$SG211855 DB	'b', 00H, 'm', 00H, 'a', 00H, 'p', 00H, '1', 00H, '2', 00H
	DB	00H, 00H
	ORG $+2
$SG211856 DB	'b', 00H, 'm', 00H, 'a', 00H, 'p', 00H, '1', 00H, '1', 00H
	DB	'E', 00H, 'n', 00H, 'a', 00H, 'b', 00H, 'l', 00H, 'e', 00H, 'd'
	DB	00H, 00H, 00H
	ORG $+4
$SG211857 DB	'b', 00H, 'm', 00H, 'a', 00H, 'p', 00H, '1', 00H, '1', 00H
	DB	00H, 00H
	ORG $+2
$SG211858 DB	'b', 00H, 'm', 00H, 'a', 00H, 'p', 00H, '1', 00H, '0', 00H
	DB	'E', 00H, 'n', 00H, 'a', 00H, 'b', 00H, 'l', 00H, 'e', 00H, 'd'
	DB	00H, 00H, 00H
	ORG $+4
$SG211859 DB	'b', 00H, 'm', 00H, 'a', 00H, 'p', 00H, '1', 00H, '0', 00H
	DB	00H, 00H
	ORG $+2
$SG211860 DB	'b', 00H, 'm', 00H, 'a', 00H, 'p', 00H, '9', 00H, 'E', 00H
	DB	'n', 00H, 'a', 00H, 'b', 00H, 'l', 00H, 'e', 00H, 'd', 00H, 00H
	DB	00H
	ORG $+6
$SG211861 DB	'b', 00H, 'm', 00H, 'a', 00H, 'p', 00H, '9', 00H, 00H, 00H
	ORG $+4
$SG211862 DB	'b', 00H, 'm', 00H, 'a', 00H, 'p', 00H, '8', 00H, 'E', 00H
	DB	'n', 00H, 'a', 00H, 'b', 00H, 'l', 00H, 'e', 00H, 'd', 00H, 00H
	DB	00H
	ORG $+6
$SG211863 DB	'b', 00H, 'm', 00H, 'a', 00H, 'p', 00H, '8', 00H, 00H, 00H
	ORG $+4
$SG211864 DB	'b', 00H, 'm', 00H, 'a', 00H, 'p', 00H, '7', 00H, 'E', 00H
	DB	'n', 00H, 'a', 00H, 'b', 00H, 'l', 00H, 'e', 00H, 'd', 00H, 00H
	DB	00H
	ORG $+6
$SG211865 DB	'b', 00H, 'm', 00H, 'a', 00H, 'p', 00H, '7', 00H, 00H, 00H
	ORG $+4
$SG211866 DB	'b', 00H, 'm', 00H, 'a', 00H, 'p', 00H, '6', 00H, 'E', 00H
	DB	'n', 00H, 'a', 00H, 'b', 00H, 'l', 00H, 'e', 00H, 'd', 00H, 00H
	DB	00H
	ORG $+6
$SG211867 DB	'b', 00H, 'm', 00H, 'a', 00H, 'p', 00H, '6', 00H, 00H, 00H
	ORG $+4
$SG211868 DB	'b', 00H, 'm', 00H, 'a', 00H, 'p', 00H, '5', 00H, 'E', 00H
	DB	'n', 00H, 'a', 00H, 'b', 00H, 'l', 00H, 'e', 00H, 'd', 00H, 00H
	DB	00H
	ORG $+6
$SG211869 DB	'b', 00H, 'm', 00H, 'a', 00H, 'p', 00H, '5', 00H, 00H, 00H
	ORG $+4
$SG211870 DB	'b', 00H, 'm', 00H, 'a', 00H, 'p', 00H, '4', 00H, 'E', 00H
	DB	'n', 00H, 'a', 00H, 'b', 00H, 'l', 00H, 'e', 00H, 'd', 00H, 00H
	DB	00H
	ORG $+6
$SG211871 DB	'b', 00H, 'm', 00H, 'a', 00H, 'p', 00H, '4', 00H, 00H, 00H
	ORG $+4
$SG211872 DB	'b', 00H, 'm', 00H, 'a', 00H, 'p', 00H, '3', 00H, 'E', 00H
	DB	'n', 00H, 'a', 00H, 'b', 00H, 'l', 00H, 'e', 00H, 'd', 00H, 00H
	DB	00H
	ORG $+6
$SG211873 DB	'b', 00H, 'm', 00H, 'a', 00H, 'p', 00H, '3', 00H, 00H, 00H
	ORG $+4
$SG211874 DB	'b', 00H, 'm', 00H, 'a', 00H, 'p', 00H, '2', 00H, 'E', 00H
	DB	'n', 00H, 'a', 00H, 'b', 00H, 'l', 00H, 'e', 00H, 'd', 00H, 00H
	DB	00H
	ORG $+6
$SG211875 DB	'b', 00H, 'm', 00H, 'a', 00H, 'p', 00H, '2', 00H, 00H, 00H
	ORG $+4
$SG211876 DB	'b', 00H, 'm', 00H, 'a', 00H, 'p', 00H, '1', 00H, 'E', 00H
	DB	'n', 00H, 'a', 00H, 'b', 00H, 'l', 00H, 'e', 00H, 'd', 00H, 00H
	DB	00H
	ORG $+6
$SG211877 DB	'b', 00H, 'm', 00H, 'a', 00H, 'p', 00H, '1', 00H, 00H, 00H
	ORG $+4
$SG211878 DB	'p', 00H, 'a', 00H, 'r', 00H, 'a', 00H, 'm', 00H, 's', 00H
	DB	00H, 00H
CONST	ENDS
PUBLIC	??_H@YAXPEAX_K1P6APEAX0@Z@Z			; `vector constructor iterator'
PUBLIC	?__empty_global_delete@@YAXPEAX@Z		; __empty_global_delete
PUBLIC	?__empty_global_delete@@YAXPEAX_K@Z		; __empty_global_delete
PUBLIC	??0Class_ID@@QEAA@XZ				; Class_ID::Class_ID
PUBLIC	??0Class_ID@@QEAA@KK@Z				; Class_ID::Class_ID
PUBLIC	??8Class_ID@@QEBA_NAEBV0@@Z			; Class_ID::operator==
PUBLIC	??0Interface_ID@@QEAA@AEBV0@@Z			; Interface_ID::Interface_ID
PUBLIC	??0TabOutOfRangeException@Util@MaxSDK@@QEAA@PEB_W@Z ; MaxSDK::Util::TabOutOfRangeException::TabOutOfRangeException
PUBLIC	?What@TabOutOfRangeException@Util@MaxSDK@@UEBAPEB_WXZ ; MaxSDK::Util::TabOutOfRangeException::What
PUBLIC	??1TabOutOfRangeException@Util@MaxSDK@@UEAA@XZ	; MaxSDK::Util::TabOutOfRangeException::~TabOutOfRangeException
PUBLIC	??0TabOutOfRangeException@Util@MaxSDK@@QEAA@AEBV012@@Z ; MaxSDK::Util::TabOutOfRangeException::TabOutOfRangeException
PUBLIC	??_GTabOutOfRangeException@Util@MaxSDK@@UEAAPEAXI@Z ; MaxSDK::Util::TabOutOfRangeException::`scalar deleting destructor'
PUBLIC	??D@YA?AVPoint3@@MAEBV0@@Z			; operator*
PUBLIC	??D@YA?AVPoint3@@AEBV0@M@Z			; operator*
PUBLIC	??0AssetId@AssetManagement@MaxSDK@@QEAA@XZ	; MaxSDK::AssetManagement::AssetId::AssetId
PUBLIC	?Count@?$Tab@PEAVFPInterface@@@@QEBAHXZ		; Tab<FPInterface * __ptr64>::Count
PUBLIC	?ZeroCount@?$Tab@PEAVFPInterface@@@@QEAAXXZ	; Tab<FPInterface * __ptr64>::ZeroCount
PUBLIC	??A?$Tab@PEAVFPInterface@@@@QEBAAEAPEAVFPInterface@@_J@Z ; Tab<FPInterface * __ptr64>::operator[]
PUBLIC	?BeginCreate@ClassDesc@@UEAAHPEAVInterface@@@Z	; ClassDesc::BeginCreate
PUBLIC	?EndCreate@ClassDesc@@UEAAHPEAVInterface@@@Z	; ClassDesc::EndCreate
PUBLIC	?OkToCreate@ClassDesc@@UEAAHPEAVInterface@@@Z	; ClassDesc::OkToCreate
PUBLIC	?HasClassParams@ClassDesc@@UEAAHXZ		; ClassDesc::HasClassParams
PUBLIC	?EditClassParams@ClassDesc@@UEAAXPEAUHWND__@@@Z	; ClassDesc::EditClassParams
PUBLIC	?NumActionTables@ClassDesc@@UEAAHXZ		; ClassDesc::NumActionTables
PUBLIC	?GetActionTable@ClassDesc@@UEAAPEAVActionTable@@H@Z ; ClassDesc::GetActionTable
PUBLIC	?IsManipulator@ClassDesc@@UEAAHXZ		; ClassDesc::IsManipulator
PUBLIC	?CanManipulate@ClassDesc@@UEAAHPEAVReferenceTarget@@@Z ; ClassDesc::CanManipulate
PUBLIC	?CanManipulateNode@ClassDesc@@UEAAHPEAVINode@@@Z ; ClassDesc::CanManipulateNode
PUBLIC	?CreateManipulator@ClassDesc@@UEAAPEAVManipulator@@PEAVReferenceTarget@@PEAVINode@@@Z ; ClassDesc::CreateManipulator
PUBLIC	?CreateManipulator@ClassDesc@@UEAAPEAVManipulator@@PEAVINode@@@Z ; ClassDesc::CreateManipulator
PUBLIC	?NeedsToSave@ClassDesc@@UEAAHXZ			; ClassDesc::NeedsToSave
PUBLIC	?Save@ClassDesc@@UEAA?AW4IOResult@@PEAVISave@@@Z ; ClassDesc::Save
PUBLIC	?Load@ClassDesc@@UEAA?AW4IOResult@@PEAVILoad@@@Z ; ClassDesc::Load
PUBLIC	?InitialRollupPageState@ClassDesc@@UEAAKXZ	; ClassDesc::InitialRollupPageState
PUBLIC	?UseOnlyInternalNameForMAXScriptExposure@ClassDesc@@UEAA_NXZ ; ClassDesc::UseOnlyInternalNameForMAXScriptExposure
PUBLIC	?GetParamMap@ClassDesc@@UEAAPEAVIParamMap2@@PEAVParamBlockDesc2@@@Z ; ClassDesc::GetParamMap
PUBLIC	?GetUserDlgProc@ClassDesc@@UEAAPEAVParamMap2UserDlgProc@@PEAVParamBlockDesc2@@@Z ; ClassDesc::GetUserDlgProc
PUBLIC	?DrawRepresentation@ClassDesc@@UEAA_NKPEAUHDC__@@AEAVBox2@@@Z ; ClassDesc::DrawRepresentation
PUBLIC	?NumInterfaces@ClassDesc@@UEAAHXZ		; ClassDesc::NumInterfaces
PUBLIC	?GetInterfaceAt@ClassDesc@@UEAAPEAVFPInterface@@H@Z ; ClassDesc::GetInterfaceAt
PUBLIC	?ClearInterfaces@ClassDesc@@UEAAXXZ		; ClassDesc::ClearInterfaces
PUBLIC	?SubClassID@ClassDesc@@UEAA?AVClass_ID@@XZ	; ClassDesc::SubClassID
PUBLIC	?Execute@ClassDesc@@UEAA_JH_K00@Z		; ClassDesc::Execute
PUBLIC	??0Matrix3@@QEAA@XZ				; Matrix3::Matrix3
PUBLIC	?Set@BitArray@@QEAAXH@Z				; BitArray::Set
PUBLIC	?UseLocalBits@BitArray@@AEBA_NXZ		; BitArray::UseLocalBits
PUBLIC	?BitMask@BitArray@@AEBA_KH@Z			; BitArray::BitMask
PUBLIC	??0Color@@QEAA@XZ				; Color::Color
PUBLIC	??0Color@@QEAA@MMM@Z				; Color::Color
PUBLIC	??0Color@@QEAA@NNN@Z				; Color::Color
PUBLIC	??0Color@@QEAA@HHH@Z				; Color::Color
PUBLIC	??0AColor@@QEAA@XZ				; AColor::AColor
PUBLIC	??0AColor@@QEAA@MMMM@Z				; AColor::AColor
PUBLIC	??0AColor@@QEAA@HHHH@Z				; AColor::AColor
PUBLIC	??0AColor@@QEAA@AEBV0@@Z			; AColor::AColor
PUBLIC	??0AColor@@QEAA@AEBVColor@@M@Z			; AColor::AColor
PUBLIC	??HAColor@@QEBA?AV0@AEBV0@@Z			; AColor::operator+
PUBLIC	??D@YA?AVAColor@@MAEBV0@@Z			; operator*
PUBLIC	??0Interval@@QEAA@XZ				; Interval::Interval
PUBLIC	?SetEmpty@Interval@@QEAAXXZ			; Interval::SetEmpty
PUBLIC	?SetInfinite@Interval@@QEAAXXZ			; Interval::SetInfinite
PUBLIC	??_4Interval@@QEAAAEAV0@V0@@Z			; Interval::operator&=
PUBLIC	?FreeCaches@Animatable@@UEAAXXZ			; Animatable::FreeCaches
PUBLIC	?BeginEditParams@Animatable@@UEAAXPEAVIObjParam@@KPEAV1@@Z ; Animatable::BeginEditParams
PUBLIC	?EndEditParams@Animatable@@UEAAXPEAVIObjParam@@KPEAV1@@Z ; Animatable::EndEditParams
PUBLIC	?BypassTreeView@Animatable@@UEAAHXZ		; Animatable::BypassTreeView
PUBLIC	?BypassTrackBar@Animatable@@UEAAHXZ		; Animatable::BypassTrackBar
PUBLIC	?BypassPropertyLevel@Animatable@@UEAAHXZ	; Animatable::BypassPropertyLevel
PUBLIC	?InvisibleProperty@Animatable@@UEAAHXZ		; Animatable::InvisibleProperty
PUBLIC	?AssignController@Animatable@@UEAAHPEAV1@H@Z	; Animatable::AssignController
PUBLIC	?CanAssignController@Animatable@@UEAAHH@Z	; Animatable::CanAssignController
PUBLIC	?CanDeleteSubAnim@Animatable@@UEAAHH@Z		; Animatable::CanDeleteSubAnim
PUBLIC	?DeleteSubAnim@Animatable@@UEAAXH@Z		; Animatable::DeleteSubAnim
PUBLIC	?GetSubAnimCurveColor@Animatable@@UEAAKH@Z	; Animatable::GetSubAnimCurveColor
PUBLIC	?CanCopyAnim@Animatable@@UEAAHXZ		; Animatable::CanCopyAnim
PUBLIC	?CanMakeUnique@Animatable@@UEAAHXZ		; Animatable::CanMakeUnique
PUBLIC	?NumChildren@Animatable@@UEAAHXZ		; Animatable::NumChildren
PUBLIC	?ChildAnim@Animatable@@UEAAPEAV1@H@Z		; Animatable::ChildAnim
PUBLIC	?RenderBegin@Animatable@@UEAAHHK@Z		; Animatable::RenderBegin
PUBLIC	?RenderEnd@Animatable@@UEAAHH@Z			; Animatable::RenderEnd
PUBLIC	?EditTrack@Animatable@@UEAAXXZ			; Animatable::EditTrack
PUBLIC	?NumKeys@Animatable@@UEAAHXZ			; Animatable::NumKeys
PUBLIC	?GetKeyTime@Animatable@@UEAAHH@Z		; Animatable::GetKeyTime
PUBLIC	?GetKeyIndex@Animatable@@UEAAHH@Z		; Animatable::GetKeyIndex
PUBLIC	?GetNextKeyTime@Animatable@@UEAAHHKAEAH@Z	; Animatable::GetNextKeyTime
PUBLIC	?CopyKeysFromTime@Animatable@@UEAAXHHK@Z	; Animatable::CopyKeysFromTime
PUBLIC	?DeleteKeyAtTime@Animatable@@UEAAXH@Z		; Animatable::DeleteKeyAtTime
PUBLIC	?IsKeyAtTime@Animatable@@UEAAHHK@Z		; Animatable::IsKeyAtTime
PUBLIC	?GetKeyTimes@Animatable@@UEAAHAEAV?$Tab@H@@VInterval@@K@Z ; Animatable::GetKeyTimes
PUBLIC	?GetKeySelState@Animatable@@UEAAHAEAVBitArray@@VInterval@@K@Z ; Animatable::GetKeySelState
PUBLIC	?EditTimeRange@Animatable@@UEAAXVInterval@@K@Z	; Animatable::EditTimeRange
PUBLIC	?DeleteTime@Animatable@@UEAAXVInterval@@K@Z	; Animatable::DeleteTime
PUBLIC	?ReverseTime@Animatable@@UEAAXVInterval@@K@Z	; Animatable::ReverseTime
PUBLIC	?ScaleTime@Animatable@@UEAAXVInterval@@M@Z	; Animatable::ScaleTime
PUBLIC	?InsertTime@Animatable@@UEAAXHH@Z		; Animatable::InsertTime
PUBLIC	?SupportTimeOperations@Animatable@@UEAAHXZ	; Animatable::SupportTimeOperations
PUBLIC	?DeleteKeys@Animatable@@UEAAXK@Z		; Animatable::DeleteKeys
PUBLIC	?DeleteKeyByIndex@Animatable@@UEAAXH@Z		; Animatable::DeleteKeyByIndex
PUBLIC	?SelectKeys@Animatable@@UEAAXAEAV?$Tab@VTrackHitRecord@@@@K@Z ; Animatable::SelectKeys
PUBLIC	?SelectSubKeys@Animatable@@UEAAXHAEAV?$Tab@VTrackHitRecord@@@@K@Z ; Animatable::SelectSubKeys
PUBLIC	?SelectSubCurve@Animatable@@UEAAXHH@Z		; Animatable::SelectSubCurve
PUBLIC	?SelectKeyByIndex@Animatable@@UEAAXHH@Z		; Animatable::SelectKeyByIndex
PUBLIC	?IsKeySelected@Animatable@@UEAAHH@Z		; Animatable::IsKeySelected
PUBLIC	?FlagKey@Animatable@@UEAAXVTrackHitRecord@@@Z	; Animatable::FlagKey
PUBLIC	?GetFlagKeyIndex@Animatable@@UEAAHXZ		; Animatable::GetFlagKeyIndex
PUBLIC	?NumSelKeys@Animatable@@UEAAHXZ			; Animatable::NumSelKeys
PUBLIC	?CloneSelectedKeys@Animatable@@UEAAXH@Z		; Animatable::CloneSelectedKeys
PUBLIC	?AddNewKey@Animatable@@UEAAXHK@Z		; Animatable::AddNewKey
PUBLIC	?MoveKeys@Animatable@@UEAAXPEAVParamDimensionBase@@MK@Z ; Animatable::MoveKeys
PUBLIC	?ScaleKeyValues@Animatable@@UEAAXPEAVParamDimensionBase@@MMK@Z ; Animatable::ScaleKeyValues
PUBLIC	?SelectCurve@Animatable@@UEAAXH@Z		; Animatable::SelectCurve
PUBLIC	?IsCurveSelected@Animatable@@UEAAHXZ		; Animatable::IsCurveSelected
PUBLIC	?IsSubCurveSelected@Animatable@@UEAAHH@Z	; Animatable::IsSubCurveSelected
PUBLIC	?GetSelKeyCoords@Animatable@@UEAAHAEAHAEAMK@Z	; Animatable::GetSelKeyCoords
PUBLIC	?SetSelKeyCoords@Animatable@@UEAAXHMK@Z		; Animatable::SetSelKeyCoords
PUBLIC	?SetSelKeyCoordsExpr@Animatable@@UEAAHPEAVParamDimension@@PEB_W1K@Z ; Animatable::SetSelKeyCoordsExpr
PUBLIC	?AdjustTangents@Animatable@@UEAAXVTrackHitRecord@@PEAVParamDimensionBase@@AEAVBox2@@MHMHHHK@Z ; Animatable::AdjustTangents
PUBLIC	?AdjustTangents@Animatable@@UEAAXVTrackHitRecord@@PEAVParamDimensionBase@@MMK@Z ; Animatable::AdjustTangents
PUBLIC	?SetKeyBufferPresent@Animatable@@UEAAHXZ	; Animatable::SetKeyBufferPresent
PUBLIC	?CommitSetKeyBuffer@Animatable@@UEAAXH@Z	; Animatable::CommitSetKeyBuffer
PUBLIC	?RevertSetKeyBuffer@Animatable@@UEAAXXZ		; Animatable::RevertSetKeyBuffer
PUBLIC	?CanCopyTrack@Animatable@@UEAAHVInterval@@K@Z	; Animatable::CanCopyTrack
PUBLIC	?CanPasteTrack@Animatable@@UEAAHPEAVTrackClipObject@@VInterval@@K@Z ; Animatable::CanPasteTrack
PUBLIC	?CopyTrack@Animatable@@UEAAPEAVTrackClipObject@@VInterval@@K@Z ; Animatable::CopyTrack
PUBLIC	?PasteTrack@Animatable@@UEAAXPEAVTrackClipObject@@VInterval@@K@Z ; Animatable::PasteTrack
PUBLIC	?CanCopySubTrack@Animatable@@UEAAHHVInterval@@K@Z ; Animatable::CanCopySubTrack
PUBLIC	?CanPasteSubTrack@Animatable@@UEAAHHPEAVTrackClipObject@@VInterval@@K@Z ; Animatable::CanPasteSubTrack
PUBLIC	?CopySubTrack@Animatable@@UEAAPEAVTrackClipObject@@HVInterval@@K@Z ; Animatable::CopySubTrack
PUBLIC	?PasteSubTrack@Animatable@@UEAAXHPEAVTrackClipObject@@VInterval@@K@Z ; Animatable::PasteSubTrack
PUBLIC	?GetTrackVSpace@Animatable@@UEAAHH@Z		; Animatable::GetTrackVSpace
PUBLIC	?HitTestTrack@Animatable@@UEAAHAEAV?$Tab@VTrackHitRecord@@@@AEAVBox2@@1MHK@Z ; Animatable::HitTestTrack
PUBLIC	?PaintTrack@Animatable@@UEAAHPEAVParamDimensionBase@@PEAUHDC__@@AEAVBox2@@2MHK@Z ; Animatable::PaintTrack
PUBLIC	?PaintSubTrack@Animatable@@UEAAHHPEAVParamDimensionBase@@PEAUHDC__@@AEAVBox2@@2MHK@Z ; Animatable::PaintSubTrack
PUBLIC	?PaintFCurves@Animatable@@UEAAHPEAVParamDimensionBase@@PEAUHDC__@@AEAVBox2@@2MHMHK@Z ; Animatable::PaintFCurves
PUBLIC	?HitTestFCurves@Animatable@@UEAAHPEAVParamDimensionBase@@AEAV?$Tab@VTrackHitRecord@@@@AEAVBox2@@2MHMHK@Z ; Animatable::HitTestFCurves
PUBLIC	?PaintSubFCurves@Animatable@@UEAAHHPEAVParamDimensionBase@@PEAUHDC__@@AEAVBox2@@2MHMHK@Z ; Animatable::PaintSubFCurves
PUBLIC	?HitTestSubFCurves@Animatable@@UEAAHHPEAVParamDimensionBase@@AEAV?$Tab@VTrackHitRecord@@@@AEAVBox2@@2MHMHK@Z ; Animatable::HitTestSubFCurves
PUBLIC	?EditTrackParams@Animatable@@UEAAXHPEAVParamDimensionBase@@PEB_WPEAUHWND__@@PEAVIObjParam@@K@Z ; Animatable::EditTrackParams
PUBLIC	?TrackParamsType@Animatable@@UEAAHXZ		; Animatable::TrackParamsType
PUBLIC	?GetFCurveExtents@Animatable@@UEAAHPEAVParamDimensionBase@@AEAM1K@Z ; Animatable::GetFCurveExtents
PUBLIC	?GetSubFCurveExtents@Animatable@@UEAAHHPEAVParamDimensionBase@@AEAM1K@Z ; Animatable::GetSubFCurveExtents
PUBLIC	?GetParamDimension@Animatable@@UEAAPEAVParamDimension@@H@Z ; Animatable::GetParamDimension
PUBLIC	?TrackViewWinProc@Animatable@@UEAA_JPEAUHWND__@@I_K_J@Z ; Animatable::TrackViewWinProc
PUBLIC	?SelectSubAnim@Animatable@@UEAAHH@Z		; Animatable::SelectSubAnim
PUBLIC	?FreeAllBitmaps@Animatable@@UEAAXXZ		; Animatable::FreeAllBitmaps
PUBLIC	?GetSystemNodes@Animatable@@UEAAXAEAVINodeTab@@W4SysNodeContext@@@Z ; Animatable::GetSystemNodes
PUBLIC	?IsSubClassOf@Animatable@@UEAAHVClass_ID@@@Z	; Animatable::IsSubClassOf
PUBLIC	?IsParamBlockDesc2Used@Animatable@@UEAA_NPEAVParamBlockDesc2@@@Z ; Animatable::IsParamBlockDesc2Used
PUBLIC	?GetMacroRecorderName@Animatable@@UEAA_N_NAEAVWStr@@@Z ; Animatable::GetMacroRecorderName
PUBLIC	?CanTransferReference@ReferenceMaker@@UEAAHH@Z	; ReferenceMaker::CanTransferReference
PUBLIC	?RemapRefOnLoad@ReferenceMaker@@UEAAHH@Z	; ReferenceMaker::RemapRefOnLoad
PUBLIC	?NotifyDependents@ReferenceMaker@@EEAA?AW4RefResult@@AEBVInterval@@_KIKHPEAVReferenceTarget@@@Z ; ReferenceMaker::NotifyDependents
PUBLIC	?IsRefMaker@ReferenceMaker@@UEAAHXZ		; ReferenceMaker::IsRefMaker
PUBLIC	?IsRealDependency@ReferenceMaker@@UEAAHPEAVReferenceTarget@@@Z ; ReferenceMaker::IsRealDependency
PUBLIC	?ShouldPersistWeakRef@ReferenceMaker@@UEAAHPEAVReferenceTarget@@@Z ; ReferenceMaker::ShouldPersistWeakRef
PUBLIC	?IsRefTarget@ReferenceTarget@@UEAAHXZ		; ReferenceTarget::IsRefTarget
PUBLIC	?RefAddedUndoRedo@ReferenceTarget@@UEAAXPEAVReferenceMaker@@@Z ; ReferenceTarget::RefAddedUndoRedo
PUBLIC	?RefDeleted@ReferenceTarget@@UEAAXXZ		; ReferenceTarget::RefDeleted
PUBLIC	?RefDeletedUndoRedo@ReferenceTarget@@UEAAXXZ	; ReferenceTarget::RefDeletedUndoRedo
PUBLIC	?NotifyForeground@ReferenceTarget@@UEAAXH@Z	; ReferenceTarget::NotifyForeground
PUBLIC	?NotifyTarget@ReferenceTarget@@UEAAXHPEAVReferenceMaker@@@Z ; ReferenceTarget::NotifyTarget
PUBLIC	?SubTexmapOn@ISubMap@@UEAAHH@Z			; ISubMap::SubTexmapOn
PUBLIC	?BuildMaps@MtlBase@@UEAAHHAEAVRenderMapsContext@@@Z ; MtlBase::BuildMaps
PUBLIC	?LocalMappingsRequired@MtlBase@@UEAAXHAEAVBitArray@@0@Z ; MtlBase::LocalMappingsRequired
PUBLIC	?IsMultiMtl@MtlBase@@UEAAHXZ			; MtlBase::IsMultiMtl
PUBLIC	?SupportsMultiMapsInViewport@MtlBase@@UEAAHXZ	; MtlBase::SupportsMultiMapsInViewport
PUBLIC	?SetupGfxMultiMaps@MtlBase@@UEAAXHPEAVMaterial@@AEAVMtlMakerCallback@@@Z ; MtlBase::SetupGfxMultiMaps
PUBLIC	?GetInterface@MtlBase@@UEAAPEAVBaseInterface@@VInterface_ID@@@Z ; MtlBase::GetInterface
PUBLIC	?GetRefTarget@MtlBase@@UEAAPEAVReferenceTarget@@XZ ; MtlBase::GetRefTarget
PUBLIC	?GetTransparencyHint@MtlBase@@UEAAHHAEAVInterval@@@Z ; MtlBase::GetTransparencyHint
PUBLIC	?HandleOwnViewPerturb@Texmap@@UEAAHXZ		; Texmap::HandleOwnViewPerturb
PUBLIC	?GetUVTransform@Texmap@@UEAAXAEAVMatrix3@@@Z	; Texmap::GetUVTransform
PUBLIC	?GetTextureTiling@Texmap@@UEAAHXZ		; Texmap::GetTextureTiling
PUBLIC	?GetUVWSource@Texmap@@UEAAHXZ			; Texmap::GetUVWSource
PUBLIC	?GetMapChannel@Texmap@@UEAAHXZ			; Texmap::GetMapChannel
PUBLIC	?InitSlotType@Texmap@@UEAAXH@Z			; Texmap::InitSlotType
PUBLIC	?MapSlotType@Texmap@@UEAAHH@Z			; Texmap::MapSlotType
PUBLIC	?GetTheUVGen@Texmap@@UEAAPEAVUVGen@@XZ		; Texmap::GetTheUVGen
PUBLIC	?SetOutputLevel@Texmap@@UEAAXHM@Z		; Texmap::SetOutputLevel
PUBLIC	?IsLocalOutputMeaningful@Texmap@@UEAA_NAEAVShadeContext@@@Z ; Texmap::IsLocalOutputMeaningful
PUBLIC	?LoadMapFiles@Texmap@@UEAAHH@Z			; Texmap::LoadMapFiles
PUBLIC	?IsHighDynamicRange@Texmap@@UEBAHXZ		; Texmap::IsHighDynamicRange
PUBLIC	??1Texmap@@UEAA@XZ				; Texmap::~Texmap
PUBLIC	?SetUserDlgProc@ClassDesc2@@UEAA_NPEAVParamBlockDesc2@@PEAVParamMap2UserDlgProc@@@Z ; ClassDesc2::SetUserDlgProc
PUBLIC	?CreateQtWidget@ClassDesc2@@UEAAPEAVQMaxParamBlockWidget@MaxSDK@@AEAVReferenceMaker@@AEAVIParamBlock2@@FAEAVWStr@@AEAH3@Z ; ClassDesc2::CreateQtWidget
PUBLIC	?SetUserDlgProc@ParamBlockDesc2@@QEAAXPEAVParamMap2UserDlgProc@@@Z ; ParamBlockDesc2::SetUserDlgProc
PUBLIC	?__autoclassinit2@ParamBlockDesc2@@QEAAX_K@Z	; ParamBlockDesc2::__autoclassinit2
PUBLIC	??1ParamMap2UserDlgProc@@UEAA@XZ		; ParamMap2UserDlgProc::~ParamMap2UserDlgProc
PUBLIC	?SetThing@ParamMap2UserDlgProc@@UEAAXPEAVReferenceTarget@@@Z ; ParamMap2UserDlgProc::SetThing
PUBLIC	?Update@ParamMap2UserDlgProc@@UEAAXH@Z		; ParamMap2UserDlgProc::Update
PUBLIC	?SetParamBlock@ParamMap2UserDlgProc@@UEAAXPEAVIParamBlock2@@@Z ; ParamMap2UserDlgProc::SetParamBlock
PUBLIC	?Update@ParamMap2UserDlgProc@@UEAAXHAEAVInterval@@PEAVIParamMap2@@@Z ; ParamMap2UserDlgProc::Update
PUBLIC	??0ParamMap2UserDlgProc@@QEAA@XZ		; ParamMap2UserDlgProc::ParamMap2UserDlgProc
PUBLIC	??_GParamMap2UserDlgProc@@UEAAPEAXI@Z		; ParamMap2UserDlgProc::`scalar deleting destructor'
PUBLIC	??4CurvePoint@@QEAAAEAV0@AEBV0@@Z		; CurvePoint::operator=
PUBLIC	?SetCustomImageList@ResourceMakerCallback@@UEAAHAEAPEAU_IMAGELIST@@PEAVICurveCtl@@@Z ; ResourceMakerCallback::SetCustomImageList
PUBLIC	?GetToolTip@ResourceMakerCallback@@UEAAHHAEAVWStr@@PEAVICurveCtl@@@Z ; ResourceMakerCallback::GetToolTip
PUBLIC	?ResetCallback@ResourceMakerCallback@@UEAAXHPEAVICurveCtl@@@Z ; ResourceMakerCallback::ResetCallback
PUBLIC	?NewCurveCreatedCallback@ResourceMakerCallback@@UEAAXHPEAVICurveCtl@@@Z ; ResourceMakerCallback::NewCurveCreatedCallback
PUBLIC	?GetInterface@ResourceMakerCallback@@UEAAPEAXK@Z ; ResourceMakerCallback::GetInterface
PUBLIC	??0ResourceMakerCallback@@QEAA@XZ		; ResourceMakerCallback::ResourceMakerCallback
PUBLIC	??0XYZ_Desc@@QEAA@PEAVClassDesc2@@HHHHHHH@Z	; XYZ_Desc::XYZ_Desc
PUBLIC	??1XYZ_Desc@@UEAA@XZ				; XYZ_Desc::~XYZ_Desc
PUBLIC	?__autoclassinit2@XYZ_Desc@@QEAAX_K@Z		; XYZ_Desc::__autoclassinit2
PUBLIC	??_GXYZ_Desc@@UEAAPEAXI@Z			; XYZ_Desc::`scalar deleting destructor'
PUBLIC	??0BerconXYZDlgProc@@QEAA@PEAVReferenceTarget@@@Z ; BerconXYZDlgProc::BerconXYZDlgProc
PUBLIC	?DlgProc@BerconXYZDlgProc@@UEAA_JHPEAVIParamMap2@@PEAUHWND__@@I_K_J@Z ; BerconXYZDlgProc::DlgProc
PUBLIC	?DeleteThis@BerconXYZDlgProc@@UEAAXXZ		; BerconXYZDlgProc::DeleteThis
PUBLIC	?SetThing@BerconXYZDlgProc@@UEAAXPEAVReferenceTarget@@@Z ; BerconXYZDlgProc::SetThing
PUBLIC	??1BerconXYZDlgProc@@UEAA@XZ			; BerconXYZDlgProc::~BerconXYZDlgProc
PUBLIC	?__autoclassinit2@BerconXYZDlgProc@@QEAAX_K@Z	; BerconXYZDlgProc::__autoclassinit2
PUBLIC	??_GBerconXYZDlgProc@@UEAAPEAXI@Z		; BerconXYZDlgProc::`scalar deleting destructor'
PUBLIC	??0BerconXYZ@@QEAA@XZ				; BerconXYZ::BerconXYZ
PUBLIC	?req@BerconXYZ@@QEAAKXZ				; BerconXYZ::req
PUBLIC	?map@BerconXYZ@@QEAAXHAEAVBitArray@@0@Z		; BerconXYZ::map
PUBLIC	?EvalParameters@BerconNoise@@QEAA?AVNoiseParams@@PEAVShadeContext@@@Z ; BerconNoise::EvalParameters
PUBLIC	?applyDistortion@BerconNoise@@QEAAXAEAVShadeContext@@AEAVPoint3@@@Z ; BerconNoise::applyDistortion
PUBLIC	?EnableStuff@BerconNoise@@QEAAXXZ		; BerconNoise::EnableStuff
PUBLIC	?SetCustomImageList@BerconNoise@@UEAAHAEAPEAU_IMAGELIST@@PEAVICurveCtl@@@Z ; BerconNoise::SetCustomImageList
PUBLIC	?GetToolTip@BerconNoise@@UEAAHHAEAVWStr@@PEAVICurveCtl@@@Z ; BerconNoise::GetToolTip
PUBLIC	?ResetCallback@BerconNoise@@UEAAXHPEAVICurveCtl@@@Z ; BerconNoise::ResetCallback
PUBLIC	?NewCurveCreatedCallback@BerconNoise@@UEAAXHPEAVICurveCtl@@@Z ; BerconNoise::NewCurveCreatedCallback
PUBLIC	?DiscardTexHandle@BerconNoise@@QEAAXXZ		; BerconNoise::DiscardTexHandle
PUBLIC	?SupportTexDisplay@BerconNoise@@UEAAHXZ		; BerconNoise::SupportTexDisplay
PUBLIC	?ActivateTexDisplay@BerconNoise@@UEAAXH@Z	; BerconNoise::ActivateTexDisplay
PUBLIC	?GetActiveTexHandle@BerconNoise@@UEAA_KHAEAVTexHandleMaker@@@Z ; BerconNoise::GetActiveTexHandle
PUBLIC	?CreateParamDlg@BerconNoise@@UEAAPEAVParamDlg@@PEAUHWND__@@PEAVIMtlParams@@@Z ; BerconNoise::CreateParamDlg
PUBLIC	?SetDlgThing@BerconNoise@@UEAAHPEAVParamDlg@@@Z	; BerconNoise::SetDlgThing
PUBLIC	?Update@BerconNoise@@UEAAXHAEAVInterval@@@Z	; BerconNoise::Update
PUBLIC	?Reset@BerconNoise@@UEAAXXZ			; BerconNoise::Reset
PUBLIC	?Validity@BerconNoise@@UEAA?AVInterval@@H@Z	; BerconNoise::Validity
PUBLIC	?LocalRequirements@BerconNoise@@UEAAKH@Z	; BerconNoise::LocalRequirements
PUBLIC	?MappingsRequired@BerconNoise@@UEAAXHAEAVBitArray@@0@Z ; BerconNoise::MappingsRequired
PUBLIC	?NumSubTexmaps@BerconNoise@@UEAAHXZ		; BerconNoise::NumSubTexmaps
PUBLIC	?GetSubTexmap@BerconNoise@@UEAAPEAVTexmap@@H@Z	; BerconNoise::GetSubTexmap
PUBLIC	?SetSubTexmap@BerconNoise@@UEAAXHPEAVTexmap@@@Z	; BerconNoise::SetSubTexmap
PUBLIC	?GetSubTexmapSlotName@BerconNoise@@UEAA?AVWStr@@H@Z ; BerconNoise::GetSubTexmapSlotName
PUBLIC	?EvalColor@BerconNoise@@UEAA?AVAColor@@AEAVShadeContext@@@Z ; BerconNoise::EvalColor
PUBLIC	?EvalMono@BerconNoise@@UEAAMAEAVShadeContext@@@Z ; BerconNoise::EvalMono
PUBLIC	?EvalNormalPerturb@BerconNoise@@UEAA?AVPoint3@@AEAVShadeContext@@@Z ; BerconNoise::EvalNormalPerturb
PUBLIC	?GetTheXYZGen@BerconNoise@@UEAAPEAVXYZGen@@XZ	; BerconNoise::GetTheXYZGen
PUBLIC	?SubNumToRefNum@BerconNoise@@UEAAHH@Z		; BerconNoise::SubNumToRefNum
PUBLIC	?ClassID@BerconNoise@@UEAA?AVClass_ID@@XZ	; BerconNoise::ClassID
PUBLIC	?SuperClassID@BerconNoise@@UEAAKXZ		; BerconNoise::SuperClassID
PUBLIC	?GetClassName@BerconNoise@@UEAAXAEAVWStr@@@Z	; BerconNoise::GetClassName
PUBLIC	?Clone@BerconNoise@@UEAAPEAVReferenceTarget@@AEAVRemapDir@@@Z ; BerconNoise::Clone
PUBLIC	?NotifyRefChanged@BerconNoise@@UEAA?AW4RefResult@@AEBVInterval@@PEAVReferenceTarget@@AEA_KIH@Z ; BerconNoise::NotifyRefChanged
PUBLIC	?NumSubs@BerconNoise@@UEAAHXZ			; BerconNoise::NumSubs
PUBLIC	?SubAnim@BerconNoise@@UEAAPEAVAnimatable@@H@Z	; BerconNoise::SubAnim
PUBLIC	?SubAnimName@BerconNoise@@UEAA?AVWStr@@H@Z	; BerconNoise::SubAnimName
PUBLIC	?NumRefs@BerconNoise@@UEAAHXZ			; BerconNoise::NumRefs
PUBLIC	?GetReference@BerconNoise@@UEAAPEAVReferenceTarget@@H@Z ; BerconNoise::GetReference
PUBLIC	?SetReference@BerconNoise@@UEAAXHPEAVReferenceTarget@@@Z ; BerconNoise::SetReference
PUBLIC	?NumParamBlocks@BerconNoise@@UEAAHXZ		; BerconNoise::NumParamBlocks
PUBLIC	?GetParamBlock@BerconNoise@@UEAAPEAVIParamBlock2@@H@Z ; BerconNoise::GetParamBlock
PUBLIC	?GetParamBlockByID@BerconNoise@@UEAAPEAVIParamBlock2@@F@Z ; BerconNoise::GetParamBlockByID
PUBLIC	?DeleteThis@BerconNoise@@UEAAXXZ		; BerconNoise::DeleteThis
PUBLIC	??0BerconNoise@@QEAA@XZ				; BerconNoise::BerconNoise
PUBLIC	??1BerconNoise@@UEAA@XZ				; BerconNoise::~BerconNoise
PUBLIC	?GetInterface@BerconNoise@@UEAAPEAXK@Z		; BerconNoise::GetInterface
PUBLIC	?__autoclassinit2@BerconNoise@@QEAAX_K@Z	; BerconNoise::__autoclassinit2
PUBLIC	??_GBerconNoise@@UEAAPEAXI@Z			; BerconNoise::`scalar deleting destructor'
PUBLIC	??0BerconNoiseClassDesc@@QEAA@XZ		; BerconNoiseClassDesc::BerconNoiseClassDesc
PUBLIC	??1BerconNoiseClassDesc@@UEAA@XZ		; BerconNoiseClassDesc::~BerconNoiseClassDesc
PUBLIC	?IsPublic@BerconNoiseClassDesc@@UEAAHXZ		; BerconNoiseClassDesc::IsPublic
PUBLIC	?Create@BerconNoiseClassDesc@@UEAAPEAXH@Z	; BerconNoiseClassDesc::Create
PUBLIC	?ClassName@BerconNoiseClassDesc@@UEAAPEB_WXZ	; BerconNoiseClassDesc::ClassName
PUBLIC	?SuperClassID@BerconNoiseClassDesc@@UEAAKXZ	; BerconNoiseClassDesc::SuperClassID
PUBLIC	?ClassID@BerconNoiseClassDesc@@UEAA?AVClass_ID@@XZ ; BerconNoiseClassDesc::ClassID
PUBLIC	?Category@BerconNoiseClassDesc@@UEAAPEB_WXZ	; BerconNoiseClassDesc::Category
PUBLIC	?InternalName@BerconNoiseClassDesc@@UEAAPEB_WXZ	; BerconNoiseClassDesc::InternalName
PUBLIC	?HInstance@BerconNoiseClassDesc@@UEAAPEAUHINSTANCE__@@XZ ; BerconNoiseClassDesc::HInstance
PUBLIC	?__autoclassinit2@BerconNoiseClassDesc@@QEAAX_K@Z ; BerconNoiseClassDesc::__autoclassinit2
PUBLIC	??_GBerconNoiseClassDesc@@UEAAPEAXI@Z		; BerconNoiseClassDesc::`scalar deleting destructor'
PUBLIC	?GetBerconNoiseDesc@@YAPEAVClassDesc2@@XZ	; GetBerconNoiseDesc
PUBLIC	??1BerconCurveDlgProcNOISE@@UEAA@XZ		; BerconCurveDlgProcNOISE::~BerconCurveDlgProcNOISE
PUBLIC	??0BerconCurveDlgProcNOISE@@QEAA@PEAVBerconNoise@@@Z ; BerconCurveDlgProcNOISE::BerconCurveDlgProcNOISE
PUBLIC	?DlgProc@BerconCurveDlgProcNOISE@@UEAA_JHPEAVIParamMap2@@PEAUHWND__@@I_K_J@Z ; BerconCurveDlgProcNOISE::DlgProc
PUBLIC	?DeleteThis@BerconCurveDlgProcNOISE@@UEAAXXZ	; BerconCurveDlgProcNOISE::DeleteThis
PUBLIC	?SetThing@BerconCurveDlgProcNOISE@@UEAAXPEAVReferenceTarget@@@Z ; BerconCurveDlgProcNOISE::SetThing
PUBLIC	?__autoclassinit2@BerconCurveDlgProcNOISE@@QEAAX_K@Z ; BerconCurveDlgProcNOISE::__autoclassinit2
PUBLIC	??_GBerconCurveDlgProcNOISE@@UEAAPEAXI@Z	; BerconCurveDlgProcNOISE::`scalar deleting destructor'
PUBLIC	??1BerconNoiseDlgProc@@UEAA@XZ			; BerconNoiseDlgProc::~BerconNoiseDlgProc
PUBLIC	??0BerconNoiseDlgProc@@QEAA@PEAVBerconNoise@@@Z	; BerconNoiseDlgProc::BerconNoiseDlgProc
PUBLIC	?DlgProc@BerconNoiseDlgProc@@UEAA_JHPEAVIParamMap2@@PEAUHWND__@@I_K_J@Z ; BerconNoiseDlgProc::DlgProc
PUBLIC	?DeleteThis@BerconNoiseDlgProc@@UEAAXXZ		; BerconNoiseDlgProc::DeleteThis
PUBLIC	?SetThing@BerconNoiseDlgProc@@UEAAXPEAVReferenceTarget@@@Z ; BerconNoiseDlgProc::SetThing
PUBLIC	?__autoclassinit2@BerconNoiseDlgProc@@QEAAX_K@Z	; BerconNoiseDlgProc::__autoclassinit2
PUBLIC	??_GBerconNoiseDlgProc@@UEAAPEAXI@Z		; BerconNoiseDlgProc::`scalar deleting destructor'
PUBLIC	??_EBerconNoise@@WEA@EAAPEAXI@Z			; [thunk]:BerconNoise::`vector deleting destructor'
PUBLIC	?GetInterface@BerconNoise@@WJA@EAAPEAXK@Z	; [thunk]:BerconNoise::GetInterface`adjustor{144}'
PUBLIC	??_7TabOutOfRangeException@Util@MaxSDK@@6B@	; MaxSDK::Util::TabOutOfRangeException::`vftable'
PUBLIC	??_C@_1EK@FOLBONAG@?$AAM?$AAa?$AAx?$AAS?$AAD?$AAK?$AA?3?$AA?3?$AAU?$AAt?$AAi?$AAl?$AA?3?$AA?3?$AAT?$AAa?$AAb?$AAO?$AAu?$AAt?$AAO?$AAf?$AAR?$AAa?$AAn?$AAg?$AAe?$AAE?$AAx?$AAc?$AAe?$AAp@ ; `string'
PUBLIC	??_R0?AVClassDesc2@@@8				; ClassDesc2 `RTTI Type Descriptor'
PUBLIC	??_7ParamMap2UserDlgProc@@6B@			; ParamMap2UserDlgProc::`vftable'
PUBLIC	??_R0?AVMaxHeapOperators@@@8			; MaxHeapOperators `RTTI Type Descriptor'
PUBLIC	_CT??_R0?AVMaxHeapOperators@@@818
PUBLIC	??_7ResourceMakerCallback@@6B@			; ResourceMakerCallback::`vftable'
PUBLIC	??_7XYZ_Desc@@6B@				; XYZ_Desc::`vftable'
PUBLIC	??_C@_1BM@LCALCDFD@?$AAx?$AAy?$AAz?$AA_?$AAf?$AAi?$AAl?$AAt?$AAe?$AAr?$AAi?$AAn?$AAg?$AA?$AA@ ; `string'
PUBLIC	??_C@_1BC@JCCAEAIN@?$AAx?$AAy?$AAz?$AA_?$AAl?$AAo?$AAc?$AAk?$AA?$AA@ ; `string'
PUBLIC	??_C@_1BK@FLPLJMAJ@?$AAx?$AAy?$AAz?$AA_?$AAa?$AAn?$AAg?$AAl?$AAe?$AA_?$AAz?$AA2?$AA?$AA@ ; `string'
PUBLIC	??_C@_1BK@NNGPOOKH@?$AAx?$AAy?$AAz?$AA_?$AAa?$AAn?$AAg?$AAl?$AAe?$AA_?$AAy?$AA2?$AA?$AA@ ; `string'
PUBLIC	??_C@_1BK@BGDDDNAC@?$AAx?$AAy?$AAz?$AA_?$AAa?$AAn?$AAg?$AAl?$AAe?$AA_?$AAx?$AA2?$AA?$AA@ ; `string'
PUBLIC	??_C@_1BI@MHJCJGME@?$AAx?$AAy?$AAz?$AA_?$AAs?$AAi?$AAz?$AAe?$AA_?$AAz?$AA2?$AA?$AA@ ; `string'
PUBLIC	??_C@_1BI@EBAGOEGK@?$AAx?$AAy?$AAz?$AA_?$AAs?$AAi?$AAz?$AAe?$AA_?$AAy?$AA2?$AA?$AA@ ; `string'
PUBLIC	??_C@_1BI@IKFKDHMP@?$AAx?$AAy?$AAz?$AA_?$AAs?$AAi?$AAz?$AAe?$AA_?$AAx?$AA2?$AA?$AA@ ; `string'
PUBLIC	??_C@_1BM@HJOOPID@?$AAx?$AAy?$AAz?$AA_?$AAo?$AAf?$AAf?$AAs?$AAe?$AAt?$AA_?$AAz?$AA2?$AA?$AA@ ; `string'
PUBLIC	??_C@_1BM@IBAKJNCN@?$AAx?$AAy?$AAz?$AA_?$AAo?$AAf?$AAf?$AAs?$AAe?$AAt?$AA_?$AAy?$AA2?$AA?$AA@ ; `string'
PUBLIC	??_C@_1BM@EKFGEOII@?$AAx?$AAy?$AAz?$AA_?$AAo?$AAf?$AAf?$AAs?$AAe?$AAt?$AA_?$AAx?$AA2?$AA?$AA@ ; `string'
PUBLIC	??_C@_1BE@PALBIMHK@?$AAr?$AAa?$AAn?$AAd?$AAB?$AAy?$AAP?$AAa?$AAr?$AA?$AA@ ; `string'
PUBLIC	??_C@_1BE@EGBDKCCD@?$AAr?$AAa?$AAn?$AAd?$AAB?$AAy?$AAO?$AAb?$AAj?$AA?$AA@ ; `string'
PUBLIC	??_C@_1BE@DCGEPHFM@?$AAr?$AAa?$AAn?$AAd?$AAB?$AAy?$AAM?$AAa?$AAt?$AA?$AA@ ; `string'
PUBLIC	??_C@_19HFHNPJHA@?$AAs?$AAe?$AAe?$AAd?$AA?$AA@	; `string'
PUBLIC	??_C@_1BG@EDCBABDD@?$AAx?$AAy?$AAz?$AA_?$AAt?$AAi?$AAl?$AAe?$AA_?$AAz?$AA?$AA@ ; `string'
PUBLIC	??_C@_1BG@FBJEKONN@?$AAx?$AAy?$AAz?$AA_?$AAt?$AAi?$AAl?$AAe?$AA_?$AAy?$AA?$AA@ ; `string'
PUBLIC	??_C@_1BG@OJCIMJLI@?$AAx?$AAy?$AAz?$AA_?$AAt?$AAi?$AAl?$AAe?$AA_?$AAx?$AA?$AA@ ; `string'
PUBLIC	??_C@_1BI@LALGELMD@?$AAx?$AAy?$AAz?$AA_?$AAa?$AAn?$AAg?$AAl?$AAe?$AA_?$AAz?$AA?$AA@ ; `string'
PUBLIC	??_C@_1BI@KCADOECN@?$AAx?$AAy?$AAz?$AA_?$AAa?$AAn?$AAg?$AAl?$AAe?$AA_?$AAy?$AA?$AA@ ; `string'
PUBLIC	??_C@_1BI@BKLPIDEI@?$AAx?$AAy?$AAz?$AA_?$AAa?$AAn?$AAg?$AAl?$AAe?$AA_?$AAx?$AA?$AA@ ; `string'
PUBLIC	??_C@_1BG@MFMFKFM@?$AAx?$AAy?$AAz?$AA_?$AAs?$AAi?$AAz?$AAe?$AA_?$AAz?$AA?$AA@ ; `string'
PUBLIC	??_C@_1BG@BOOJPFLC@?$AAx?$AAy?$AAz?$AA_?$AAs?$AAi?$AAz?$AAe?$AA_?$AAy?$AA?$AA@ ; `string'
PUBLIC	??_C@_1BG@KGFFJCNH@?$AAx?$AAy?$AAz?$AA_?$AAs?$AAi?$AAz?$AAe?$AA_?$AAx?$AA?$AA@ ; `string'
PUBLIC	??_C@_1BK@HPJLBIGD@?$AAx?$AAy?$AAz?$AA_?$AAo?$AAf?$AAf?$AAs?$AAe?$AAt?$AA_?$AAz?$AA?$AA@ ; `string'
PUBLIC	??_C@_1BK@GNCOLHIN@?$AAx?$AAy?$AAz?$AA_?$AAo?$AAf?$AAf?$AAs?$AAe?$AAt?$AA_?$AAy?$AA?$AA@ ; `string'
PUBLIC	??_C@_1BK@NFJCNAOI@?$AAx?$AAy?$AAz?$AA_?$AAo?$AAf?$AAf?$AAs?$AAe?$AAt?$AA_?$AAx?$AA?$AA@ ; `string'
PUBLIC	??_C@_1BC@BDPIEDCA@?$AAx?$AAy?$AAz?$AA_?$AAc?$AAh?$AAa?$AAn?$AA?$AA@ ; `string'
PUBLIC	??_C@_1BA@JOBDKJKA@?$AAx?$AAy?$AAz?$AA_?$AAm?$AAa?$AAp?$AA?$AA@ ; `string'
PUBLIC	??_C@_1BA@KMAKHADK@?$AAM?$AAa?$AAp?$AAp?$AAi?$AAn?$AAg?$AA?$AA@ ; `string'
PUBLIC	??_7BerconXYZDlgProc@@6B@			; BerconXYZDlgProc::`vftable'
PUBLIC	??_C@_13PHJMHGG@?$AAL?$AA?$AA@			; `string'
PUBLIC	??_7BerconNoise@@6BReferenceTarget@@@		; BerconNoise::`vftable'
PUBLIC	??_7BerconNoise@@6BISubMap@@@			; BerconNoise::`vftable'
PUBLIC	??_7BerconNoise@@6B@				; BerconNoise::`vftable'
PUBLIC	??_7BerconNoiseClassDesc@@6B@			; BerconNoiseClassDesc::`vftable'
PUBLIC	??_C@_1BI@OFHJLFOO@?$AAB?$AAe?$AAr?$AAc?$AAo?$AAn?$AAN?$AAo?$AAi?$AAs?$AAe?$AA?$AA@ ; `string'
PUBLIC	??_7BerconCurveDlgProcNOISE@@6B@		; BerconCurveDlgProcNOISE::`vftable'
PUBLIC	??_7BerconNoiseDlgProc@@6B@			; BerconNoiseDlgProc::`vftable'
PUBLIC	_TI4?AVTabOutOfRangeException@Util@MaxSDK@@
PUBLIC	_CTA4?AVTabOutOfRangeException@Util@MaxSDK@@
PUBLIC	??_R0?AVTabOutOfRangeException@Util@MaxSDK@@@8	; MaxSDK::Util::TabOutOfRangeException `RTTI Type Descriptor'
PUBLIC	_CT??_R0?AVTabOutOfRangeException@Util@MaxSDK@@@8??0TabOutOfRangeException@Util@MaxSDK@@QEAA@AEBV012@@Z16
PUBLIC	??_R0?AVOutOfRangeException@Util@MaxSDK@@@8	; MaxSDK::Util::OutOfRangeException `RTTI Type Descriptor'
PUBLIC	_CT??_R0?AVOutOfRangeException@Util@MaxSDK@@@8??0OutOfRangeException@Util@MaxSDK@@QEAA@AEBV012@@Z16
PUBLIC	??_R0?AVException@Util@MaxSDK@@@8		; MaxSDK::Util::Exception `RTTI Type Descriptor'
PUBLIC	_CT??_R0?AVException@Util@MaxSDK@@@8??0Exception@Util@MaxSDK@@QEAA@AEBV012@@Z16
PUBLIC	??_C@_1GI@NLEIFPEJ@?$AAI?$AAn?$AAv?$AAa?$AAl?$AAi?$AAd?$AA?5?$AAi?$AAn?$AAd?$AAe?$AAx?$AA?5?$AAp?$AAa?$AAs?$AAs?$AAe?$AAd?$AA?5?$AAi?$AAn?$AAt?$AAo?$AA?5?$AAa?$AA?5?$AAM?$AAa?$AAx?$AA?5@ ; `string'
PUBLIC	??_R4TabOutOfRangeException@Util@MaxSDK@@6B@	; MaxSDK::Util::TabOutOfRangeException::`RTTI Complete Object Locator'
PUBLIC	??_R3TabOutOfRangeException@Util@MaxSDK@@8	; MaxSDK::Util::TabOutOfRangeException::`RTTI Class Hierarchy Descriptor'
PUBLIC	??_R2TabOutOfRangeException@Util@MaxSDK@@8	; MaxSDK::Util::TabOutOfRangeException::`RTTI Base Class Array'
PUBLIC	??_R1A@?0A@EA@TabOutOfRangeException@Util@MaxSDK@@8 ; MaxSDK::Util::TabOutOfRangeException::`RTTI Base Class Descriptor at (0,-1,0,64)'
PUBLIC	??_R1A@?0A@EA@OutOfRangeException@Util@MaxSDK@@8 ; MaxSDK::Util::OutOfRangeException::`RTTI Base Class Descriptor at (0,-1,0,64)'
PUBLIC	??_R3OutOfRangeException@Util@MaxSDK@@8		; MaxSDK::Util::OutOfRangeException::`RTTI Class Hierarchy Descriptor'
PUBLIC	??_R2OutOfRangeException@Util@MaxSDK@@8		; MaxSDK::Util::OutOfRangeException::`RTTI Base Class Array'
PUBLIC	??_R1A@?0A@EA@Exception@Util@MaxSDK@@8		; MaxSDK::Util::Exception::`RTTI Base Class Descriptor at (0,-1,0,64)'
PUBLIC	??_R3Exception@Util@MaxSDK@@8			; MaxSDK::Util::Exception::`RTTI Class Hierarchy Descriptor'
PUBLIC	??_R2Exception@Util@MaxSDK@@8			; MaxSDK::Util::Exception::`RTTI Base Class Array'
PUBLIC	??_R17?0A@EA@MaxHeapOperators@@8		; MaxHeapOperators::`RTTI Base Class Descriptor at (8,-1,0,64)'
PUBLIC	??_R3MaxHeapOperators@@8			; MaxHeapOperators::`RTTI Class Hierarchy Descriptor'
PUBLIC	??_R2MaxHeapOperators@@8			; MaxHeapOperators::`RTTI Base Class Array'
PUBLIC	??_R1A@?0A@EA@MaxHeapOperators@@8		; MaxHeapOperators::`RTTI Base Class Descriptor at (0,-1,0,64)'
PUBLIC	??_R1A@?0A@EA@InterfaceServer@@8		; InterfaceServer::`RTTI Base Class Descriptor at (0,-1,0,64)'
PUBLIC	??_R0?AVInterfaceServer@@@8			; InterfaceServer `RTTI Type Descriptor'
PUBLIC	??_R3InterfaceServer@@8				; InterfaceServer::`RTTI Class Hierarchy Descriptor'
PUBLIC	??_R2InterfaceServer@@8				; InterfaceServer::`RTTI Base Class Array'
PUBLIC	??_R0?AVBaseInterfaceServer@@@8			; BaseInterfaceServer `RTTI Type Descriptor'
PUBLIC	??_R3BaseInterfaceServer@@8			; BaseInterfaceServer::`RTTI Class Hierarchy Descriptor'
PUBLIC	??_R2BaseInterfaceServer@@8			; BaseInterfaceServer::`RTTI Base Class Array'
PUBLIC	??_R1A@?0A@EA@BaseInterfaceServer@@8		; BaseInterfaceServer::`RTTI Base Class Descriptor at (0,-1,0,64)'
PUBLIC	??_R1A@?0A@EA@ReferenceTarget@@8		; ReferenceTarget::`RTTI Base Class Descriptor at (0,-1,0,64)'
PUBLIC	??_R0?AVReferenceTarget@@@8			; ReferenceTarget `RTTI Type Descriptor'
PUBLIC	??_R3ReferenceTarget@@8				; ReferenceTarget::`RTTI Class Hierarchy Descriptor'
PUBLIC	??_R2ReferenceTarget@@8				; ReferenceTarget::`RTTI Base Class Array'
PUBLIC	??_R1A@?0A@EA@ReferenceMaker@@8			; ReferenceMaker::`RTTI Base Class Descriptor at (0,-1,0,64)'
PUBLIC	??_R0?AVReferenceMaker@@@8			; ReferenceMaker `RTTI Type Descriptor'
PUBLIC	??_R3ReferenceMaker@@8				; ReferenceMaker::`RTTI Class Hierarchy Descriptor'
PUBLIC	??_R2ReferenceMaker@@8				; ReferenceMaker::`RTTI Base Class Array'
PUBLIC	??_R1A@?0A@EA@Animatable@@8			; Animatable::`RTTI Base Class Descriptor at (0,-1,0,64)'
PUBLIC	??_R0?AVAnimatable@@@8				; Animatable `RTTI Type Descriptor'
PUBLIC	??_R3Animatable@@8				; Animatable::`RTTI Class Hierarchy Descriptor'
PUBLIC	??_R2Animatable@@8				; Animatable::`RTTI Base Class Array'
PUBLIC	??_R17?0A@EC@MaxHeapOperators@@8		; MaxHeapOperators::`RTTI Base Class Descriptor at (8,-1,0,66)'
PUBLIC	??_R18?0A@EA@Noncopyable@Util@MaxSDK@@8		; MaxSDK::Util::Noncopyable::`RTTI Base Class Descriptor at (9,-1,0,64)'
PUBLIC	??_R0?AVNoncopyable@Util@MaxSDK@@@8		; MaxSDK::Util::Noncopyable `RTTI Type Descriptor'
PUBLIC	??_R3Noncopyable@Util@MaxSDK@@8			; MaxSDK::Util::Noncopyable::`RTTI Class Hierarchy Descriptor'
PUBLIC	??_R2Noncopyable@Util@MaxSDK@@8			; MaxSDK::Util::Noncopyable::`RTTI Base Class Array'
PUBLIC	??_R1A@?0A@EA@Noncopyable@Util@MaxSDK@@8	; MaxSDK::Util::Noncopyable::`RTTI Base Class Descriptor at (0,-1,0,64)'
PUBLIC	??_R18?0A@EC@MaxHeapOperators@@8		; MaxHeapOperators::`RTTI Base Class Descriptor at (9,-1,0,66)'
PUBLIC	??_R1EI@?0A@EC@MaxHeapOperators@@8		; MaxHeapOperators::`RTTI Base Class Descriptor at (72,-1,0,66)'
PUBLIC	??_R4ParamMap2UserDlgProc@@6B@			; ParamMap2UserDlgProc::`RTTI Complete Object Locator'
PUBLIC	??_R0?AVParamMap2UserDlgProc@@@8		; ParamMap2UserDlgProc `RTTI Type Descriptor'
PUBLIC	??_R3ParamMap2UserDlgProc@@8			; ParamMap2UserDlgProc::`RTTI Class Hierarchy Descriptor'
PUBLIC	??_R2ParamMap2UserDlgProc@@8			; ParamMap2UserDlgProc::`RTTI Base Class Array'
PUBLIC	??_R1A@?0A@EA@ParamMap2UserDlgProc@@8		; ParamMap2UserDlgProc::`RTTI Base Class Descriptor at (0,-1,0,64)'
PUBLIC	??_R0?AVClassDesc@@@8				; ClassDesc `RTTI Type Descriptor'
PUBLIC	??_R3ClassDesc@@8				; ClassDesc::`RTTI Class Hierarchy Descriptor'
PUBLIC	??_R2ClassDesc@@8				; ClassDesc::`RTTI Base Class Array'
PUBLIC	??_R1A@?0A@EA@ClassDesc@@8			; ClassDesc::`RTTI Base Class Descriptor at (0,-1,0,64)'
PUBLIC	??_R0?AVISubMap@@@8				; ISubMap `RTTI Type Descriptor'
PUBLIC	??_R3ISubMap@@8					; ISubMap::`RTTI Class Hierarchy Descriptor'
PUBLIC	??_R2ISubMap@@8					; ISubMap::`RTTI Base Class Array'
PUBLIC	??_R1A@?0A@EA@ISubMap@@8			; ISubMap::`RTTI Base Class Descriptor at (0,-1,0,64)'
PUBLIC	??_R4ResourceMakerCallback@@6B@			; ResourceMakerCallback::`RTTI Complete Object Locator'
PUBLIC	??_R0?AVResourceMakerCallback@@@8		; ResourceMakerCallback `RTTI Type Descriptor'
PUBLIC	??_R3ResourceMakerCallback@@8			; ResourceMakerCallback::`RTTI Class Hierarchy Descriptor'
PUBLIC	??_R2ResourceMakerCallback@@8			; ResourceMakerCallback::`RTTI Base Class Array'
PUBLIC	??_R1A@?0A@EA@ResourceMakerCallback@@8		; ResourceMakerCallback::`RTTI Base Class Descriptor at (0,-1,0,64)'
PUBLIC	??_R4XYZ_Desc@@6B@				; XYZ_Desc::`RTTI Complete Object Locator'
PUBLIC	??_R0?AVXYZ_Desc@@@8				; XYZ_Desc `RTTI Type Descriptor'
PUBLIC	??_R3XYZ_Desc@@8				; XYZ_Desc::`RTTI Class Hierarchy Descriptor'
PUBLIC	??_R2XYZ_Desc@@8				; XYZ_Desc::`RTTI Base Class Array'
PUBLIC	??_R1A@?0A@EA@XYZ_Desc@@8			; XYZ_Desc::`RTTI Base Class Descriptor at (0,-1,0,64)'
PUBLIC	??_R1A@?0A@EA@ParamBlockDesc2@@8		; ParamBlockDesc2::`RTTI Base Class Descriptor at (0,-1,0,64)'
PUBLIC	??_R0?AVParamBlockDesc2@@@8			; ParamBlockDesc2 `RTTI Type Descriptor'
PUBLIC	??_R3ParamBlockDesc2@@8				; ParamBlockDesc2::`RTTI Class Hierarchy Descriptor'
PUBLIC	??_R2ParamBlockDesc2@@8				; ParamBlockDesc2::`RTTI Base Class Array'
PUBLIC	??_R4BerconXYZDlgProc@@6B@			; BerconXYZDlgProc::`RTTI Complete Object Locator'
PUBLIC	??_R0?AVBerconXYZDlgProc@@@8			; BerconXYZDlgProc `RTTI Type Descriptor'
PUBLIC	??_R3BerconXYZDlgProc@@8			; BerconXYZDlgProc::`RTTI Class Hierarchy Descriptor'
PUBLIC	??_R2BerconXYZDlgProc@@8			; BerconXYZDlgProc::`RTTI Base Class Array'
PUBLIC	??_R1A@?0A@EA@BerconXYZDlgProc@@8		; BerconXYZDlgProc::`RTTI Base Class Descriptor at (0,-1,0,64)'
PUBLIC	??_R4BerconNoise@@6BReferenceTarget@@@		; BerconNoise::`RTTI Complete Object Locator'
PUBLIC	??_R0?AVBerconNoise@@@8				; BerconNoise `RTTI Type Descriptor'
PUBLIC	??_R3BerconNoise@@8				; BerconNoise::`RTTI Class Hierarchy Descriptor'
PUBLIC	??_R2BerconNoise@@8				; BerconNoise::`RTTI Base Class Array'
PUBLIC	??_R1A@?0A@EA@BerconNoise@@8			; BerconNoise::`RTTI Base Class Descriptor at (0,-1,0,64)'
PUBLIC	??_R1A@?0A@EA@Texmap@@8				; Texmap::`RTTI Base Class Descriptor at (0,-1,0,64)'
PUBLIC	??_R0?AVTexmap@@@8				; Texmap `RTTI Type Descriptor'
PUBLIC	??_R3Texmap@@8					; Texmap::`RTTI Class Hierarchy Descriptor'
PUBLIC	??_R2Texmap@@8					; Texmap::`RTTI Base Class Array'
PUBLIC	??_R1A@?0A@EA@MtlBase@@8			; MtlBase::`RTTI Base Class Descriptor at (0,-1,0,64)'
PUBLIC	??_R0?AVMtlBase@@@8				; MtlBase `RTTI Type Descriptor'
PUBLIC	??_R3MtlBase@@8					; MtlBase::`RTTI Class Hierarchy Descriptor'
PUBLIC	??_R2MtlBase@@8					; MtlBase::`RTTI Base Class Array'
PUBLIC	??_R1EA@?0A@EA@ISubMap@@8			; ISubMap::`RTTI Base Class Descriptor at (64,-1,0,64)'
PUBLIC	??_R1JA@?0A@EA@ResourceMakerCallback@@8		; ResourceMakerCallback::`RTTI Base Class Descriptor at (144,-1,0,64)'
PUBLIC	??_R1JI@?0A@EC@MaxHeapOperators@@8		; MaxHeapOperators::`RTTI Base Class Descriptor at (152,-1,0,66)'
PUBLIC	??_R4BerconNoise@@6BISubMap@@@			; BerconNoise::`RTTI Complete Object Locator'
PUBLIC	??_R4BerconNoise@@6B@				; BerconNoise::`RTTI Complete Object Locator'
PUBLIC	??_R4BerconNoiseClassDesc@@6B@			; BerconNoiseClassDesc::`RTTI Complete Object Locator'
PUBLIC	??_R0?AVBerconNoiseClassDesc@@@8		; BerconNoiseClassDesc `RTTI Type Descriptor'
PUBLIC	??_R3BerconNoiseClassDesc@@8			; BerconNoiseClassDesc::`RTTI Class Hierarchy Descriptor'
PUBLIC	??_R2BerconNoiseClassDesc@@8			; BerconNoiseClassDesc::`RTTI Base Class Array'
PUBLIC	??_R1A@?0A@EA@BerconNoiseClassDesc@@8		; BerconNoiseClassDesc::`RTTI Base Class Descriptor at (0,-1,0,64)'
PUBLIC	??_R1A@?0A@EA@ClassDesc2@@8			; ClassDesc2::`RTTI Base Class Descriptor at (0,-1,0,64)'
PUBLIC	??_R3ClassDesc2@@8				; ClassDesc2::`RTTI Class Hierarchy Descriptor'
PUBLIC	??_R2ClassDesc2@@8				; ClassDesc2::`RTTI Base Class Array'
PUBLIC	??_R4BerconCurveDlgProcNOISE@@6B@		; BerconCurveDlgProcNOISE::`RTTI Complete Object Locator'
PUBLIC	??_R0?AVBerconCurveDlgProcNOISE@@@8		; BerconCurveDlgProcNOISE `RTTI Type Descriptor'
PUBLIC	??_R3BerconCurveDlgProcNOISE@@8			; BerconCurveDlgProcNOISE::`RTTI Class Hierarchy Descriptor'
PUBLIC	??_R2BerconCurveDlgProcNOISE@@8			; BerconCurveDlgProcNOISE::`RTTI Base Class Array'
PUBLIC	??_R1A@?0A@EA@BerconCurveDlgProcNOISE@@8	; BerconCurveDlgProcNOISE::`RTTI Base Class Descriptor at (0,-1,0,64)'
PUBLIC	??_R4BerconNoiseDlgProc@@6B@			; BerconNoiseDlgProc::`RTTI Complete Object Locator'
PUBLIC	??_R0?AVBerconNoiseDlgProc@@@8			; BerconNoiseDlgProc `RTTI Type Descriptor'
PUBLIC	??_R3BerconNoiseDlgProc@@8			; BerconNoiseDlgProc::`RTTI Class Hierarchy Descriptor'
PUBLIC	??_R2BerconNoiseDlgProc@@8			; BerconNoiseDlgProc::`RTTI Base Class Array'
PUBLIC	??_R1A@?0A@EA@BerconNoiseDlgProc@@8		; BerconNoiseDlgProc::`RTTI Base Class Descriptor at (0,-1,0,64)'
PUBLIC	__real@3a83126f
PUBLIC	__real@3dcccccd
PUBLIC	__real@3f000000
PUBLIC	__real@3f1a36e2e0000000
PUBLIC	__real@3f800000
PUBLIC	__real@3fb99999a0000000
PUBLIC	__real@3ff0000000000000
PUBLIC	__real@40000000
PUBLIC	__real@4008000000000000
PUBLIC	__real@4034000000000000
PUBLIC	__real@4039000000000000
PUBLIC	__real@40400000
PUBLIC	__real@4059000000000000
PUBLIC	__real@408f400000000000
PUBLIC	__real@40a00000
PUBLIC	__real@412e848000000000
PUBLIC	__real@41c80000
PUBLIC	__real@bff0000000000000
PUBLIC	__real@c08f400000000000
PUBLIC	__real@c12e848000000000
EXTRN	_purecall:PROC
EXTRN	?__global_delete@@YAXPEAX_K@Z:PROC		; __global_delete
EXTRN	atexit:PROC
EXTRN	__imp_SendMessageW:PROC
EXTRN	__imp_GetDlgItem:PROC
EXTRN	__imp_??2MaxHeapOperators@@SAPEAX_K@Z:PROC
EXTRN	__imp_??3MaxHeapOperators@@SAXPEAX@Z:PROC
EXTRN	__imp_??0OutOfRangeException@Util@MaxSDK@@QEAA@PEB_W@Z:PROC
EXTRN	__imp_??1OutOfRangeException@Util@MaxSDK@@UEAA@XZ:PROC
EXTRN	__imp_??0OutOfRangeException@Util@MaxSDK@@QEAA@AEBV012@@Z:PROC
EXTRN	??_ETabOutOfRangeException@Util@MaxSDK@@UEAAPEAXI@Z:PROC ; MaxSDK::Util::TabOutOfRangeException::`vector deleting destructor'
EXTRN	__imp_??0WStr@@QEAA@PEB_W@Z:PROC
EXTRN	__imp_??1WStr@@QEAA@XZ:PROC
EXTRN	__imp_??4WStr@@QEAAAEAV0@PEB_W@Z:PROC
EXTRN	__imp_??0Point3@@QEAA@XZ:PROC
EXTRN	__imp_??0Point3@@QEAA@MMM@Z:PROC
EXTRN	__imp_??0Point3@@QEAA@HHH@Z:PROC
EXTRN	__imp_??0Point3@@QEAA@AEBV0@@Z:PROC
EXTRN	__imp_??GPoint3@@QEBA?AV0@XZ:PROC
EXTRN	__imp_??YPoint3@@QEAAAEAV0@AEBV0@@Z:PROC
EXTRN	__imp_??XPoint3@@QEAAAEAV0@M@Z:PROC
EXTRN	__imp_??_0Point3@@QEAAAEAV0@M@Z:PROC
EXTRN	__imp_??HPoint3@@QEBA?AV0@AEBV0@@Z:PROC
EXTRN	__imp_?CreateInstance@@YAPEAXKVClass_ID@@@Z:PROC
EXTRN	__imp_?IdentityMatrix@Matrix3@@QEAAXXZ:PROC
EXTRN	__imp_?ClampMinMax@Color@@QEAAXXZ:PROC
EXTRN	__imp_?GetICustButton@@YAPEAVICustButton@@PEAUHWND__@@@Z:PROC
EXTRN	__imp_?ReleaseICustButton@@YAXPEAVICustButton@@@Z:PROC
EXTRN	__imp_??0Interval@@QEAA@HH@Z:PROC
EXTRN	__imp_?InInterval@Interval@@QEBAHH@Z:PROC
EXTRN	__imp_??IInterval@@QEBA?AV0@V0@@Z:PROC
EXTRN	__imp_?GetCOREInterface@@YAPEAVInterface@@XZ:PROC
EXTRN	__imp_?DeleteMe@ReferenceMaker@@QEAAXXZ:PROC
EXTRN	__imp_?ReplaceReference@ReferenceMaker@@QEAA?AW4RefResult@@HPEAVReferenceTarget@@H@Z:PROC
EXTRN	__imp_?DeleteReference@ReferenceMaker@@QEAA?AW4RefResult@@H@Z:PROC
EXTRN	__imp_?GetInterface@ReferenceTarget@@UEAAPEAVBaseInterface@@VInterface_ID@@@Z:PROC
EXTRN	__imp_?GetSubTexmapTVName@ISubMap@@QEAA?AVWStr@@H@Z:PROC
EXTRN	__imp_??1MtlBase@@UEAA@XZ:PROC
EXTRN	__imp_??4MtlBase@@QEAAAEAV0@AEBV0@@Z:PROC
EXTRN	__imp_?GetInterface@MtlBase@@UEAAPEAXK@Z:PROC
EXTRN	__imp_??0Texmap@@QEAA@XZ:PROC
EXTRN	__imp_?GetNewDefaultTextureOutput@@YAPEAVTextureOutput@@XZ:PROC
EXTRN	__imp_??0ClassDesc2@@QEAA@XZ:PROC
EXTRN	__imp_??1ClassDesc2@@UEAA@XZ:PROC
EXTRN	__imp_?MakeAutoParamBlocks@ClassDesc2@@UEAAXPEAVReferenceMaker@@@Z:PROC
EXTRN	__imp_?SetUserDlgProc@ClassDesc2@@QEAA_NPEAVParamBlockDesc2@@FPEAVParamMap2UserDlgProc@@@Z:PROC
EXTRN	__imp_?CreateParamDlgs@ClassDesc2@@QEAAPEAVIAutoMParamDlg@@PEAUHWND__@@PEAVIMtlParams@@PEAVReferenceTarget@@@Z:PROC
EXTRN	__imp_??0ParamBlockDesc2@@QEAA@FPEB_W_JPEAVClassDesc2@@GZZ:PROC
EXTRN	__imp_??1ParamBlockDesc2@@UEAA@XZ:PROC
EXTRN	__imp_?InvalidateUI@ParamBlockDesc2@@QEAAXFH@Z:PROC
EXTRN	__imp_?SetUserDlgProc@ParamBlockDesc2@@QEAAXFPEAVParamMap2UserDlgProc@@@Z:PROC
EXTRN	??_EParamMap2UserDlgProc@@UEAAPEAXI@Z:PROC	; ParamMap2UserDlgProc::`vector deleting destructor'
EXTRN	?update@CurveCtrl@@SAXPEAVICurveCtl@@PEAUHWND__@@PEAVReferenceMaker@@@Z:PROC ; CurveCtrl::update
EXTRN	?disable@CurveCtrl@@SAXPEAVICurveCtl@@@Z:PROC	; CurveCtrl::disable
EXTRN	?init@CurveCtrl@@SAXPEAVICurveCtl@@@Z:PROC	; CurveCtrl::init
EXTRN	?GetString@@YAPEA_WH@Z:PROC			; GetString
EXTRN	??_EXYZ_Desc@@UEAAPEAXI@Z:PROC			; XYZ_Desc::`vector deleting destructor'
EXTRN	??_EBerconXYZDlgProc@@UEAAPEAXI@Z:PROC		; BerconXYZDlgProc::`vector deleting destructor'
EXTRN	?update@BerconXYZ@@QEAAXPEAVIParamBlock2@@HAEAVInterval@@@Z:PROC ; BerconXYZ::update
EXTRN	?update@BerconXYZ@@QEAAXXZ:PROC			; BerconXYZ::update
EXTRN	?reset@BerconXYZ@@QEAAXPEAVIParamBlock2@@AEAVInterval@@HHHH@Z:PROC ; BerconXYZ::reset
EXTRN	?get@BerconXYZ@@QEAAHAEAVShadeContext@@AEAVPoint3@@11@Z:PROC ; BerconXYZ::get
EXTRN	?get@BerconXYZ@@QEAAHAEAVShadeContext@@AEAVPoint3@@11PEAV3@@Z:PROC ; BerconXYZ::get
EXTRN	?alterUVW@Noise@@SAXAEAVPoint3@@H@Z:PROC	; Noise::alterUVW
EXTRN	?limitedNoise@Noise@@SAMVPoint3@@AEAVNoiseParams@@@Z:PROC ; Noise::limitedNoise
EXTRN	?limitedNoise@Noise@@SAMVPoint3@@00AEAVNoiseParams@@@Z:PROC ; Noise::limitedNoise
EXTRN	??_EBerconNoise@@UEAAPEAXI@Z:PROC		; BerconNoise::`vector deleting destructor'
EXTRN	??_EBerconNoiseClassDesc@@UEAAPEAXI@Z:PROC	; BerconNoiseClassDesc::`vector deleting destructor'
EXTRN	??_EBerconCurveDlgProcNOISE@@UEAAPEAXI@Z:PROC	; BerconCurveDlgProcNOISE::`vector deleting destructor'
EXTRN	??_EBerconNoiseDlgProc@@UEAAPEAXI@Z:PROC	; BerconNoiseDlgProc::`vector deleting destructor'
EXTRN	??0Exception@Util@MaxSDK@@QEAA@AEBV012@@Z:PROC	; MaxSDK::Util::Exception::Exception
EXTRN	??0OutOfRangeException@Util@MaxSDK@@QEAA@AEBV012@@Z:PROC ; MaxSDK::Util::OutOfRangeException::OutOfRangeException
EXTRN	?AddInterface@ClassDesc@@UEAAXPEAVFPInterface@@@Z:PROC ; ClassDesc::AddInterface
EXTRN	?AddParamBlockDesc@ClassDesc2@@UEAAXPEAVParamBlockDesc2@@@Z:PROC ; ClassDesc2::AddParamBlockDesc
EXTRN	?AutoDelete@ReferenceTarget@@UEAA?AW4RefResult@@XZ:PROC ; ReferenceTarget::AutoDelete
EXTRN	?BaseClone@MtlBase@@UEAAXPEAVReferenceTarget@@0AEAVRemapDir@@@Z:PROC ; MtlBase::BaseClone
EXTRN	?BeginEditParams@ClassDesc2@@UEAAXPEAVIObjParam@@PEAVReferenceMaker@@KPEAVAnimatable@@@Z:PROC ; ClassDesc2::BeginEditParams
EXTRN	?CreatePStamp@MtlBase@@UEAAPEAVPStamp@@HH@Z:PROC ; MtlBase::CreatePStamp
EXTRN	?DeleteAllRefsToMe@ReferenceTarget@@UEAA?AW4RefResult@@XZ:PROC ; ReferenceTarget::DeleteAllRefsToMe
EXTRN	?DiscardPStamp@MtlBase@@UEAAXH@Z:PROC		; MtlBase::DiscardPStamp
EXTRN	?DoEnumDependentsImpl@ReferenceTarget@@MEAAHPEAVDependentEnumProc@@@Z:PROC ; ReferenceTarget::DoEnumDependentsImpl
EXTRN	?EndEditParams@ClassDesc2@@UEAAXPEAVIObjParam@@PEAVReferenceMaker@@KPEAVAnimatable@@@Z:PROC ; ClassDesc2::EndEditParams
EXTRN	?EnumAuxFiles@MtlBase@@UEAAXAEAVAssetEnumCallback@@K@Z:PROC ; MtlBase::EnumAuxFiles
EXTRN	?GetFullName@MtlBase@@UEAA?AVWStr@@XZ:PROC	; MtlBase::GetFullName
EXTRN	?GetInterface@BaseInterfaceServer@@UEAAPEAVBaseInterface@@VInterface_ID@@@Z:PROC ; BaseInterfaceServer::GetInterface
EXTRN	?GetInterface@ClassDesc@@UEAAPEAVFPInterface@@PEB_W@Z:PROC ; ClassDesc::GetInterface
EXTRN	?GetInterface@ClassDesc@@UEAAPEAVFPInterface@@VInterface_ID@@@Z:PROC ; ClassDesc::GetInterface
EXTRN	?GetInterfaceAt@BaseInterfaceServer@@UEBAPEAVBaseInterface@@H@Z:PROC ; BaseInterfaceServer::GetInterfaceAt
EXTRN	?GetPStamp@MtlBase@@UEAAPEAVPStamp@@H@Z:PROC	; MtlBase::GetPStamp
EXTRN	?GetParamBlockDesc@ClassDesc2@@UEAAPEAVParamBlockDesc2@@H@Z:PROC ; ClassDesc2::GetParamBlockDesc
EXTRN	?GetParamBlockDescByID@ClassDesc2@@UEAAPEAVParamBlockDesc2@@F@Z:PROC ; ClassDesc2::GetParamBlockDescByID
EXTRN	?GetParamMap@ClassDesc2@@UEAAPEAVIParamMap2@@H@Z:PROC ; ClassDesc2::GetParamMap
EXTRN	?GetProperty@MtlBase@@UEAAPEAXK@Z:PROC		; MtlBase::GetProperty
EXTRN	?GetRsrcString@ClassDesc@@UEAAPEB_W_J@Z:PROC	; ClassDesc::GetRsrcString
EXTRN	?GetTimeRange@Animatable@@UEAA?AVInterval@@K@Z:PROC ; Animatable::GetTimeRange
EXTRN	?GetVPDisplayDIB@Texmap@@UEAAPEAUtagBITMAPINFO@@HAEAVTexHandleMaker@@AEAVInterval@@HHH@Z:PROC ; Texmap::GetVPDisplayDIB
EXTRN	?InvalidateUI@ClassDesc2@@UEAAXPEAVParamBlockDesc2@@@Z:PROC ; ClassDesc2::InvalidateUI
EXTRN	?IsAnimated@Animatable@@UEAAHXZ:PROC		; Animatable::IsAnimated
EXTRN	?IsOutputMeaningful@Texmap@@UEAA_NAEAVShadeContext@@@Z:PROC ; Texmap::IsOutputMeaningful
EXTRN	?Load@MtlBase@@UEAA?AW4IOResult@@PEAVILoad@@@Z:PROC ; MtlBase::Load
EXTRN	?MakeAutoParamBlocks@ClassDesc2@@UEAAXPEAVReferenceMaker@@@Z:PROC ; ClassDesc2::MakeAutoParamBlocks
EXTRN	?MapKeys@Animatable@@UEAAXPEAVTimeMap@@K@Z:PROC	; Animatable::MapKeys
EXTRN	?MouseCycleCompleted@Animatable@@UEAAXH@Z:PROC	; Animatable::MouseCycleCompleted
EXTRN	?MouseCycleStarted@Animatable@@UEAAXH@Z:PROC	; Animatable::MouseCycleStarted
EXTRN	?NodeName@Animatable@@UEAA?AVWStr@@XZ:PROC	; Animatable::NodeName
EXTRN	?NotifyDependents@ReferenceTarget@@UEAA?AW4RefResult@@AEBVInterval@@_KIKHPEAV1@W4NotifyDependentsOption@@@Z:PROC ; ReferenceTarget::NotifyDependents
EXTRN	?NumInterfaces@BaseInterfaceServer@@UEBAHXZ:PROC ; BaseInterfaceServer::NumInterfaces
EXTRN	?NumParamBlockDescs@ClassDesc2@@UEAAHXZ:PROC	; ClassDesc2::NumParamBlockDescs
EXTRN	?NumParamMaps@ClassDesc2@@UEAAHXZ:PROC		; ClassDesc2::NumParamMaps
EXTRN	?RefAdded@Texmap@@UEAAXPEAVReferenceMaker@@@Z:PROC ; Texmap::RefAdded
EXTRN	?ReleaseInterface@Animatable@@UEAAXKPEAX@Z:PROC	; Animatable::ReleaseInterface
EXTRN	?RenderBitmap@Texmap@@UEAAXHPEAVBitmap@@MH@Z:PROC ; Texmap::RenderBitmap
EXTRN	?Requirements@MtlBase@@UEAAKH@Z:PROC		; MtlBase::Requirements
EXTRN	?RescaleWorldUnits@ReferenceMaker@@UEAAXM@Z:PROC ; ReferenceMaker::RescaleWorldUnits
EXTRN	?ResetClassParams@ClassDesc2@@UEAAXH@Z:PROC	; ClassDesc2::ResetClassParams
EXTRN	?Save@MtlBase@@UEAA?AW4IOResult@@PEAVISave@@@Z:PROC ; MtlBase::Save
EXTRN	?SaveEnum@ReferenceMaker@@UEAAXAEAVSaveEnumProc@@H@Z:PROC ; ReferenceMaker::SaveEnum
EXTRN	?SetProperty@MtlBase@@UEAAHKPEAX@Z:PROC		; MtlBase::SetProperty
EXTRN	?SpecifySaveReferences@ReferenceMaker@@UEAA_NAEAVReferenceSaveManager@@@Z:PROC ; ReferenceMaker::SpecifySaveReferences
EXTRN	?SubAnimCommitSetKeyBuffer@Animatable@@UEAAXHH@Z:PROC ; Animatable::SubAnimCommitSetKeyBuffer
EXTRN	?SubAnimRevertSetKeyBuffer@Animatable@@UEAAXH@Z:PROC ; Animatable::SubAnimRevertSetKeyBuffer
EXTRN	?SubAnimSetKeyBufferPresent@Animatable@@UEAAHH@Z:PROC ; Animatable::SubAnimSetKeyBufferPresent
EXTRN	?SvCanConcludeLink@Animatable@@UEAA_NPEAVIGraphObjectManager@@PEAVIGraphNode@@1@Z:PROC ; Animatable::SvCanConcludeLink
EXTRN	?SvCanDetach@Animatable@@UEAA_NPEAVIGraphObjectManager@@PEAVIGraphNode@@@Z:PROC ; Animatable::SvCanDetach
EXTRN	?SvCanDetachRel@Animatable@@UEAA_NPEAVIGraphObjectManager@@PEAVIGraphNode@@H1@Z:PROC ; Animatable::SvCanDetachRel
EXTRN	?SvCanInitiateLink@Animatable@@UEAA_NPEAVIGraphObjectManager@@PEAVIGraphNode@@@Z:PROC ; Animatable::SvCanInitiateLink
EXTRN	?SvCanRemoveThis@Animatable@@UEAA_NPEAVIGraphObjectManager@@PEAVIGraphNode@@@Z:PROC ; Animatable::SvCanRemoveThis
EXTRN	?SvCanSelect@MtlBase@@UEAA_NPEAVIGraphObjectManager@@PEAVIGraphNode@@@Z:PROC ; MtlBase::SvCanSelect
EXTRN	?SvCanSetName@MtlBase@@UEAA_NPEAVIGraphObjectManager@@PEAVIGraphNode@@@Z:PROC ; MtlBase::SvCanSetName
EXTRN	?SvDetach@Animatable@@UEAA_NPEAVIGraphObjectManager@@PEAVIGraphNode@@@Z:PROC ; Animatable::SvDetach
EXTRN	?SvDetachRel@Animatable@@UEAA_NPEAVIGraphObjectManager@@PEAVIGraphNode@@H1@Z:PROC ; Animatable::SvDetachRel
EXTRN	?SvEditProperties@Animatable@@UEAA_NPEAVIGraphObjectManager@@PEAVIGraphNode@@@Z:PROC ; Animatable::SvEditProperties
EXTRN	?SvGetMultiSelectCallback@MtlBase@@UEAAPEAVMultiSelectCallback@@PEAVIGraphObjectManager@@PEAVIGraphNode@@@Z:PROC ; MtlBase::SvGetMultiSelectCallback
EXTRN	?SvGetName@MtlBase@@UEAA?AVWStr@@PEAVIGraphObjectManager@@PEAVIGraphNode@@_N@Z:PROC ; MtlBase::SvGetName
EXTRN	?SvGetRefTip@Animatable@@UEAA?AVWStr@@PEAVIGraphObjectManager@@PEAVIGraphNode@@1@Z:PROC ; Animatable::SvGetRefTip
EXTRN	?SvGetRelTip@Animatable@@UEAA?AVWStr@@PEAVIGraphObjectManager@@PEAVIGraphNode@@H1@Z:PROC ; Animatable::SvGetRelTip
EXTRN	?SvGetSwatchColor@Animatable@@UEAAKPEAVIGraphObjectManager@@PEAVIGraphNode@@@Z:PROC ; Animatable::SvGetSwatchColor
EXTRN	?SvGetTip@Animatable@@UEAA?AVWStr@@PEAVIGraphObjectManager@@PEAVIGraphNode@@@Z:PROC ; Animatable::SvGetTip
EXTRN	?SvHandleDoubleClick@MtlBase@@UEAA_NPEAVIGraphObjectManager@@PEAVIGraphNode@@@Z:PROC ; MtlBase::SvHandleDoubleClick
EXTRN	?SvHandleRelDoubleClick@Animatable@@UEAA_NPEAVIGraphObjectManager@@PEAVIGraphNode@@H1@Z:PROC ; Animatable::SvHandleRelDoubleClick
EXTRN	?SvHighlightColor@MtlBase@@UEAAKPEAVIGraphObjectManager@@PEAVIGraphNode@@@Z:PROC ; MtlBase::SvHighlightColor
EXTRN	?SvIsHighlighted@Animatable@@UEAA_NPEAVIGraphObjectManager@@PEAVIGraphNode@@@Z:PROC ; Animatable::SvIsHighlighted
EXTRN	?SvIsInactive@Animatable@@UEAA_NPEAVIGraphObjectManager@@PEAVIGraphNode@@@Z:PROC ; Animatable::SvIsInactive
EXTRN	?SvIsSelected@MtlBase@@UEAA_NPEAVIGraphObjectManager@@PEAVIGraphNode@@@Z:PROC ; MtlBase::SvIsSelected
EXTRN	?SvLinkChild@Animatable@@UEAA_NPEAVIGraphObjectManager@@PEAVIGraphNode@@1@Z:PROC ; Animatable::SvLinkChild
EXTRN	?SvRemoveThis@Animatable@@UEAA_NPEAVIGraphObjectManager@@PEAVIGraphNode@@@Z:PROC ; Animatable::SvRemoveThis
EXTRN	?SvSetName@MtlBase@@UEAA_NPEAVIGraphObjectManager@@PEAVIGraphNode@@AEBVWStr@@@Z:PROC ; MtlBase::SvSetName
EXTRN	?SvTraverseAnimGraph@Texmap@@UEAA?AVSvGraphNodeReference@@PEAVIGraphObjectManager@@PEAVAnimatable@@HK@Z:PROC ; Texmap::SvTraverseAnimGraph
EXTRN	_CxxThrowException:PROC
EXTRN	__CxxFrameHandler3:PROC
EXTRN	__GSHandlerCheck:PROC
EXTRN	__security_check_cookie:PROC
EXTRN	GUID_NULL:BYTE
EXTRN	??_7type_info@@6B@:BYTE				; type_info::`vftable'
EXTRN	__imp_?defaultDim@@3PEAVParamDimension@@EA:QWORD
EXTRN	__imp_?TEXMAP_CAT_3D@@3PA_WA:BYTE
EXTRN	?hInstance@@3PEAUHINSTANCE__@@EA:QWORD		; hInstance
EXTRN	__ImageBase:BYTE
EXTRN	__security_cookie:QWORD
EXTRN	_fltused:DWORD
_BSS	SEGMENT
?kInvalidId@AssetManagement@MaxSDK@@3UAssetId@12@A DB 010H DUP (?) ; MaxSDK::AssetManagement::kInvalidId
?kTriObjNormalXTCID@@3VClass_ID@@B DQ 01H DUP (?)	; kTriObjNormalXTCID
?intvalid@@3VInterval@@A DQ 01H DUP (?)			; intvalid
?BerconNoiseDesc@@3VBerconNoiseClassDesc@@A DB 038H DUP (?) ; BerconNoiseDesc
?xyz_blk@@3VXYZ_Desc@@A DB 080H DUP (?)			; xyz_blk
?berconnoise_param_blk@@3VParamBlockDesc2@@A DB 080H DUP (?) ; berconnoise_param_blk
?BerconCurve_param_blk@@3VParamBlockDesc2@@A DB 080H DUP (?) ; BerconCurve_param_blk
?BerconMap_param_blk@@3VParamBlockDesc2@@A DB 080H DUP (?) ; BerconMap_param_blk
?black@@3VAColor@@A DB 010H DUP (?)			; black
?white@@3VAColor@@A DB 010H DUP (?)			; white
_BSS	ENDS
;	COMDAT pdata
pdata	SEGMENT
$pdata$??_H@YAXPEAX_K1P6APEAX0@Z@Z DD imagerel $LN5
	DD	imagerel $LN5+92
	DD	imagerel $unwind$??_H@YAXPEAX_K1P6APEAX0@Z@Z
pdata	ENDS
;	COMDAT pdata
pdata	SEGMENT
$pdata$??8Class_ID@@QEBA_NAEBV0@@Z DD imagerel $LN5
	DD	imagerel $LN5+73
	DD	imagerel $unwind$??8Class_ID@@QEBA_NAEBV0@@Z
pdata	ENDS
;	COMDAT pdata
pdata	SEGMENT
$pdata$??0TabOutOfRangeException@Util@MaxSDK@@QEAA@PEB_W@Z DD imagerel $LN4
	DD	imagerel $LN4+65
	DD	imagerel $unwind$??0TabOutOfRangeException@Util@MaxSDK@@QEAA@PEB_W@Z
pdata	ENDS
;	COMDAT pdata
pdata	SEGMENT
$pdata$?dtor$0@?0???0TabOutOfRangeException@Util@MaxSDK@@QEAA@PEB_W@Z@4HA DD imagerel ?dtor$0@?0???0TabOutOfRangeException@Util@MaxSDK@@QEAA@PEB_W@Z@4HA
	DD	imagerel ?dtor$0@?0???0TabOutOfRangeException@Util@MaxSDK@@QEAA@PEB_W@Z@4HA+25
	DD	imagerel $unwind$?dtor$0@?0???0TabOutOfRangeException@Util@MaxSDK@@QEAA@PEB_W@Z@4HA
pdata	ENDS
;	COMDAT pdata
pdata	SEGMENT
$pdata$?What@TabOutOfRangeException@Util@MaxSDK@@UEBAPEB_WXZ DD imagerel $LN5
	DD	imagerel $LN5+56
	DD	imagerel $unwind$?What@TabOutOfRangeException@Util@MaxSDK@@UEBAPEB_WXZ
pdata	ENDS
;	COMDAT pdata
pdata	SEGMENT
$pdata$??1TabOutOfRangeException@Util@MaxSDK@@UEAA@XZ DD imagerel $LN4
	DD	imagerel $LN4+35
	DD	imagerel $unwind$??1TabOutOfRangeException@Util@MaxSDK@@UEAA@XZ
pdata	ENDS
;	COMDAT pdata
pdata	SEGMENT
$pdata$?dtor$0@?0???1TabOutOfRangeException@Util@MaxSDK@@UEAA@XZ@4HA DD imagerel ?dtor$0@?0???1TabOutOfRangeException@Util@MaxSDK@@UEAA@XZ@4HA
	DD	imagerel ?dtor$0@?0???1TabOutOfRangeException@Util@MaxSDK@@UEAA@XZ@4HA+25
	DD	imagerel $unwind$?dtor$0@?0???1TabOutOfRangeException@Util@MaxSDK@@UEAA@XZ@4HA
pdata	ENDS
;	COMDAT pdata
pdata	SEGMENT
$pdata$??0TabOutOfRangeException@Util@MaxSDK@@QEAA@AEBV012@@Z DD imagerel $LN4
	DD	imagerel $LN4+65
	DD	imagerel $unwind$??0TabOutOfRangeException@Util@MaxSDK@@QEAA@AEBV012@@Z
pdata	ENDS
;	COMDAT pdata
pdata	SEGMENT
$pdata$?dtor$0@?0???0TabOutOfRangeException@Util@MaxSDK@@QEAA@AEBV012@@Z@4HA DD imagerel ?dtor$0@?0???0TabOutOfRangeException@Util@MaxSDK@@QEAA@AEBV012@@Z@4HA
	DD	imagerel ?dtor$0@?0???0TabOutOfRangeException@Util@MaxSDK@@QEAA@AEBV012@@Z@4HA+25
	DD	imagerel $unwind$?dtor$0@?0???0TabOutOfRangeException@Util@MaxSDK@@QEAA@AEBV012@@Z@4HA
pdata	ENDS
;	COMDAT pdata
pdata	SEGMENT
$pdata$??_GTabOutOfRangeException@Util@MaxSDK@@UEAAPEAXI@Z DD imagerel $LN7
	DD	imagerel $LN7+85
	DD	imagerel $unwind$??_GTabOutOfRangeException@Util@MaxSDK@@UEAAPEAXI@Z
pdata	ENDS
;	COMDAT pdata
pdata	SEGMENT
$pdata$??D@YA?AVPoint3@@MAEBV0@@Z DD imagerel $LN3
	DD	imagerel $LN3+109
	DD	imagerel $unwind$??D@YA?AVPoint3@@MAEBV0@@Z
pdata	ENDS
;	COMDAT pdata
pdata	SEGMENT
$pdata$??D@YA?AVPoint3@@AEBV0@M@Z DD imagerel $LN3
	DD	imagerel $LN3+109
	DD	imagerel $unwind$??D@YA?AVPoint3@@AEBV0@M@Z
pdata	ENDS
;	COMDAT pdata
pdata	SEGMENT
$pdata$??0AssetId@AssetManagement@MaxSDK@@QEAA@XZ DD imagerel $LN3
	DD	imagerel $LN3+37
	DD	imagerel $unwind$??0AssetId@AssetManagement@MaxSDK@@QEAA@XZ
pdata	ENDS
;	COMDAT pdata
pdata	SEGMENT
$pdata$??__EkInvalidId@AssetManagement@MaxSDK@@YAXXZ DD imagerel ??__EkInvalidId@AssetManagement@MaxSDK@@YAXXZ
	DD	imagerel ??__EkInvalidId@AssetManagement@MaxSDK@@YAXXZ+21
	DD	imagerel $unwind$??__EkInvalidId@AssetManagement@MaxSDK@@YAXXZ
pdata	ENDS
;	COMDAT pdata
pdata	SEGMENT
$pdata$??A?$Tab@PEAVFPInterface@@@@QEBAAEAPEAVFPInterface@@_J@Z DD imagerel $LN5
	DD	imagerel $LN5+108
	DD	imagerel $unwind$??A?$Tab@PEAVFPInterface@@@@QEBAAEAPEAVFPInterface@@_J@Z
pdata	ENDS
;	COMDAT pdata
pdata	SEGMENT
$pdata$?NumInterfaces@ClassDesc@@UEAAHXZ DD imagerel $LN3
	DD	imagerel $LN3+31
	DD	imagerel $unwind$?NumInterfaces@ClassDesc@@UEAAHXZ
pdata	ENDS
;	COMDAT pdata
pdata	SEGMENT
$pdata$?GetInterfaceAt@ClassDesc@@UEAAPEAVFPInterface@@H@Z DD imagerel $LN3
	DD	imagerel $LN3+43
	DD	imagerel $unwind$?GetInterfaceAt@ClassDesc@@UEAAPEAVFPInterface@@H@Z
pdata	ENDS
;	COMDAT pdata
pdata	SEGMENT
$pdata$?ClearInterfaces@ClassDesc@@UEAAXXZ DD imagerel $LN3
	DD	imagerel $LN3+31
	DD	imagerel $unwind$?ClearInterfaces@ClassDesc@@UEAAXXZ
pdata	ENDS
;	COMDAT pdata
pdata	SEGMENT
$pdata$?SubClassID@ClassDesc@@UEAA?AVClass_ID@@XZ DD imagerel $LN3
	DD	imagerel $LN3+34
	DD	imagerel $unwind$?SubClassID@ClassDesc@@UEAA?AVClass_ID@@XZ
pdata	ENDS
;	COMDAT pdata
pdata	SEGMENT
$pdata$?Set@BitArray@@QEAAXH@Z DD imagerel $LN6
	DD	imagerel $LN6+188
	DD	imagerel $unwind$?Set@BitArray@@QEAAXH@Z
pdata	ENDS
;	COMDAT pdata
pdata	SEGMENT
$pdata$?UseLocalBits@BitArray@@AEBA_NXZ DD imagerel $LN5
	DD	imagerel $LN5+45
	DD	imagerel $unwind$?UseLocalBits@BitArray@@AEBA_NXZ
pdata	ENDS
;	COMDAT pdata
pdata	SEGMENT
$pdata$?BitMask@BitArray@@AEBA_KH@Z DD imagerel $LN5
	DD	imagerel $LN5+68
	DD	imagerel $unwind$?BitMask@BitArray@@AEBA_KH@Z
pdata	ENDS
;	COMDAT pdata
pdata	SEGMENT
$pdata$??HAColor@@QEBA?AV0@AEBV0@@Z DD imagerel $LN3
	DD	imagerel $LN3+141
	DD	imagerel $unwind$??HAColor@@QEBA?AV0@AEBV0@@Z
pdata	ENDS
;	COMDAT pdata
pdata	SEGMENT
$pdata$??D@YA?AVAColor@@MAEBV0@@Z DD imagerel $LN3
	DD	imagerel $LN3+127
	DD	imagerel $unwind$??D@YA?AVAColor@@MAEBV0@@Z
pdata	ENDS
;	COMDAT pdata
pdata	SEGMENT
$pdata$??0Interval@@QEAA@XZ DD imagerel $LN3
	DD	imagerel $LN3+29
	DD	imagerel $unwind$??0Interval@@QEAA@XZ
pdata	ENDS
;	COMDAT pdata
pdata	SEGMENT
$pdata$??_4Interval@@QEAAAEAV0@V0@@Z DD imagerel $LN3
	DD	imagerel $LN3+56
	DD	imagerel $unwind$??_4Interval@@QEAAAEAV0@V0@@Z
pdata	ENDS
;	COMDAT pdata
pdata	SEGMENT
$pdata$?BypassTrackBar@Animatable@@UEAAHXZ DD imagerel $LN3
	DD	imagerel $LN3+33
	DD	imagerel $unwind$?BypassTrackBar@Animatable@@UEAAHXZ
pdata	ENDS
;	COMDAT pdata
pdata	SEGMENT
$pdata$?IsSubClassOf@Animatable@@UEAAHVClass_ID@@@Z DD imagerel $LN3
	DD	imagerel $LN3+56
	DD	imagerel $unwind$?IsSubClassOf@Animatable@@UEAAHVClass_ID@@@Z
pdata	ENDS
;	COMDAT pdata
pdata	SEGMENT
$pdata$?NotifyForeground@ReferenceTarget@@UEAAXH@Z DD imagerel $LN3
	DD	imagerel $LN3+115
	DD	imagerel $unwind$?NotifyForeground@ReferenceTarget@@UEAAXH@Z
pdata	ENDS
;	COMDAT pdata
pdata	SEGMENT
$pdata$?GetInterface@MtlBase@@UEAAPEAVBaseInterface@@VInterface_ID@@@Z DD imagerel $LN3
	DD	imagerel $LN3+58
	DD	imagerel $unwind$?GetInterface@MtlBase@@UEAAPEAVBaseInterface@@VInterface_ID@@@Z
pdata	ENDS
;	COMDAT pdata
pdata	SEGMENT
$pdata$?GetUVTransform@Texmap@@UEAAXAEAVMatrix3@@@Z DD imagerel $LN3
	DD	imagerel $LN3+30
	DD	imagerel $unwind$?GetUVTransform@Texmap@@UEAAXAEAVMatrix3@@@Z
pdata	ENDS
;	COMDAT pdata
pdata	SEGMENT
$pdata$??1Texmap@@UEAA@XZ DD imagerel $LN4
	DD	imagerel $LN4+35
	DD	imagerel $unwind$??1Texmap@@UEAA@XZ
pdata	ENDS
;	COMDAT pdata
pdata	SEGMENT
$pdata$?dtor$0@?0???1Texmap@@UEAA@XZ@4HA DD imagerel ?dtor$0@?0???1Texmap@@UEAA@XZ@4HA
	DD	imagerel ?dtor$0@?0???1Texmap@@UEAA@XZ@4HA+25
	DD	imagerel $unwind$?dtor$0@?0???1Texmap@@UEAA@XZ@4HA
pdata	ENDS
;	COMDAT pdata
pdata	SEGMENT
$pdata$??__EkTriObjNormalXTCID@@YAXXZ DD imagerel ??__EkTriObjNormalXTCID@@YAXXZ
	DD	imagerel ??__EkTriObjNormalXTCID@@YAXXZ+32
	DD	imagerel $unwind$??__EkTriObjNormalXTCID@@YAXXZ
pdata	ENDS
;	COMDAT pdata
pdata	SEGMENT
$pdata$?SetUserDlgProc@ClassDesc2@@UEAA_NPEAVParamBlockDesc2@@PEAVParamMap2UserDlgProc@@@Z DD imagerel $LN3
	DD	imagerel $LN3+48
	DD	imagerel $unwind$?SetUserDlgProc@ClassDesc2@@UEAA_NPEAVParamBlockDesc2@@PEAVParamMap2UserDlgProc@@@Z
pdata	ENDS
;	COMDAT pdata
pdata	SEGMENT
$pdata$?SetUserDlgProc@ParamBlockDesc2@@QEAAXPEAVParamMap2UserDlgProc@@@Z DD imagerel $LN3
	DD	imagerel $LN3+37
	DD	imagerel $unwind$?SetUserDlgProc@ParamBlockDesc2@@QEAAXPEAVParamMap2UserDlgProc@@@Z
pdata	ENDS
;	COMDAT pdata
pdata	SEGMENT
$pdata$?__autoclassinit2@ParamBlockDesc2@@QEAAX_K@Z DD imagerel $LN3
	DD	imagerel $LN3+27
	DD	imagerel $unwind$?__autoclassinit2@ParamBlockDesc2@@QEAAX_K@Z
pdata	ENDS
;	COMDAT pdata
pdata	SEGMENT
$pdata$?Update@ParamMap2UserDlgProc@@UEAAXHAEAVInterval@@PEAVIParamMap2@@@Z DD imagerel $LN3
	DD	imagerel $LN3+48
	DD	imagerel $unwind$?Update@ParamMap2UserDlgProc@@UEAAXHAEAVInterval@@PEAVIParamMap2@@@Z
pdata	ENDS
;	COMDAT pdata
pdata	SEGMENT
$pdata$??_GParamMap2UserDlgProc@@UEAAPEAXI@Z DD imagerel $LN7
	DD	imagerel $LN7+85
	DD	imagerel $unwind$??_GParamMap2UserDlgProc@@UEAAPEAXI@Z
pdata	ENDS
;	COMDAT pdata
pdata	SEGMENT
$pdata$??__Eintvalid@@YAXXZ DD imagerel ??__Eintvalid@@YAXXZ
	DD	imagerel ??__Eintvalid@@YAXXZ+33
	DD	imagerel $unwind$??__Eintvalid@@YAXXZ
pdata	ENDS
;	COMDAT pdata
pdata	SEGMENT
$pdata$??0XYZ_Desc@@QEAA@PEAVClassDesc2@@HHHHHHH@Z DD imagerel $LN4
	DD	imagerel $LN4+5732
	DD	imagerel $unwind$??0XYZ_Desc@@QEAA@PEAVClassDesc2@@HHHHHHH@Z
pdata	ENDS
;	COMDAT pdata
pdata	SEGMENT
$pdata$?dtor$0@?0???0XYZ_Desc@@QEAA@PEAVClassDesc2@@HHHHHHH@Z@4HA DD imagerel ?dtor$0@?0???0XYZ_Desc@@QEAA@PEAVClassDesc2@@HHHHHHH@Z@4HA
	DD	imagerel ?dtor$0@?0???0XYZ_Desc@@QEAA@PEAVClassDesc2@@HHHHHHH@Z@4HA+28
	DD	imagerel $unwind$?dtor$0@?0???0XYZ_Desc@@QEAA@PEAVClassDesc2@@HHHHHHH@Z@4HA
pdata	ENDS
;	COMDAT pdata
pdata	SEGMENT
$pdata$??1XYZ_Desc@@UEAA@XZ DD imagerel $LN4
	DD	imagerel $LN4+35
	DD	imagerel $unwind$??1XYZ_Desc@@UEAA@XZ
pdata	ENDS
;	COMDAT pdata
pdata	SEGMENT
$pdata$?dtor$0@?0???1XYZ_Desc@@UEAA@XZ@4HA DD imagerel ?dtor$0@?0???1XYZ_Desc@@UEAA@XZ@4HA
	DD	imagerel ?dtor$0@?0???1XYZ_Desc@@UEAA@XZ@4HA+25
	DD	imagerel $unwind$?dtor$0@?0???1XYZ_Desc@@UEAA@XZ@4HA
pdata	ENDS
;	COMDAT pdata
pdata	SEGMENT
$pdata$?__autoclassinit2@XYZ_Desc@@QEAAX_K@Z DD imagerel $LN3
	DD	imagerel $LN3+27
	DD	imagerel $unwind$?__autoclassinit2@XYZ_Desc@@QEAAX_K@Z
pdata	ENDS
;	COMDAT pdata
pdata	SEGMENT
$pdata$??_GXYZ_Desc@@UEAAPEAXI@Z DD imagerel $LN7
	DD	imagerel $LN7+85
	DD	imagerel $unwind$??_GXYZ_Desc@@UEAAPEAXI@Z
pdata	ENDS
;	COMDAT pdata
pdata	SEGMENT
$pdata$??0BerconXYZDlgProc@@QEAA@PEAVReferenceTarget@@@Z DD imagerel $LN4
	DD	imagerel $LN4+73
	DD	imagerel $unwind$??0BerconXYZDlgProc@@QEAA@PEAVReferenceTarget@@@Z
pdata	ENDS
;	COMDAT pdata
pdata	SEGMENT
$pdata$?dtor$0@?0???0BerconXYZDlgProc@@QEAA@PEAVReferenceTarget@@@Z@4HA DD imagerel ?dtor$0@?0???0BerconXYZDlgProc@@QEAA@PEAVReferenceTarget@@@Z@4HA
	DD	imagerel ?dtor$0@?0???0BerconXYZDlgProc@@QEAA@PEAVReferenceTarget@@@Z@4HA+24
	DD	imagerel $unwind$?dtor$0@?0???0BerconXYZDlgProc@@QEAA@PEAVReferenceTarget@@@Z@4HA
pdata	ENDS
;	COMDAT pdata
pdata	SEGMENT
$pdata$?DlgProc@BerconXYZDlgProc@@UEAA_JHPEAVIParamMap2@@PEAUHWND__@@I_K_J@Z DD imagerel $LN8
	DD	imagerel $LN8+1507
	DD	imagerel $unwind$?DlgProc@BerconXYZDlgProc@@UEAA_JHPEAVIParamMap2@@PEAUHWND__@@I_K_J@Z
pdata	ENDS
;	COMDAT pdata
pdata	SEGMENT
$pdata$?DeleteThis@BerconXYZDlgProc@@UEAAXXZ DD imagerel $LN5
	DD	imagerel $LN5+78
	DD	imagerel $unwind$?DeleteThis@BerconXYZDlgProc@@UEAAXXZ
pdata	ENDS
;	COMDAT pdata
pdata	SEGMENT
$pdata$??1BerconXYZDlgProc@@UEAA@XZ DD imagerel $LN4
	DD	imagerel $LN4+34
	DD	imagerel $unwind$??1BerconXYZDlgProc@@UEAA@XZ
pdata	ENDS
;	COMDAT pdata
pdata	SEGMENT
$pdata$?dtor$0@?0???1BerconXYZDlgProc@@UEAA@XZ@4HA DD imagerel ?dtor$0@?0???1BerconXYZDlgProc@@UEAA@XZ@4HA
	DD	imagerel ?dtor$0@?0???1BerconXYZDlgProc@@UEAA@XZ@4HA+24
	DD	imagerel $unwind$?dtor$0@?0???1BerconXYZDlgProc@@UEAA@XZ@4HA
pdata	ENDS
;	COMDAT pdata
pdata	SEGMENT
$pdata$?__autoclassinit2@BerconXYZDlgProc@@QEAAX_K@Z DD imagerel $LN3
	DD	imagerel $LN3+27
	DD	imagerel $unwind$?__autoclassinit2@BerconXYZDlgProc@@QEAAX_K@Z
pdata	ENDS
;	COMDAT pdata
pdata	SEGMENT
$pdata$??_GBerconXYZDlgProc@@UEAAPEAXI@Z DD imagerel $LN7
	DD	imagerel $LN7+85
	DD	imagerel $unwind$??_GBerconXYZDlgProc@@UEAAPEAXI@Z
pdata	ENDS
;	COMDAT pdata
pdata	SEGMENT
$pdata$??0BerconXYZ@@QEAA@XZ DD imagerel $LN3
	DD	imagerel $LN3+156
	DD	imagerel $unwind$??0BerconXYZ@@QEAA@XZ
pdata	ENDS
;	COMDAT pdata
pdata	SEGMENT
$pdata$?map@BerconXYZ@@QEAAXHAEAVBitArray@@0@Z DD imagerel $LN5
	DD	imagerel $LN5+66
	DD	imagerel $unwind$?map@BerconXYZ@@QEAAXHAEAVBitArray@@0@Z
pdata	ENDS
;	COMDAT pdata
pdata	SEGMENT
$pdata$?EvalParameters@BerconNoise@@QEAA?AVNoiseParams@@PEAVShadeContext@@@Z DD imagerel $LN31
	DD	imagerel $LN31+2821
	DD	imagerel $unwind$?EvalParameters@BerconNoise@@QEAA?AVNoiseParams@@PEAVShadeContext@@@Z
pdata	ENDS
;	COMDAT pdata
pdata	SEGMENT
$pdata$?applyDistortion@BerconNoise@@QEAAXAEAVShadeContext@@AEAVPoint3@@@Z DD imagerel $LN6
	DD	imagerel $LN6+382
	DD	imagerel $unwind$?applyDistortion@BerconNoise@@QEAAXAEAVShadeContext@@AEAVPoint3@@@Z
pdata	ENDS
;	COMDAT pdata
pdata	SEGMENT
$pdata$?EnableStuff@BerconNoise@@QEAAXXZ DD imagerel $LN29
	DD	imagerel $LN29+1390
	DD	imagerel $unwind$?EnableStuff@BerconNoise@@QEAAXXZ
pdata	ENDS
;	COMDAT pdata
pdata	SEGMENT
$pdata$?ResetCallback@BerconNoise@@UEAAXHPEAVICurveCtl@@@Z DD imagerel $LN4
	DD	imagerel $LN4+121
	DD	imagerel $unwind$?ResetCallback@BerconNoise@@UEAAXHPEAVICurveCtl@@@Z
pdata	ENDS
;	COMDAT pdata
pdata	SEGMENT
$pdata$?NewCurveCreatedCallback@BerconNoise@@UEAAXHPEAVICurveCtl@@@Z DD imagerel $LN3
	DD	imagerel $LN3+483
	DD	imagerel $unwind$?NewCurveCreatedCallback@BerconNoise@@UEAAXHPEAVICurveCtl@@@Z
pdata	ENDS
;	COMDAT pdata
pdata	SEGMENT
$pdata$?DiscardTexHandle@BerconNoise@@QEAAXXZ DD imagerel $LN4
	DD	imagerel $LN4+75
	DD	imagerel $unwind$?DiscardTexHandle@BerconNoise@@QEAAXXZ
pdata	ENDS
;	COMDAT pdata
pdata	SEGMENT
$pdata$?ActivateTexDisplay@BerconNoise@@UEAAXH@Z DD imagerel $LN4
	DD	imagerel $LN4+35
	DD	imagerel $unwind$?ActivateTexDisplay@BerconNoise@@UEAAXH@Z
pdata	ENDS
;	COMDAT pdata
pdata	SEGMENT
$pdata$?GetActiveTexHandle@BerconNoise@@UEAA_KHAEAVTexHandleMaker@@@Z DD imagerel $LN6
	DD	imagerel $LN6+260
	DD	imagerel $unwind$?GetActiveTexHandle@BerconNoise@@UEAA_KHAEAVTexHandleMaker@@@Z
pdata	ENDS
;	COMDAT pdata
pdata	SEGMENT
$pdata$?CreateParamDlg@BerconNoise@@UEAAPEAVParamDlg@@PEAUHWND__@@PEAVIMtlParams@@@Z DD imagerel $LN12
	DD	imagerel $LN12+484
	DD	imagerel $unwind$?CreateParamDlg@BerconNoise@@UEAAPEAVParamDlg@@PEAUHWND__@@PEAVIMtlParams@@@Z
pdata	ENDS
;	COMDAT pdata
pdata	SEGMENT
$pdata$?dtor$0@?0??CreateParamDlg@BerconNoise@@UEAAPEAVParamDlg@@PEAUHWND__@@PEAVIMtlParams@@@Z@4HA DD imagerel ?dtor$0@?0??CreateParamDlg@BerconNoise@@UEAAPEAVParamDlg@@PEAUHWND__@@PEAVIMtlParams@@@Z@4HA
	DD	imagerel ?dtor$0@?0??CreateParamDlg@BerconNoise@@UEAAPEAVParamDlg@@PEAUHWND__@@PEAVIMtlParams@@@Z@4HA+25
	DD	imagerel $unwind$?dtor$0@?0??CreateParamDlg@BerconNoise@@UEAAPEAVParamDlg@@PEAUHWND__@@PEAVIMtlParams@@@Z@4HA
pdata	ENDS
;	COMDAT pdata
pdata	SEGMENT
$pdata$?dtor$1@?0??CreateParamDlg@BerconNoise@@UEAAPEAVParamDlg@@PEAUHWND__@@PEAVIMtlParams@@@Z@4HA DD imagerel ?dtor$1@?0??CreateParamDlg@BerconNoise@@UEAAPEAVParamDlg@@PEAUHWND__@@PEAVIMtlParams@@@Z@4HA
	DD	imagerel ?dtor$1@?0??CreateParamDlg@BerconNoise@@UEAAPEAVParamDlg@@PEAUHWND__@@PEAVIMtlParams@@@Z@4HA+25
	DD	imagerel $unwind$?dtor$1@?0??CreateParamDlg@BerconNoise@@UEAAPEAVParamDlg@@PEAUHWND__@@PEAVIMtlParams@@@Z@4HA
pdata	ENDS
;	COMDAT pdata
pdata	SEGMENT
$pdata$?dtor$2@?0??CreateParamDlg@BerconNoise@@UEAAPEAVParamDlg@@PEAUHWND__@@PEAVIMtlParams@@@Z@4HA DD imagerel ?dtor$2@?0??CreateParamDlg@BerconNoise@@UEAAPEAVParamDlg@@PEAUHWND__@@PEAVIMtlParams@@@Z@4HA
	DD	imagerel ?dtor$2@?0??CreateParamDlg@BerconNoise@@UEAAPEAVParamDlg@@PEAUHWND__@@PEAVIMtlParams@@@Z@4HA+25
	DD	imagerel $unwind$?dtor$2@?0??CreateParamDlg@BerconNoise@@UEAAPEAVParamDlg@@PEAUHWND__@@PEAVIMtlParams@@@Z@4HA
pdata	ENDS
;	COMDAT pdata
pdata	SEGMENT
$pdata$?SetDlgThing@BerconNoise@@UEAAHPEAVParamDlg@@@Z DD imagerel $LN5
	DD	imagerel $LN5+76
	DD	imagerel $unwind$?SetDlgThing@BerconNoise@@UEAAHPEAVParamDlg@@@Z
pdata	ENDS
;	COMDAT pdata
pdata	SEGMENT
$pdata$?Update@BerconNoise@@UEAAXHAEAVInterval@@@Z DD imagerel $LN18
	DD	imagerel $LN18+4222
	DD	imagerel $unwind$?Update@BerconNoise@@UEAAXHAEAVInterval@@@Z
pdata	ENDS
;	COMDAT pdata
pdata	SEGMENT
$pdata$?Reset@BerconNoise@@UEAAXXZ DD imagerel $LN12
	DD	imagerel $LN12+2194
	DD	imagerel $unwind$?Reset@BerconNoise@@UEAAXXZ
pdata	ENDS
;	COMDAT pdata
pdata	SEGMENT
$pdata$?Validity@BerconNoise@@UEAA?AVInterval@@H@Z DD imagerel $LN3
	DD	imagerel $LN3+115
	DD	imagerel $unwind$?Validity@BerconNoise@@UEAA?AVInterval@@H@Z
pdata	ENDS
;	COMDAT pdata
pdata	SEGMENT
$pdata$?LocalRequirements@BerconNoise@@UEAAKH@Z DD imagerel $LN3
	DD	imagerel $LN3+37
	DD	imagerel $unwind$?LocalRequirements@BerconNoise@@UEAAKH@Z
pdata	ENDS
;	COMDAT pdata
pdata	SEGMENT
$pdata$?MappingsRequired@BerconNoise@@UEAAXHAEAVBitArray@@0@Z DD imagerel $LN3
	DD	imagerel $LN3+61
	DD	imagerel $unwind$?MappingsRequired@BerconNoise@@UEAAXHAEAVBitArray@@0@Z
pdata	ENDS
;	COMDAT pdata
pdata	SEGMENT
$pdata$?SetSubTexmap@BerconNoise@@UEAAXHPEAVTexmap@@@Z DD imagerel $LN11
	DD	imagerel $LN11+325
	DD	imagerel $unwind$?SetSubTexmap@BerconNoise@@UEAAXHPEAVTexmap@@@Z
pdata	ENDS
;	COMDAT pdata
pdata	SEGMENT
$pdata$?GetSubTexmapSlotName@BerconNoise@@UEAA?AVWStr@@H@Z DD imagerel $LN27
	DD	imagerel $LN27+1012
	DD	imagerel $unwind$?GetSubTexmapSlotName@BerconNoise@@UEAA?AVWStr@@H@Z
pdata	ENDS
;	COMDAT pdata
pdata	SEGMENT
$pdata$?dtor$0@?0??GetSubTexmapSlotName@BerconNoise@@UEAA?AVWStr@@H@Z@4HA DD imagerel ?dtor$0@?0??GetSubTexmapSlotName@BerconNoise@@UEAA?AVWStr@@H@Z@4HA
	DD	imagerel ?dtor$0@?0??GetSubTexmapSlotName@BerconNoise@@UEAA?AVWStr@@H@Z@4HA+39
	DD	imagerel $unwind$?dtor$0@?0??GetSubTexmapSlotName@BerconNoise@@UEAA?AVWStr@@H@Z@4HA
pdata	ENDS
;	COMDAT pdata
pdata	SEGMENT
$pdata$?EvalColor@BerconNoise@@UEAA?AVAColor@@AEAVShadeContext@@@Z DD imagerel $LN17
	DD	imagerel $LN17+1944
	DD	imagerel $unwind$?EvalColor@BerconNoise@@UEAA?AVAColor@@AEAVShadeContext@@@Z
pdata	ENDS
;	COMDAT pdata
pdata	SEGMENT
$pdata$?EvalMono@BerconNoise@@UEAAMAEAVShadeContext@@@Z DD imagerel $LN3
	DD	imagerel $LN3+56
	DD	imagerel $unwind$?EvalMono@BerconNoise@@UEAAMAEAVShadeContext@@@Z
pdata	ENDS
;	COMDAT pdata
pdata	SEGMENT
$pdata$?EvalNormalPerturb@BerconNoise@@UEAA?AVPoint3@@AEAVShadeContext@@@Z DD imagerel $LN17
	DD	imagerel $LN17+3243
	DD	imagerel $unwind$?EvalNormalPerturb@BerconNoise@@UEAA?AVPoint3@@AEAVShadeContext@@@Z
pdata	ENDS
;	COMDAT pdata
pdata	SEGMENT
$pdata$?ClassID@BerconNoise@@UEAA?AVClass_ID@@XZ DD imagerel $LN3
	DD	imagerel $LN3+45
	DD	imagerel $unwind$?ClassID@BerconNoise@@UEAA?AVClass_ID@@XZ
pdata	ENDS
;	COMDAT pdata
pdata	SEGMENT
$pdata$?GetClassName@BerconNoise@@UEAAXAEAVWStr@@@Z DD imagerel $LN3
	DD	imagerel $LN3+43
	DD	imagerel $unwind$?GetClassName@BerconNoise@@UEAAXAEAVWStr@@@Z
pdata	ENDS
;	COMDAT pdata
pdata	SEGMENT
$pdata$?Clone@BerconNoise@@UEAAPEAVReferenceTarget@@AEAVRemapDir@@@Z DD imagerel $LN10
	DD	imagerel $LN10+689
	DD	imagerel $unwind$?Clone@BerconNoise@@UEAAPEAVReferenceTarget@@AEAVRemapDir@@@Z
pdata	ENDS
;	COMDAT pdata
pdata	SEGMENT
$pdata$?dtor$0@?0??Clone@BerconNoise@@UEAAPEAVReferenceTarget@@AEAVRemapDir@@@Z@4HA DD imagerel ?dtor$0@?0??Clone@BerconNoise@@UEAAPEAVReferenceTarget@@AEAVRemapDir@@@Z@4HA
	DD	imagerel ?dtor$0@?0??Clone@BerconNoise@@UEAAPEAVReferenceTarget@@AEAVRemapDir@@@Z@4HA+25
	DD	imagerel $unwind$?dtor$0@?0??Clone@BerconNoise@@UEAAPEAVReferenceTarget@@AEAVRemapDir@@@Z@4HA
pdata	ENDS
;	COMDAT pdata
pdata	SEGMENT
$pdata$?NotifyRefChanged@BerconNoise@@UEAA?AW4RefResult@@AEBVInterval@@PEAVReferenceTarget@@AEA_KIH@Z DD imagerel $LN14
	DD	imagerel $LN14+383
	DD	imagerel $unwind$?NotifyRefChanged@BerconNoise@@UEAA?AW4RefResult@@AEBVInterval@@PEAVReferenceTarget@@AEA_KIH@Z
pdata	ENDS
;	COMDAT pdata
pdata	SEGMENT
$pdata$?SubAnim@BerconNoise@@UEAAPEAVAnimatable@@H@Z DD imagerel $LN14
	DD	imagerel $LN14+220
	DD	imagerel $unwind$?SubAnim@BerconNoise@@UEAAPEAVAnimatable@@H@Z
pdata	ENDS
;	COMDAT pdata
pdata	SEGMENT
$pdata$?SubAnimName@BerconNoise@@UEAA?AVWStr@@H@Z DD imagerel $LN16
	DD	imagerel $LN16+464
	DD	imagerel $unwind$?SubAnimName@BerconNoise@@UEAA?AVWStr@@H@Z
pdata	ENDS
;	COMDAT pdata
pdata	SEGMENT
$pdata$?dtor$0@?0??SubAnimName@BerconNoise@@UEAA?AVWStr@@H@Z@4HA DD imagerel ?dtor$0@?0??SubAnimName@BerconNoise@@UEAA?AVWStr@@H@Z@4HA
	DD	imagerel ?dtor$0@?0??SubAnimName@BerconNoise@@UEAA?AVWStr@@H@Z@4HA+39
	DD	imagerel $unwind$?dtor$0@?0??SubAnimName@BerconNoise@@UEAA?AVWStr@@H@Z@4HA
pdata	ENDS
;	COMDAT pdata
pdata	SEGMENT
$pdata$?GetReference@BerconNoise@@UEAAPEAVReferenceTarget@@H@Z DD imagerel $LN14
	DD	imagerel $LN14+220
	DD	imagerel $unwind$?GetReference@BerconNoise@@UEAAPEAVReferenceTarget@@H@Z
pdata	ENDS
;	COMDAT pdata
pdata	SEGMENT
$pdata$?SetReference@BerconNoise@@UEAAXHPEAVReferenceTarget@@@Z DD imagerel $LN14
	DD	imagerel $LN14+264
	DD	imagerel $unwind$?SetReference@BerconNoise@@UEAAXHPEAVReferenceTarget@@@Z
pdata	ENDS
;	COMDAT pdata
pdata	SEGMENT
$pdata$?GetParamBlock@BerconNoise@@UEAAPEAVIParamBlock2@@H@Z DD imagerel $LN9
	DD	imagerel $LN9+119
	DD	imagerel $unwind$?GetParamBlock@BerconNoise@@UEAAPEAVIParamBlock2@@H@Z
pdata	ENDS
;	COMDAT pdata
pdata	SEGMENT
$pdata$?GetParamBlockByID@BerconNoise@@UEAAPEAVIParamBlock2@@F@Z DD imagerel $LN7
	DD	imagerel $LN7+252
	DD	imagerel $unwind$?GetParamBlockByID@BerconNoise@@UEAAPEAVIParamBlock2@@F@Z
pdata	ENDS
;	COMDAT pdata
pdata	SEGMENT
$pdata$?DeleteThis@BerconNoise@@UEAAXXZ DD imagerel $LN5
	DD	imagerel $LN5+78
	DD	imagerel $unwind$?DeleteThis@BerconNoise@@UEAAXXZ
pdata	ENDS
;	COMDAT pdata
pdata	SEGMENT
$pdata$??0BerconNoise@@QEAA@XZ DD imagerel $LN7
	DD	imagerel $LN7+395
	DD	imagerel $unwind$??0BerconNoise@@QEAA@XZ
pdata	ENDS
;	COMDAT pdata
pdata	SEGMENT
$pdata$?dtor$0@?0???0BerconNoise@@QEAA@XZ@4HA DD imagerel ?dtor$0@?0???0BerconNoise@@QEAA@XZ@4HA
	DD	imagerel ?dtor$0@?0???0BerconNoise@@QEAA@XZ@4HA+24
	DD	imagerel $unwind$?dtor$0@?0???0BerconNoise@@QEAA@XZ@4HA
pdata	ENDS
;	COMDAT pdata
pdata	SEGMENT
$pdata$??1BerconNoise@@UEAA@XZ DD imagerel $LN4
	DD	imagerel $LN4+95
	DD	imagerel $unwind$??1BerconNoise@@UEAA@XZ
pdata	ENDS
;	COMDAT pdata
pdata	SEGMENT
$pdata$?dtor$0@?0???1BerconNoise@@UEAA@XZ@4HA DD imagerel ?dtor$0@?0???1BerconNoise@@UEAA@XZ@4HA
	DD	imagerel ?dtor$0@?0???1BerconNoise@@UEAA@XZ@4HA+24
	DD	imagerel $unwind$?dtor$0@?0???1BerconNoise@@UEAA@XZ@4HA
pdata	ENDS
;	COMDAT pdata
pdata	SEGMENT
$pdata$?GetInterface@BerconNoise@@UEAAPEAXK@Z DD imagerel $LN7
	DD	imagerel $LN7+87
	DD	imagerel $unwind$?GetInterface@BerconNoise@@UEAAPEAXK@Z
pdata	ENDS
;	COMDAT pdata
pdata	SEGMENT
$pdata$?__autoclassinit2@BerconNoise@@QEAAX_K@Z DD imagerel $LN3
	DD	imagerel $LN3+27
	DD	imagerel $unwind$?__autoclassinit2@BerconNoise@@QEAAX_K@Z
pdata	ENDS
;	COMDAT pdata
pdata	SEGMENT
$pdata$??_GBerconNoise@@UEAAPEAXI@Z DD imagerel $LN7
	DD	imagerel $LN7+85
	DD	imagerel $unwind$??_GBerconNoise@@UEAAPEAXI@Z
pdata	ENDS
;	COMDAT pdata
pdata	SEGMENT
$pdata$??0BerconNoiseClassDesc@@QEAA@XZ DD imagerel $LN4
	DD	imagerel $LN4+55
	DD	imagerel $unwind$??0BerconNoiseClassDesc@@QEAA@XZ
pdata	ENDS
;	COMDAT pdata
pdata	SEGMENT
$pdata$?dtor$0@?0???0BerconNoiseClassDesc@@QEAA@XZ@4HA DD imagerel ?dtor$0@?0???0BerconNoiseClassDesc@@QEAA@XZ@4HA
	DD	imagerel ?dtor$0@?0???0BerconNoiseClassDesc@@QEAA@XZ@4HA+25
	DD	imagerel $unwind$?dtor$0@?0???0BerconNoiseClassDesc@@QEAA@XZ@4HA
pdata	ENDS
;	COMDAT pdata
pdata	SEGMENT
$pdata$??1BerconNoiseClassDesc@@UEAA@XZ DD imagerel $LN4
	DD	imagerel $LN4+50
	DD	imagerel $unwind$??1BerconNoiseClassDesc@@UEAA@XZ
pdata	ENDS
;	COMDAT pdata
pdata	SEGMENT
$pdata$?dtor$0@?0???1BerconNoiseClassDesc@@UEAA@XZ@4HA DD imagerel ?dtor$0@?0???1BerconNoiseClassDesc@@UEAA@XZ@4HA
	DD	imagerel ?dtor$0@?0???1BerconNoiseClassDesc@@UEAA@XZ@4HA+25
	DD	imagerel $unwind$?dtor$0@?0???1BerconNoiseClassDesc@@UEAA@XZ@4HA
pdata	ENDS
;	COMDAT pdata
pdata	SEGMENT
$pdata$?Create@BerconNoiseClassDesc@@UEAAPEAXH@Z DD imagerel $LN6
	DD	imagerel $LN6+107
	DD	imagerel $unwind$?Create@BerconNoiseClassDesc@@UEAAPEAXH@Z
pdata	ENDS
;	COMDAT pdata
pdata	SEGMENT
$pdata$?dtor$0@?0??Create@BerconNoiseClassDesc@@UEAAPEAXH@Z@4HA DD imagerel ?dtor$0@?0??Create@BerconNoiseClassDesc@@UEAAPEAXH@Z@4HA
	DD	imagerel ?dtor$0@?0??Create@BerconNoiseClassDesc@@UEAAPEAXH@Z@4HA+25
	DD	imagerel $unwind$?dtor$0@?0??Create@BerconNoiseClassDesc@@UEAAPEAXH@Z@4HA
pdata	ENDS
;	COMDAT pdata
pdata	SEGMENT
$pdata$?ClassName@BerconNoiseClassDesc@@UEAAPEB_WXZ DD imagerel $LN3
	DD	imagerel $LN3+24
	DD	imagerel $unwind$?ClassName@BerconNoiseClassDesc@@UEAAPEB_WXZ
pdata	ENDS
;	COMDAT pdata
pdata	SEGMENT
$pdata$?ClassID@BerconNoiseClassDesc@@UEAA?AVClass_ID@@XZ DD imagerel $LN3
	DD	imagerel $LN3+45
	DD	imagerel $unwind$?ClassID@BerconNoiseClassDesc@@UEAA?AVClass_ID@@XZ
pdata	ENDS
;	COMDAT pdata
pdata	SEGMENT
$pdata$?__autoclassinit2@BerconNoiseClassDesc@@QEAAX_K@Z DD imagerel $LN3
	DD	imagerel $LN3+27
	DD	imagerel $unwind$?__autoclassinit2@BerconNoiseClassDesc@@QEAAX_K@Z
pdata	ENDS
;	COMDAT pdata
pdata	SEGMENT
$pdata$??_GBerconNoiseClassDesc@@UEAAPEAXI@Z DD imagerel $LN7
	DD	imagerel $LN7+85
	DD	imagerel $unwind$??_GBerconNoiseClassDesc@@UEAAPEAXI@Z
pdata	ENDS
;	COMDAT pdata
pdata	SEGMENT
$pdata$??__EBerconNoiseDesc@@YAXXZ DD imagerel ??__EBerconNoiseDesc@@YAXXZ
	DD	imagerel ??__EBerconNoiseDesc@@YAXXZ+50
	DD	imagerel $unwind$??__EBerconNoiseDesc@@YAXXZ
pdata	ENDS
;	COMDAT pdata
pdata	SEGMENT
$pdata$??__FBerconNoiseDesc@@YAXXZ DD imagerel ??__FBerconNoiseDesc@@YAXXZ
	DD	imagerel ??__FBerconNoiseDesc@@YAXXZ+21
	DD	imagerel $unwind$??__FBerconNoiseDesc@@YAXXZ
pdata	ENDS
;	COMDAT pdata
pdata	SEGMENT
$pdata$??__Exyz_blk@@YAXXZ DD imagerel ??__Exyz_blk@@YAXXZ
	DD	imagerel ??__Exyz_blk@@YAXXZ+103
	DD	imagerel $unwind$??__Exyz_blk@@YAXXZ
pdata	ENDS
;	COMDAT pdata
pdata	SEGMENT
$pdata$??__Fxyz_blk@@YAXXZ DD imagerel ??__Fxyz_blk@@YAXXZ
	DD	imagerel ??__Fxyz_blk@@YAXXZ+21
	DD	imagerel $unwind$??__Fxyz_blk@@YAXXZ
pdata	ENDS
;	COMDAT pdata
pdata	SEGMENT
$pdata$??__Eberconnoise_param_blk@@YAXXZ DD imagerel ??__Eberconnoise_param_blk@@YAXXZ
	DD	imagerel ??__Eberconnoise_param_blk@@YAXXZ+5286
	DD	imagerel $unwind$??__Eberconnoise_param_blk@@YAXXZ
pdata	ENDS
;	COMDAT pdata
pdata	SEGMENT
$pdata$??__Fberconnoise_param_blk@@YAXXZ DD imagerel ??__Fberconnoise_param_blk@@YAXXZ
	DD	imagerel ??__Fberconnoise_param_blk@@YAXXZ+22
	DD	imagerel $unwind$??__Fberconnoise_param_blk@@YAXXZ
pdata	ENDS
;	COMDAT pdata
pdata	SEGMENT
$pdata$??__EBerconCurve_param_blk@@YAXXZ DD imagerel ??__EBerconCurve_param_blk@@YAXXZ
	DD	imagerel ??__EBerconCurve_param_blk@@YAXXZ+360
	DD	imagerel $unwind$??__EBerconCurve_param_blk@@YAXXZ
pdata	ENDS
;	COMDAT pdata
pdata	SEGMENT
$pdata$??__FBerconCurve_param_blk@@YAXXZ DD imagerel ??__FBerconCurve_param_blk@@YAXXZ
	DD	imagerel ??__FBerconCurve_param_blk@@YAXXZ+22
	DD	imagerel $unwind$??__FBerconCurve_param_blk@@YAXXZ
pdata	ENDS
;	COMDAT pdata
pdata	SEGMENT
$pdata$??__EBerconMap_param_blk@@YAXXZ DD imagerel ??__EBerconMap_param_blk@@YAXXZ
	DD	imagerel ??__EBerconMap_param_blk@@YAXXZ+3963
	DD	imagerel $unwind$??__EBerconMap_param_blk@@YAXXZ
pdata	ENDS
;	COMDAT pdata
pdata	SEGMENT
$pdata$??__FBerconMap_param_blk@@YAXXZ DD imagerel ??__FBerconMap_param_blk@@YAXXZ
	DD	imagerel ??__FBerconMap_param_blk@@YAXXZ+22
	DD	imagerel $unwind$??__FBerconMap_param_blk@@YAXXZ
pdata	ENDS
;	COMDAT pdata
pdata	SEGMENT
$pdata$??1BerconCurveDlgProcNOISE@@UEAA@XZ DD imagerel $LN4
	DD	imagerel $LN4+49
	DD	imagerel $unwind$??1BerconCurveDlgProcNOISE@@UEAA@XZ
pdata	ENDS
;	COMDAT pdata
pdata	SEGMENT
$pdata$?dtor$0@?0???1BerconCurveDlgProcNOISE@@UEAA@XZ@4HA DD imagerel ?dtor$0@?0???1BerconCurveDlgProcNOISE@@UEAA@XZ@4HA
	DD	imagerel ?dtor$0@?0???1BerconCurveDlgProcNOISE@@UEAA@XZ@4HA+24
	DD	imagerel $unwind$?dtor$0@?0???1BerconCurveDlgProcNOISE@@UEAA@XZ@4HA
pdata	ENDS
;	COMDAT pdata
pdata	SEGMENT
$pdata$??0BerconCurveDlgProcNOISE@@QEAA@PEAVBerconNoise@@@Z DD imagerel $LN4
	DD	imagerel $LN4+73
	DD	imagerel $unwind$??0BerconCurveDlgProcNOISE@@QEAA@PEAVBerconNoise@@@Z
pdata	ENDS
;	COMDAT pdata
pdata	SEGMENT
$pdata$?dtor$0@?0???0BerconCurveDlgProcNOISE@@QEAA@PEAVBerconNoise@@@Z@4HA DD imagerel ?dtor$0@?0???0BerconCurveDlgProcNOISE@@QEAA@PEAVBerconNoise@@@Z@4HA
	DD	imagerel ?dtor$0@?0???0BerconCurveDlgProcNOISE@@QEAA@PEAVBerconNoise@@@Z@4HA+24
	DD	imagerel $unwind$?dtor$0@?0???0BerconCurveDlgProcNOISE@@QEAA@PEAVBerconNoise@@@Z@4HA
pdata	ENDS
;	COMDAT pdata
pdata	SEGMENT
$pdata$?DlgProc@BerconCurveDlgProcNOISE@@UEAA_JHPEAVIParamMap2@@PEAUHWND__@@I_K_J@Z DD imagerel $LN8
	DD	imagerel $LN8+257
	DD	imagerel $unwind$?DlgProc@BerconCurveDlgProcNOISE@@UEAA_JHPEAVIParamMap2@@PEAUHWND__@@I_K_J@Z
pdata	ENDS
;	COMDAT pdata
pdata	SEGMENT
$pdata$?DeleteThis@BerconCurveDlgProcNOISE@@UEAAXXZ DD imagerel $LN5
	DD	imagerel $LN5+78
	DD	imagerel $unwind$?DeleteThis@BerconCurveDlgProcNOISE@@UEAAXXZ
pdata	ENDS
;	COMDAT pdata
pdata	SEGMENT
$pdata$?SetThing@BerconCurveDlgProcNOISE@@UEAAXPEAVReferenceTarget@@@Z DD imagerel $LN3
	DD	imagerel $LN3+54
	DD	imagerel $unwind$?SetThing@BerconCurveDlgProcNOISE@@UEAAXPEAVReferenceTarget@@@Z
pdata	ENDS
;	COMDAT pdata
pdata	SEGMENT
$pdata$?__autoclassinit2@BerconCurveDlgProcNOISE@@QEAAX_K@Z DD imagerel $LN3
	DD	imagerel $LN3+27
	DD	imagerel $unwind$?__autoclassinit2@BerconCurveDlgProcNOISE@@QEAAX_K@Z
pdata	ENDS
;	COMDAT pdata
pdata	SEGMENT
$pdata$??_GBerconCurveDlgProcNOISE@@UEAAPEAXI@Z DD imagerel $LN7
	DD	imagerel $LN7+85
	DD	imagerel $unwind$??_GBerconCurveDlgProcNOISE@@UEAAPEAXI@Z
pdata	ENDS
;	COMDAT pdata
pdata	SEGMENT
$pdata$??1BerconNoiseDlgProc@@UEAA@XZ DD imagerel $LN4
	DD	imagerel $LN4+49
	DD	imagerel $unwind$??1BerconNoiseDlgProc@@UEAA@XZ
pdata	ENDS
;	COMDAT pdata
pdata	SEGMENT
$pdata$?dtor$0@?0???1BerconNoiseDlgProc@@UEAA@XZ@4HA DD imagerel ?dtor$0@?0???1BerconNoiseDlgProc@@UEAA@XZ@4HA
	DD	imagerel ?dtor$0@?0???1BerconNoiseDlgProc@@UEAA@XZ@4HA+24
	DD	imagerel $unwind$?dtor$0@?0???1BerconNoiseDlgProc@@UEAA@XZ@4HA
pdata	ENDS
;	COMDAT pdata
pdata	SEGMENT
$pdata$??0BerconNoiseDlgProc@@QEAA@PEAVBerconNoise@@@Z DD imagerel $LN4
	DD	imagerel $LN4+73
	DD	imagerel $unwind$??0BerconNoiseDlgProc@@QEAA@PEAVBerconNoise@@@Z
pdata	ENDS
;	COMDAT pdata
pdata	SEGMENT
$pdata$?dtor$0@?0???0BerconNoiseDlgProc@@QEAA@PEAVBerconNoise@@@Z@4HA DD imagerel ?dtor$0@?0???0BerconNoiseDlgProc@@QEAA@PEAVBerconNoise@@@Z@4HA
	DD	imagerel ?dtor$0@?0???0BerconNoiseDlgProc@@QEAA@PEAVBerconNoise@@@Z@4HA+24
	DD	imagerel $unwind$?dtor$0@?0???0BerconNoiseDlgProc@@QEAA@PEAVBerconNoise@@@Z@4HA
pdata	ENDS
;	COMDAT pdata
pdata	SEGMENT
$pdata$?DlgProc@BerconNoiseDlgProc@@UEAA_JHPEAVIParamMap2@@PEAUHWND__@@I_K_J@Z DD imagerel $LN7
	DD	imagerel $LN7+2188
	DD	imagerel $unwind$?DlgProc@BerconNoiseDlgProc@@UEAA_JHPEAVIParamMap2@@PEAUHWND__@@I_K_J@Z
pdata	ENDS
;	COMDAT pdata
pdata	SEGMENT
$pdata$?DeleteThis@BerconNoiseDlgProc@@UEAAXXZ DD imagerel $LN5
	DD	imagerel $LN5+78
	DD	imagerel $unwind$?DeleteThis@BerconNoiseDlgProc@@UEAAXXZ
pdata	ENDS
;	COMDAT pdata
pdata	SEGMENT
$pdata$?SetThing@BerconNoiseDlgProc@@UEAAXPEAVReferenceTarget@@@Z DD imagerel $LN3
	DD	imagerel $LN3+47
	DD	imagerel $unwind$?SetThing@BerconNoiseDlgProc@@UEAAXPEAVReferenceTarget@@@Z
pdata	ENDS
;	COMDAT pdata
pdata	SEGMENT
$pdata$?__autoclassinit2@BerconNoiseDlgProc@@QEAAX_K@Z DD imagerel $LN3
	DD	imagerel $LN3+27
	DD	imagerel $unwind$?__autoclassinit2@BerconNoiseDlgProc@@QEAAX_K@Z
pdata	ENDS
;	COMDAT pdata
pdata	SEGMENT
$pdata$??_GBerconNoiseDlgProc@@UEAAPEAXI@Z DD imagerel $LN7
	DD	imagerel $LN7+85
	DD	imagerel $unwind$??_GBerconNoiseDlgProc@@UEAAPEAXI@Z
pdata	ENDS
;	COMDAT pdata
pdata	SEGMENT
$pdata$??__Eblack@@YAXXZ DD imagerel ??__Eblack@@YAXXZ
	DD	imagerel ??__Eblack@@YAXXZ+39
	DD	imagerel $unwind$??__Eblack@@YAXXZ
pdata	ENDS
;	COMDAT pdata
pdata	SEGMENT
$pdata$??__Ewhite@@YAXXZ DD imagerel ??__Ewhite@@YAXXZ
	DD	imagerel ??__Ewhite@@YAXXZ+59
	DD	imagerel $unwind$??__Ewhite@@YAXXZ
pdata	ENDS
CRT$XCU	SEGMENT
?kInvalidId$initializer$@AssetManagement@MaxSDK@@3P6AXXZEA DQ FLAT:??__EkInvalidId@AssetManagement@MaxSDK@@YAXXZ ; MaxSDK::AssetManagement::kInvalidId$initializer$
CRT$XCU	ENDS
;	COMDAT __real@c12e848000000000
CONST	SEGMENT
__real@c12e848000000000 DQ 0c12e848000000000r	; -1e+06
CONST	ENDS
;	COMDAT __real@c08f400000000000
CONST	SEGMENT
__real@c08f400000000000 DQ 0c08f400000000000r	; -1000
CONST	ENDS
;	COMDAT __real@bff0000000000000
CONST	SEGMENT
__real@bff0000000000000 DQ 0bff0000000000000r	; -1
CONST	ENDS
;	COMDAT __real@41c80000
CONST	SEGMENT
__real@41c80000 DD 041c80000r			; 25
CONST	ENDS
;	COMDAT __real@412e848000000000
CONST	SEGMENT
__real@412e848000000000 DQ 0412e848000000000r	; 1e+06
CONST	ENDS
;	COMDAT __real@40a00000
CONST	SEGMENT
__real@40a00000 DD 040a00000r			; 5
CONST	ENDS
;	COMDAT __real@408f400000000000
CONST	SEGMENT
__real@408f400000000000 DQ 0408f400000000000r	; 1000
CONST	ENDS
;	COMDAT __real@4059000000000000
CONST	SEGMENT
__real@4059000000000000 DQ 04059000000000000r	; 100
CONST	ENDS
;	COMDAT __real@40400000
CONST	SEGMENT
__real@40400000 DD 040400000r			; 3
CONST	ENDS
;	COMDAT __real@4039000000000000
CONST	SEGMENT
__real@4039000000000000 DQ 04039000000000000r	; 25
CONST	ENDS
;	COMDAT __real@4034000000000000
CONST	SEGMENT
__real@4034000000000000 DQ 04034000000000000r	; 20
CONST	ENDS
;	COMDAT __real@4008000000000000
CONST	SEGMENT
__real@4008000000000000 DQ 04008000000000000r	; 3
CONST	ENDS
;	COMDAT __real@40000000
CONST	SEGMENT
__real@40000000 DD 040000000r			; 2
CONST	ENDS
;	COMDAT __real@3ff0000000000000
CONST	SEGMENT
__real@3ff0000000000000 DQ 03ff0000000000000r	; 1
CONST	ENDS
;	COMDAT __real@3fb99999a0000000
CONST	SEGMENT
__real@3fb99999a0000000 DQ 03fb99999a0000000r	; 0.1
CONST	ENDS
;	COMDAT __real@3f800000
CONST	SEGMENT
__real@3f800000 DD 03f800000r			; 1
CONST	ENDS
;	COMDAT __real@3f1a36e2e0000000
CONST	SEGMENT
__real@3f1a36e2e0000000 DQ 03f1a36e2e0000000r	; 0.0001
CONST	ENDS
;	COMDAT __real@3f000000
CONST	SEGMENT
__real@3f000000 DD 03f000000r			; 0.5
CONST	ENDS
;	COMDAT __real@3dcccccd
CONST	SEGMENT
__real@3dcccccd DD 03dcccccdr			; 0.1
CONST	ENDS
;	COMDAT __real@3a83126f
CONST	SEGMENT
__real@3a83126f DD 03a83126fr			; 0.001
CONST	ENDS
;	COMDAT ??_R1A@?0A@EA@BerconNoiseDlgProc@@8
rdata$r	SEGMENT
??_R1A@?0A@EA@BerconNoiseDlgProc@@8 DD imagerel ??_R0?AVBerconNoiseDlgProc@@@8 ; BerconNoiseDlgProc::`RTTI Base Class Descriptor at (0,-1,0,64)'
	DD	02H
	DD	00H
	DD	0ffffffffH
	DD	00H
	DD	040H
	DD	imagerel ??_R3BerconNoiseDlgProc@@8
rdata$r	ENDS
;	COMDAT ??_R2BerconNoiseDlgProc@@8
rdata$r	SEGMENT
??_R2BerconNoiseDlgProc@@8 DD imagerel ??_R1A@?0A@EA@BerconNoiseDlgProc@@8 ; BerconNoiseDlgProc::`RTTI Base Class Array'
	DD	imagerel ??_R1A@?0A@EA@ParamMap2UserDlgProc@@8
	DD	imagerel ??_R17?0A@EA@MaxHeapOperators@@8
	ORG $+3
rdata$r	ENDS
;	COMDAT ??_R3BerconNoiseDlgProc@@8
rdata$r	SEGMENT
??_R3BerconNoiseDlgProc@@8 DD 00H			; BerconNoiseDlgProc::`RTTI Class Hierarchy Descriptor'
	DD	00H
	DD	03H
	DD	imagerel ??_R2BerconNoiseDlgProc@@8
rdata$r	ENDS
;	COMDAT ??_R0?AVBerconNoiseDlgProc@@@8
data$r	SEGMENT
??_R0?AVBerconNoiseDlgProc@@@8 DQ FLAT:??_7type_info@@6B@ ; BerconNoiseDlgProc `RTTI Type Descriptor'
	DQ	0000000000000000H
	DB	'.?AVBerconNoiseDlgProc@@', 00H
data$r	ENDS
;	COMDAT ??_R4BerconNoiseDlgProc@@6B@
rdata$r	SEGMENT
??_R4BerconNoiseDlgProc@@6B@ DD 01H			; BerconNoiseDlgProc::`RTTI Complete Object Locator'
	DD	00H
	DD	00H
	DD	imagerel ??_R0?AVBerconNoiseDlgProc@@@8
	DD	imagerel ??_R3BerconNoiseDlgProc@@8
	DD	imagerel ??_R4BerconNoiseDlgProc@@6B@
rdata$r	ENDS
;	COMDAT ??_R1A@?0A@EA@BerconCurveDlgProcNOISE@@8
rdata$r	SEGMENT
??_R1A@?0A@EA@BerconCurveDlgProcNOISE@@8 DD imagerel ??_R0?AVBerconCurveDlgProcNOISE@@@8 ; BerconCurveDlgProcNOISE::`RTTI Base Class Descriptor at (0,-1,0,64)'
	DD	02H
	DD	00H
	DD	0ffffffffH
	DD	00H
	DD	040H
	DD	imagerel ??_R3BerconCurveDlgProcNOISE@@8
rdata$r	ENDS
;	COMDAT ??_R2BerconCurveDlgProcNOISE@@8
rdata$r	SEGMENT
??_R2BerconCurveDlgProcNOISE@@8 DD imagerel ??_R1A@?0A@EA@BerconCurveDlgProcNOISE@@8 ; BerconCurveDlgProcNOISE::`RTTI Base Class Array'
	DD	imagerel ??_R1A@?0A@EA@ParamMap2UserDlgProc@@8
	DD	imagerel ??_R17?0A@EA@MaxHeapOperators@@8
	ORG $+3
rdata$r	ENDS
;	COMDAT ??_R3BerconCurveDlgProcNOISE@@8
rdata$r	SEGMENT
??_R3BerconCurveDlgProcNOISE@@8 DD 00H			; BerconCurveDlgProcNOISE::`RTTI Class Hierarchy Descriptor'
	DD	00H
	DD	03H
	DD	imagerel ??_R2BerconCurveDlgProcNOISE@@8
rdata$r	ENDS
;	COMDAT ??_R0?AVBerconCurveDlgProcNOISE@@@8
data$r	SEGMENT
??_R0?AVBerconCurveDlgProcNOISE@@@8 DQ FLAT:??_7type_info@@6B@ ; BerconCurveDlgProcNOISE `RTTI Type Descriptor'
	DQ	0000000000000000H
	DB	'.?AVBerconCurveDlgProcNOISE@@', 00H
data$r	ENDS
;	COMDAT ??_R4BerconCurveDlgProcNOISE@@6B@
rdata$r	SEGMENT
??_R4BerconCurveDlgProcNOISE@@6B@ DD 01H		; BerconCurveDlgProcNOISE::`RTTI Complete Object Locator'
	DD	00H
	DD	00H
	DD	imagerel ??_R0?AVBerconCurveDlgProcNOISE@@@8
	DD	imagerel ??_R3BerconCurveDlgProcNOISE@@8
	DD	imagerel ??_R4BerconCurveDlgProcNOISE@@6B@
rdata$r	ENDS
;	COMDAT ??_R2ClassDesc2@@8
rdata$r	SEGMENT
??_R2ClassDesc2@@8 DD imagerel ??_R1A@?0A@EA@ClassDesc2@@8 ; ClassDesc2::`RTTI Base Class Array'
	DD	imagerel ??_R1A@?0A@EA@ClassDesc@@8
	DD	imagerel ??_R17?0A@EA@MaxHeapOperators@@8
	ORG $+3
rdata$r	ENDS
;	COMDAT ??_R3ClassDesc2@@8
rdata$r	SEGMENT
??_R3ClassDesc2@@8 DD 00H				; ClassDesc2::`RTTI Class Hierarchy Descriptor'
	DD	00H
	DD	03H
	DD	imagerel ??_R2ClassDesc2@@8
rdata$r	ENDS
;	COMDAT ??_R1A@?0A@EA@ClassDesc2@@8
rdata$r	SEGMENT
??_R1A@?0A@EA@ClassDesc2@@8 DD imagerel ??_R0?AVClassDesc2@@@8 ; ClassDesc2::`RTTI Base Class Descriptor at (0,-1,0,64)'
	DD	02H
	DD	00H
	DD	0ffffffffH
	DD	00H
	DD	040H
	DD	imagerel ??_R3ClassDesc2@@8
rdata$r	ENDS
;	COMDAT ??_R1A@?0A@EA@BerconNoiseClassDesc@@8
rdata$r	SEGMENT
??_R1A@?0A@EA@BerconNoiseClassDesc@@8 DD imagerel ??_R0?AVBerconNoiseClassDesc@@@8 ; BerconNoiseClassDesc::`RTTI Base Class Descriptor at (0,-1,0,64)'
	DD	03H
	DD	00H
	DD	0ffffffffH
	DD	00H
	DD	040H
	DD	imagerel ??_R3BerconNoiseClassDesc@@8
rdata$r	ENDS
;	COMDAT ??_R2BerconNoiseClassDesc@@8
rdata$r	SEGMENT
??_R2BerconNoiseClassDesc@@8 DD imagerel ??_R1A@?0A@EA@BerconNoiseClassDesc@@8 ; BerconNoiseClassDesc::`RTTI Base Class Array'
	DD	imagerel ??_R1A@?0A@EA@ClassDesc2@@8
	DD	imagerel ??_R1A@?0A@EA@ClassDesc@@8
	DD	imagerel ??_R17?0A@EA@MaxHeapOperators@@8
	ORG $+3
rdata$r	ENDS
;	COMDAT ??_R3BerconNoiseClassDesc@@8
rdata$r	SEGMENT
??_R3BerconNoiseClassDesc@@8 DD 00H			; BerconNoiseClassDesc::`RTTI Class Hierarchy Descriptor'
	DD	00H
	DD	04H
	DD	imagerel ??_R2BerconNoiseClassDesc@@8
rdata$r	ENDS
;	COMDAT ??_R0?AVBerconNoiseClassDesc@@@8
data$r	SEGMENT
??_R0?AVBerconNoiseClassDesc@@@8 DQ FLAT:??_7type_info@@6B@ ; BerconNoiseClassDesc `RTTI Type Descriptor'
	DQ	0000000000000000H
	DB	'.?AVBerconNoiseClassDesc@@', 00H
data$r	ENDS
;	COMDAT ??_R4BerconNoiseClassDesc@@6B@
rdata$r	SEGMENT
??_R4BerconNoiseClassDesc@@6B@ DD 01H			; BerconNoiseClassDesc::`RTTI Complete Object Locator'
	DD	00H
	DD	00H
	DD	imagerel ??_R0?AVBerconNoiseClassDesc@@@8
	DD	imagerel ??_R3BerconNoiseClassDesc@@8
	DD	imagerel ??_R4BerconNoiseClassDesc@@6B@
rdata$r	ENDS
;	COMDAT ??_R4BerconNoise@@6B@
rdata$r	SEGMENT
??_R4BerconNoise@@6B@ DD 01H				; BerconNoise::`RTTI Complete Object Locator'
	DD	090H
	DD	00H
	DD	imagerel ??_R0?AVBerconNoise@@@8
	DD	imagerel ??_R3BerconNoise@@8
	DD	imagerel ??_R4BerconNoise@@6B@
rdata$r	ENDS
;	COMDAT ??_R4BerconNoise@@6BISubMap@@@
rdata$r	SEGMENT
??_R4BerconNoise@@6BISubMap@@@ DD 01H			; BerconNoise::`RTTI Complete Object Locator'
	DD	040H
	DD	00H
	DD	imagerel ??_R0?AVBerconNoise@@@8
	DD	imagerel ??_R3BerconNoise@@8
	DD	imagerel ??_R4BerconNoise@@6BISubMap@@@
rdata$r	ENDS
;	COMDAT ??_R1JI@?0A@EC@MaxHeapOperators@@8
rdata$r	SEGMENT
??_R1JI@?0A@EC@MaxHeapOperators@@8 DD imagerel ??_R0?AVMaxHeapOperators@@@8 ; MaxHeapOperators::`RTTI Base Class Descriptor at (152,-1,0,66)'
	DD	00H
	DD	098H
	DD	0ffffffffH
	DD	00H
	DD	042H
	DD	imagerel ??_R3MaxHeapOperators@@8
rdata$r	ENDS
;	COMDAT ??_R1JA@?0A@EA@ResourceMakerCallback@@8
rdata$r	SEGMENT
??_R1JA@?0A@EA@ResourceMakerCallback@@8 DD imagerel ??_R0?AVResourceMakerCallback@@@8 ; ResourceMakerCallback::`RTTI Base Class Descriptor at (144,-1,0,64)'
	DD	01H
	DD	090H
	DD	0ffffffffH
	DD	00H
	DD	040H
	DD	imagerel ??_R3ResourceMakerCallback@@8
rdata$r	ENDS
;	COMDAT ??_R1EA@?0A@EA@ISubMap@@8
rdata$r	SEGMENT
??_R1EA@?0A@EA@ISubMap@@8 DD imagerel ??_R0?AVISubMap@@@8 ; ISubMap::`RTTI Base Class Descriptor at (64,-1,0,64)'
	DD	01H
	DD	040H
	DD	0ffffffffH
	DD	00H
	DD	040H
	DD	imagerel ??_R3ISubMap@@8
rdata$r	ENDS
;	COMDAT ??_R2MtlBase@@8
rdata$r	SEGMENT
??_R2MtlBase@@8 DD imagerel ??_R1A@?0A@EA@MtlBase@@8	; MtlBase::`RTTI Base Class Array'
	DD	imagerel ??_R1A@?0A@EA@ReferenceTarget@@8
	DD	imagerel ??_R1A@?0A@EA@ReferenceMaker@@8
	DD	imagerel ??_R1A@?0A@EA@Animatable@@8
	DD	imagerel ??_R1A@?0A@EA@InterfaceServer@@8
	DD	imagerel ??_R17?0A@EC@MaxHeapOperators@@8
	DD	imagerel ??_R18?0A@EA@Noncopyable@Util@MaxSDK@@8
	DD	imagerel ??_R18?0A@EC@MaxHeapOperators@@8
	DD	imagerel ??_R1EA@?0A@EA@ISubMap@@8
	DD	imagerel ??_R1EI@?0A@EC@MaxHeapOperators@@8
	ORG $+3
rdata$r	ENDS
;	COMDAT ??_R3MtlBase@@8
rdata$r	SEGMENT
??_R3MtlBase@@8 DD 00H					; MtlBase::`RTTI Class Hierarchy Descriptor'
	DD	01H
	DD	0aH
	DD	imagerel ??_R2MtlBase@@8
rdata$r	ENDS
;	COMDAT ??_R0?AVMtlBase@@@8
data$r	SEGMENT
??_R0?AVMtlBase@@@8 DQ FLAT:??_7type_info@@6B@		; MtlBase `RTTI Type Descriptor'
	DQ	0000000000000000H
	DB	'.?AVMtlBase@@', 00H
data$r	ENDS
;	COMDAT ??_R1A@?0A@EA@MtlBase@@8
rdata$r	SEGMENT
??_R1A@?0A@EA@MtlBase@@8 DD imagerel ??_R0?AVMtlBase@@@8 ; MtlBase::`RTTI Base Class Descriptor at (0,-1,0,64)'
	DD	09H
	DD	00H
	DD	0ffffffffH
	DD	00H
	DD	040H
	DD	imagerel ??_R3MtlBase@@8
rdata$r	ENDS
;	COMDAT ??_R2Texmap@@8
rdata$r	SEGMENT
??_R2Texmap@@8 DD imagerel ??_R1A@?0A@EA@Texmap@@8	; Texmap::`RTTI Base Class Array'
	DD	imagerel ??_R1A@?0A@EA@MtlBase@@8
	DD	imagerel ??_R1A@?0A@EA@ReferenceTarget@@8
	DD	imagerel ??_R1A@?0A@EA@ReferenceMaker@@8
	DD	imagerel ??_R1A@?0A@EA@Animatable@@8
	DD	imagerel ??_R1A@?0A@EA@InterfaceServer@@8
	DD	imagerel ??_R17?0A@EC@MaxHeapOperators@@8
	DD	imagerel ??_R18?0A@EA@Noncopyable@Util@MaxSDK@@8
	DD	imagerel ??_R18?0A@EC@MaxHeapOperators@@8
	DD	imagerel ??_R1EA@?0A@EA@ISubMap@@8
	DD	imagerel ??_R1EI@?0A@EC@MaxHeapOperators@@8
	ORG $+3
rdata$r	ENDS
;	COMDAT ??_R3Texmap@@8
rdata$r	SEGMENT
??_R3Texmap@@8 DD 00H					; Texmap::`RTTI Class Hierarchy Descriptor'
	DD	01H
	DD	0bH
	DD	imagerel ??_R2Texmap@@8
rdata$r	ENDS
;	COMDAT ??_R0?AVTexmap@@@8
data$r	SEGMENT
??_R0?AVTexmap@@@8 DQ FLAT:??_7type_info@@6B@		; Texmap `RTTI Type Descriptor'
	DQ	0000000000000000H
	DB	'.?AVTexmap@@', 00H
data$r	ENDS
;	COMDAT ??_R1A@?0A@EA@Texmap@@8
rdata$r	SEGMENT
??_R1A@?0A@EA@Texmap@@8 DD imagerel ??_R0?AVTexmap@@@8	; Texmap::`RTTI Base Class Descriptor at (0,-1,0,64)'
	DD	0aH
	DD	00H
	DD	0ffffffffH
	DD	00H
	DD	040H
	DD	imagerel ??_R3Texmap@@8
rdata$r	ENDS
;	COMDAT ??_R1A@?0A@EA@BerconNoise@@8
rdata$r	SEGMENT
??_R1A@?0A@EA@BerconNoise@@8 DD imagerel ??_R0?AVBerconNoise@@@8 ; BerconNoise::`RTTI Base Class Descriptor at (0,-1,0,64)'
	DD	0dH
	DD	00H
	DD	0ffffffffH
	DD	00H
	DD	040H
	DD	imagerel ??_R3BerconNoise@@8
rdata$r	ENDS
;	COMDAT ??_R2BerconNoise@@8
rdata$r	SEGMENT
??_R2BerconNoise@@8 DD imagerel ??_R1A@?0A@EA@BerconNoise@@8 ; BerconNoise::`RTTI Base Class Array'
	DD	imagerel ??_R1A@?0A@EA@Texmap@@8
	DD	imagerel ??_R1A@?0A@EA@MtlBase@@8
	DD	imagerel ??_R1A@?0A@EA@ReferenceTarget@@8
	DD	imagerel ??_R1A@?0A@EA@ReferenceMaker@@8
	DD	imagerel ??_R1A@?0A@EA@Animatable@@8
	DD	imagerel ??_R1A@?0A@EA@InterfaceServer@@8
	DD	imagerel ??_R17?0A@EC@MaxHeapOperators@@8
	DD	imagerel ??_R18?0A@EA@Noncopyable@Util@MaxSDK@@8
	DD	imagerel ??_R18?0A@EC@MaxHeapOperators@@8
	DD	imagerel ??_R1EA@?0A@EA@ISubMap@@8
	DD	imagerel ??_R1EI@?0A@EC@MaxHeapOperators@@8
	DD	imagerel ??_R1JA@?0A@EA@ResourceMakerCallback@@8
	DD	imagerel ??_R1JI@?0A@EC@MaxHeapOperators@@8
	ORG $+3
rdata$r	ENDS
;	COMDAT ??_R3BerconNoise@@8
rdata$r	SEGMENT
??_R3BerconNoise@@8 DD 00H				; BerconNoise::`RTTI Class Hierarchy Descriptor'
	DD	05H
	DD	0eH
	DD	imagerel ??_R2BerconNoise@@8
rdata$r	ENDS
;	COMDAT ??_R0?AVBerconNoise@@@8
data$r	SEGMENT
??_R0?AVBerconNoise@@@8 DQ FLAT:??_7type_info@@6B@	; BerconNoise `RTTI Type Descriptor'
	DQ	0000000000000000H
	DB	'.?AVBerconNoise@@', 00H
data$r	ENDS
;	COMDAT ??_R4BerconNoise@@6BReferenceTarget@@@
rdata$r	SEGMENT
??_R4BerconNoise@@6BReferenceTarget@@@ DD 01H		; BerconNoise::`RTTI Complete Object Locator'
	DD	00H
	DD	00H
	DD	imagerel ??_R0?AVBerconNoise@@@8
	DD	imagerel ??_R3BerconNoise@@8
	DD	imagerel ??_R4BerconNoise@@6BReferenceTarget@@@
rdata$r	ENDS
;	COMDAT ??_R1A@?0A@EA@BerconXYZDlgProc@@8
rdata$r	SEGMENT
??_R1A@?0A@EA@BerconXYZDlgProc@@8 DD imagerel ??_R0?AVBerconXYZDlgProc@@@8 ; BerconXYZDlgProc::`RTTI Base Class Descriptor at (0,-1,0,64)'
	DD	02H
	DD	00H
	DD	0ffffffffH
	DD	00H
	DD	040H
	DD	imagerel ??_R3BerconXYZDlgProc@@8
rdata$r	ENDS
;	COMDAT ??_R2BerconXYZDlgProc@@8
rdata$r	SEGMENT
??_R2BerconXYZDlgProc@@8 DD imagerel ??_R1A@?0A@EA@BerconXYZDlgProc@@8 ; BerconXYZDlgProc::`RTTI Base Class Array'
	DD	imagerel ??_R1A@?0A@EA@ParamMap2UserDlgProc@@8
	DD	imagerel ??_R17?0A@EA@MaxHeapOperators@@8
	ORG $+3
rdata$r	ENDS
;	COMDAT ??_R3BerconXYZDlgProc@@8
rdata$r	SEGMENT
??_R3BerconXYZDlgProc@@8 DD 00H				; BerconXYZDlgProc::`RTTI Class Hierarchy Descriptor'
	DD	00H
	DD	03H
	DD	imagerel ??_R2BerconXYZDlgProc@@8
rdata$r	ENDS
;	COMDAT ??_R0?AVBerconXYZDlgProc@@@8
data$r	SEGMENT
??_R0?AVBerconXYZDlgProc@@@8 DQ FLAT:??_7type_info@@6B@	; BerconXYZDlgProc `RTTI Type Descriptor'
	DQ	0000000000000000H
	DB	'.?AVBerconXYZDlgProc@@', 00H
data$r	ENDS
;	COMDAT ??_R4BerconXYZDlgProc@@6B@
rdata$r	SEGMENT
??_R4BerconXYZDlgProc@@6B@ DD 01H			; BerconXYZDlgProc::`RTTI Complete Object Locator'
	DD	00H
	DD	00H
	DD	imagerel ??_R0?AVBerconXYZDlgProc@@@8
	DD	imagerel ??_R3BerconXYZDlgProc@@8
	DD	imagerel ??_R4BerconXYZDlgProc@@6B@
rdata$r	ENDS
;	COMDAT ??_R2ParamBlockDesc2@@8
rdata$r	SEGMENT
??_R2ParamBlockDesc2@@8 DD imagerel ??_R1A@?0A@EA@ParamBlockDesc2@@8 ; ParamBlockDesc2::`RTTI Base Class Array'
	DD	imagerel ??_R1A@?0A@EA@BaseInterfaceServer@@8
	DD	imagerel ??_R1A@?0A@EA@InterfaceServer@@8
	DD	imagerel ??_R17?0A@EA@MaxHeapOperators@@8
	ORG $+3
rdata$r	ENDS
;	COMDAT ??_R3ParamBlockDesc2@@8
rdata$r	SEGMENT
??_R3ParamBlockDesc2@@8 DD 00H				; ParamBlockDesc2::`RTTI Class Hierarchy Descriptor'
	DD	00H
	DD	04H
	DD	imagerel ??_R2ParamBlockDesc2@@8
rdata$r	ENDS
;	COMDAT ??_R0?AVParamBlockDesc2@@@8
data$r	SEGMENT
??_R0?AVParamBlockDesc2@@@8 DQ FLAT:??_7type_info@@6B@	; ParamBlockDesc2 `RTTI Type Descriptor'
	DQ	0000000000000000H
	DB	'.?AVParamBlockDesc2@@', 00H
data$r	ENDS
;	COMDAT ??_R1A@?0A@EA@ParamBlockDesc2@@8
rdata$r	SEGMENT
??_R1A@?0A@EA@ParamBlockDesc2@@8 DD imagerel ??_R0?AVParamBlockDesc2@@@8 ; ParamBlockDesc2::`RTTI Base Class Descriptor at (0,-1,0,64)'
	DD	03H
	DD	00H
	DD	0ffffffffH
	DD	00H
	DD	040H
	DD	imagerel ??_R3ParamBlockDesc2@@8
rdata$r	ENDS
;	COMDAT ??_R1A@?0A@EA@XYZ_Desc@@8
rdata$r	SEGMENT
??_R1A@?0A@EA@XYZ_Desc@@8 DD imagerel ??_R0?AVXYZ_Desc@@@8 ; XYZ_Desc::`RTTI Base Class Descriptor at (0,-1,0,64)'
	DD	04H
	DD	00H
	DD	0ffffffffH
	DD	00H
	DD	040H
	DD	imagerel ??_R3XYZ_Desc@@8
rdata$r	ENDS
;	COMDAT ??_R2XYZ_Desc@@8
rdata$r	SEGMENT
??_R2XYZ_Desc@@8 DD imagerel ??_R1A@?0A@EA@XYZ_Desc@@8	; XYZ_Desc::`RTTI Base Class Array'
	DD	imagerel ??_R1A@?0A@EA@ParamBlockDesc2@@8
	DD	imagerel ??_R1A@?0A@EA@BaseInterfaceServer@@8
	DD	imagerel ??_R1A@?0A@EA@InterfaceServer@@8
	DD	imagerel ??_R17?0A@EA@MaxHeapOperators@@8
	ORG $+3
rdata$r	ENDS
;	COMDAT ??_R3XYZ_Desc@@8
rdata$r	SEGMENT
??_R3XYZ_Desc@@8 DD 00H					; XYZ_Desc::`RTTI Class Hierarchy Descriptor'
	DD	00H
	DD	05H
	DD	imagerel ??_R2XYZ_Desc@@8
rdata$r	ENDS
;	COMDAT ??_R0?AVXYZ_Desc@@@8
data$r	SEGMENT
??_R0?AVXYZ_Desc@@@8 DQ FLAT:??_7type_info@@6B@		; XYZ_Desc `RTTI Type Descriptor'
	DQ	0000000000000000H
	DB	'.?AVXYZ_Desc@@', 00H
data$r	ENDS
;	COMDAT ??_R4XYZ_Desc@@6B@
rdata$r	SEGMENT
??_R4XYZ_Desc@@6B@ DD 01H				; XYZ_Desc::`RTTI Complete Object Locator'
	DD	00H
	DD	00H
	DD	imagerel ??_R0?AVXYZ_Desc@@@8
	DD	imagerel ??_R3XYZ_Desc@@8
	DD	imagerel ??_R4XYZ_Desc@@6B@
rdata$r	ENDS
;	COMDAT ??_R1A@?0A@EA@ResourceMakerCallback@@8
rdata$r	SEGMENT
??_R1A@?0A@EA@ResourceMakerCallback@@8 DD imagerel ??_R0?AVResourceMakerCallback@@@8 ; ResourceMakerCallback::`RTTI Base Class Descriptor at (0,-1,0,64)'
	DD	01H
	DD	00H
	DD	0ffffffffH
	DD	00H
	DD	040H
	DD	imagerel ??_R3ResourceMakerCallback@@8
rdata$r	ENDS
;	COMDAT ??_R2ResourceMakerCallback@@8
rdata$r	SEGMENT
??_R2ResourceMakerCallback@@8 DD imagerel ??_R1A@?0A@EA@ResourceMakerCallback@@8 ; ResourceMakerCallback::`RTTI Base Class Array'
	DD	imagerel ??_R17?0A@EA@MaxHeapOperators@@8
	ORG $+3
rdata$r	ENDS
;	COMDAT ??_R3ResourceMakerCallback@@8
rdata$r	SEGMENT
??_R3ResourceMakerCallback@@8 DD 00H			; ResourceMakerCallback::`RTTI Class Hierarchy Descriptor'
	DD	00H
	DD	02H
	DD	imagerel ??_R2ResourceMakerCallback@@8
rdata$r	ENDS
;	COMDAT ??_R0?AVResourceMakerCallback@@@8
data$r	SEGMENT
??_R0?AVResourceMakerCallback@@@8 DQ FLAT:??_7type_info@@6B@ ; ResourceMakerCallback `RTTI Type Descriptor'
	DQ	0000000000000000H
	DB	'.?AVResourceMakerCallback@@', 00H
data$r	ENDS
;	COMDAT ??_R4ResourceMakerCallback@@6B@
rdata$r	SEGMENT
??_R4ResourceMakerCallback@@6B@ DD 01H			; ResourceMakerCallback::`RTTI Complete Object Locator'
	DD	00H
	DD	00H
	DD	imagerel ??_R0?AVResourceMakerCallback@@@8
	DD	imagerel ??_R3ResourceMakerCallback@@8
	DD	imagerel ??_R4ResourceMakerCallback@@6B@
rdata$r	ENDS
;	COMDAT ??_R1A@?0A@EA@ISubMap@@8
rdata$r	SEGMENT
??_R1A@?0A@EA@ISubMap@@8 DD imagerel ??_R0?AVISubMap@@@8 ; ISubMap::`RTTI Base Class Descriptor at (0,-1,0,64)'
	DD	01H
	DD	00H
	DD	0ffffffffH
	DD	00H
	DD	040H
	DD	imagerel ??_R3ISubMap@@8
rdata$r	ENDS
;	COMDAT ??_R2ISubMap@@8
rdata$r	SEGMENT
??_R2ISubMap@@8 DD imagerel ??_R1A@?0A@EA@ISubMap@@8	; ISubMap::`RTTI Base Class Array'
	DD	imagerel ??_R17?0A@EA@MaxHeapOperators@@8
	ORG $+3
rdata$r	ENDS
;	COMDAT ??_R3ISubMap@@8
rdata$r	SEGMENT
??_R3ISubMap@@8 DD 00H					; ISubMap::`RTTI Class Hierarchy Descriptor'
	DD	00H
	DD	02H
	DD	imagerel ??_R2ISubMap@@8
rdata$r	ENDS
;	COMDAT ??_R0?AVISubMap@@@8
data$r	SEGMENT
??_R0?AVISubMap@@@8 DQ FLAT:??_7type_info@@6B@		; ISubMap `RTTI Type Descriptor'
	DQ	0000000000000000H
	DB	'.?AVISubMap@@', 00H
data$r	ENDS
;	COMDAT ??_R1A@?0A@EA@ClassDesc@@8
rdata$r	SEGMENT
??_R1A@?0A@EA@ClassDesc@@8 DD imagerel ??_R0?AVClassDesc@@@8 ; ClassDesc::`RTTI Base Class Descriptor at (0,-1,0,64)'
	DD	01H
	DD	00H
	DD	0ffffffffH
	DD	00H
	DD	040H
	DD	imagerel ??_R3ClassDesc@@8
rdata$r	ENDS
;	COMDAT ??_R2ClassDesc@@8
rdata$r	SEGMENT
??_R2ClassDesc@@8 DD imagerel ??_R1A@?0A@EA@ClassDesc@@8 ; ClassDesc::`RTTI Base Class Array'
	DD	imagerel ??_R17?0A@EA@MaxHeapOperators@@8
	ORG $+3
rdata$r	ENDS
;	COMDAT ??_R3ClassDesc@@8
rdata$r	SEGMENT
??_R3ClassDesc@@8 DD 00H				; ClassDesc::`RTTI Class Hierarchy Descriptor'
	DD	00H
	DD	02H
	DD	imagerel ??_R2ClassDesc@@8
rdata$r	ENDS
;	COMDAT ??_R0?AVClassDesc@@@8
data$r	SEGMENT
??_R0?AVClassDesc@@@8 DQ FLAT:??_7type_info@@6B@	; ClassDesc `RTTI Type Descriptor'
	DQ	0000000000000000H
	DB	'.?AVClassDesc@@', 00H
data$r	ENDS
;	COMDAT ??_R1A@?0A@EA@ParamMap2UserDlgProc@@8
rdata$r	SEGMENT
??_R1A@?0A@EA@ParamMap2UserDlgProc@@8 DD imagerel ??_R0?AVParamMap2UserDlgProc@@@8 ; ParamMap2UserDlgProc::`RTTI Base Class Descriptor at (0,-1,0,64)'
	DD	01H
	DD	00H
	DD	0ffffffffH
	DD	00H
	DD	040H
	DD	imagerel ??_R3ParamMap2UserDlgProc@@8
rdata$r	ENDS
;	COMDAT ??_R2ParamMap2UserDlgProc@@8
rdata$r	SEGMENT
??_R2ParamMap2UserDlgProc@@8 DD imagerel ??_R1A@?0A@EA@ParamMap2UserDlgProc@@8 ; ParamMap2UserDlgProc::`RTTI Base Class Array'
	DD	imagerel ??_R17?0A@EA@MaxHeapOperators@@8
	ORG $+3
rdata$r	ENDS
;	COMDAT ??_R3ParamMap2UserDlgProc@@8
rdata$r	SEGMENT
??_R3ParamMap2UserDlgProc@@8 DD 00H			; ParamMap2UserDlgProc::`RTTI Class Hierarchy Descriptor'
	DD	00H
	DD	02H
	DD	imagerel ??_R2ParamMap2UserDlgProc@@8
rdata$r	ENDS
;	COMDAT ??_R0?AVParamMap2UserDlgProc@@@8
data$r	SEGMENT
??_R0?AVParamMap2UserDlgProc@@@8 DQ FLAT:??_7type_info@@6B@ ; ParamMap2UserDlgProc `RTTI Type Descriptor'
	DQ	0000000000000000H
	DB	'.?AVParamMap2UserDlgProc@@', 00H
data$r	ENDS
;	COMDAT ??_R4ParamMap2UserDlgProc@@6B@
rdata$r	SEGMENT
??_R4ParamMap2UserDlgProc@@6B@ DD 01H			; ParamMap2UserDlgProc::`RTTI Complete Object Locator'
	DD	00H
	DD	00H
	DD	imagerel ??_R0?AVParamMap2UserDlgProc@@@8
	DD	imagerel ??_R3ParamMap2UserDlgProc@@8
	DD	imagerel ??_R4ParamMap2UserDlgProc@@6B@
rdata$r	ENDS
;	COMDAT ??_R1EI@?0A@EC@MaxHeapOperators@@8
rdata$r	SEGMENT
??_R1EI@?0A@EC@MaxHeapOperators@@8 DD imagerel ??_R0?AVMaxHeapOperators@@@8 ; MaxHeapOperators::`RTTI Base Class Descriptor at (72,-1,0,66)'
	DD	00H
	DD	048H
	DD	0ffffffffH
	DD	00H
	DD	042H
	DD	imagerel ??_R3MaxHeapOperators@@8
rdata$r	ENDS
;	COMDAT ??_R18?0A@EC@MaxHeapOperators@@8
rdata$r	SEGMENT
??_R18?0A@EC@MaxHeapOperators@@8 DD imagerel ??_R0?AVMaxHeapOperators@@@8 ; MaxHeapOperators::`RTTI Base Class Descriptor at (9,-1,0,66)'
	DD	00H
	DD	09H
	DD	0ffffffffH
	DD	00H
	DD	042H
	DD	imagerel ??_R3MaxHeapOperators@@8
rdata$r	ENDS
;	COMDAT ??_R1A@?0A@EA@Noncopyable@Util@MaxSDK@@8
rdata$r	SEGMENT
??_R1A@?0A@EA@Noncopyable@Util@MaxSDK@@8 DD imagerel ??_R0?AVNoncopyable@Util@MaxSDK@@@8 ; MaxSDK::Util::Noncopyable::`RTTI Base Class Descriptor at (0,-1,0,64)'
	DD	01H
	DD	00H
	DD	0ffffffffH
	DD	00H
	DD	040H
	DD	imagerel ??_R3Noncopyable@Util@MaxSDK@@8
rdata$r	ENDS
;	COMDAT ??_R2Noncopyable@Util@MaxSDK@@8
rdata$r	SEGMENT
??_R2Noncopyable@Util@MaxSDK@@8 DD imagerel ??_R1A@?0A@EA@Noncopyable@Util@MaxSDK@@8 ; MaxSDK::Util::Noncopyable::`RTTI Base Class Array'
	DD	imagerel ??_R1A@?0A@EA@MaxHeapOperators@@8
	ORG $+3
rdata$r	ENDS
;	COMDAT ??_R3Noncopyable@Util@MaxSDK@@8
rdata$r	SEGMENT
??_R3Noncopyable@Util@MaxSDK@@8 DD 00H			; MaxSDK::Util::Noncopyable::`RTTI Class Hierarchy Descriptor'
	DD	00H
	DD	02H
	DD	imagerel ??_R2Noncopyable@Util@MaxSDK@@8
rdata$r	ENDS
;	COMDAT ??_R0?AVNoncopyable@Util@MaxSDK@@@8
data$r	SEGMENT
??_R0?AVNoncopyable@Util@MaxSDK@@@8 DQ FLAT:??_7type_info@@6B@ ; MaxSDK::Util::Noncopyable `RTTI Type Descriptor'
	DQ	0000000000000000H
	DB	'.?AVNoncopyable@Util@MaxSDK@@', 00H
data$r	ENDS
;	COMDAT ??_R18?0A@EA@Noncopyable@Util@MaxSDK@@8
rdata$r	SEGMENT
??_R18?0A@EA@Noncopyable@Util@MaxSDK@@8 DD imagerel ??_R0?AVNoncopyable@Util@MaxSDK@@@8 ; MaxSDK::Util::Noncopyable::`RTTI Base Class Descriptor at (9,-1,0,64)'
	DD	01H
	DD	09H
	DD	0ffffffffH
	DD	00H
	DD	040H
	DD	imagerel ??_R3Noncopyable@Util@MaxSDK@@8
rdata$r	ENDS
;	COMDAT ??_R17?0A@EC@MaxHeapOperators@@8
rdata$r	SEGMENT
??_R17?0A@EC@MaxHeapOperators@@8 DD imagerel ??_R0?AVMaxHeapOperators@@@8 ; MaxHeapOperators::`RTTI Base Class Descriptor at (8,-1,0,66)'
	DD	00H
	DD	08H
	DD	0ffffffffH
	DD	00H
	DD	042H
	DD	imagerel ??_R3MaxHeapOperators@@8
rdata$r	ENDS
;	COMDAT ??_R2Animatable@@8
rdata$r	SEGMENT
??_R2Animatable@@8 DD imagerel ??_R1A@?0A@EA@Animatable@@8 ; Animatable::`RTTI Base Class Array'
	DD	imagerel ??_R1A@?0A@EA@InterfaceServer@@8
	DD	imagerel ??_R17?0A@EC@MaxHeapOperators@@8
	DD	imagerel ??_R18?0A@EA@Noncopyable@Util@MaxSDK@@8
	DD	imagerel ??_R18?0A@EC@MaxHeapOperators@@8
	ORG $+3
rdata$r	ENDS
;	COMDAT ??_R3Animatable@@8
rdata$r	SEGMENT
??_R3Animatable@@8 DD 00H				; Animatable::`RTTI Class Hierarchy Descriptor'
	DD	05H
	DD	05H
	DD	imagerel ??_R2Animatable@@8
rdata$r	ENDS
;	COMDAT ??_R0?AVAnimatable@@@8
data$r	SEGMENT
??_R0?AVAnimatable@@@8 DQ FLAT:??_7type_info@@6B@	; Animatable `RTTI Type Descriptor'
	DQ	0000000000000000H
	DB	'.?AVAnimatable@@', 00H
data$r	ENDS
;	COMDAT ??_R1A@?0A@EA@Animatable@@8
rdata$r	SEGMENT
??_R1A@?0A@EA@Animatable@@8 DD imagerel ??_R0?AVAnimatable@@@8 ; Animatable::`RTTI Base Class Descriptor at (0,-1,0,64)'
	DD	04H
	DD	00H
	DD	0ffffffffH
	DD	00H
	DD	040H
	DD	imagerel ??_R3Animatable@@8
rdata$r	ENDS
;	COMDAT ??_R2ReferenceMaker@@8
rdata$r	SEGMENT
??_R2ReferenceMaker@@8 DD imagerel ??_R1A@?0A@EA@ReferenceMaker@@8 ; ReferenceMaker::`RTTI Base Class Array'
	DD	imagerel ??_R1A@?0A@EA@Animatable@@8
	DD	imagerel ??_R1A@?0A@EA@InterfaceServer@@8
	DD	imagerel ??_R17?0A@EC@MaxHeapOperators@@8
	DD	imagerel ??_R18?0A@EA@Noncopyable@Util@MaxSDK@@8
	DD	imagerel ??_R18?0A@EC@MaxHeapOperators@@8
	ORG $+3
rdata$r	ENDS
;	COMDAT ??_R3ReferenceMaker@@8
rdata$r	SEGMENT
??_R3ReferenceMaker@@8 DD 00H				; ReferenceMaker::`RTTI Class Hierarchy Descriptor'
	DD	01H
	DD	06H
	DD	imagerel ??_R2ReferenceMaker@@8
rdata$r	ENDS
;	COMDAT ??_R0?AVReferenceMaker@@@8
data$r	SEGMENT
??_R0?AVReferenceMaker@@@8 DQ FLAT:??_7type_info@@6B@	; ReferenceMaker `RTTI Type Descriptor'
	DQ	0000000000000000H
	DB	'.?AVReferenceMaker@@', 00H
data$r	ENDS
;	COMDAT ??_R1A@?0A@EA@ReferenceMaker@@8
rdata$r	SEGMENT
??_R1A@?0A@EA@ReferenceMaker@@8 DD imagerel ??_R0?AVReferenceMaker@@@8 ; ReferenceMaker::`RTTI Base Class Descriptor at (0,-1,0,64)'
	DD	05H
	DD	00H
	DD	0ffffffffH
	DD	00H
	DD	040H
	DD	imagerel ??_R3ReferenceMaker@@8
rdata$r	ENDS
;	COMDAT ??_R2ReferenceTarget@@8
rdata$r	SEGMENT
??_R2ReferenceTarget@@8 DD imagerel ??_R1A@?0A@EA@ReferenceTarget@@8 ; ReferenceTarget::`RTTI Base Class Array'
	DD	imagerel ??_R1A@?0A@EA@ReferenceMaker@@8
	DD	imagerel ??_R1A@?0A@EA@Animatable@@8
	DD	imagerel ??_R1A@?0A@EA@InterfaceServer@@8
	DD	imagerel ??_R17?0A@EC@MaxHeapOperators@@8
	DD	imagerel ??_R18?0A@EA@Noncopyable@Util@MaxSDK@@8
	DD	imagerel ??_R18?0A@EC@MaxHeapOperators@@8
	ORG $+3
rdata$r	ENDS
;	COMDAT ??_R3ReferenceTarget@@8
rdata$r	SEGMENT
??_R3ReferenceTarget@@8 DD 00H				; ReferenceTarget::`RTTI Class Hierarchy Descriptor'
	DD	01H
	DD	07H
	DD	imagerel ??_R2ReferenceTarget@@8
rdata$r	ENDS
;	COMDAT ??_R0?AVReferenceTarget@@@8
data$r	SEGMENT
??_R0?AVReferenceTarget@@@8 DQ FLAT:??_7type_info@@6B@	; ReferenceTarget `RTTI Type Descriptor'
	DQ	0000000000000000H
	DB	'.?AVReferenceTarget@@', 00H
data$r	ENDS
;	COMDAT ??_R1A@?0A@EA@ReferenceTarget@@8
rdata$r	SEGMENT
??_R1A@?0A@EA@ReferenceTarget@@8 DD imagerel ??_R0?AVReferenceTarget@@@8 ; ReferenceTarget::`RTTI Base Class Descriptor at (0,-1,0,64)'
	DD	06H
	DD	00H
	DD	0ffffffffH
	DD	00H
	DD	040H
	DD	imagerel ??_R3ReferenceTarget@@8
rdata$r	ENDS
;	COMDAT ??_R1A@?0A@EA@BaseInterfaceServer@@8
rdata$r	SEGMENT
??_R1A@?0A@EA@BaseInterfaceServer@@8 DD imagerel ??_R0?AVBaseInterfaceServer@@@8 ; BaseInterfaceServer::`RTTI Base Class Descriptor at (0,-1,0,64)'
	DD	02H
	DD	00H
	DD	0ffffffffH
	DD	00H
	DD	040H
	DD	imagerel ??_R3BaseInterfaceServer@@8
rdata$r	ENDS
;	COMDAT ??_R2BaseInterfaceServer@@8
rdata$r	SEGMENT
??_R2BaseInterfaceServer@@8 DD imagerel ??_R1A@?0A@EA@BaseInterfaceServer@@8 ; BaseInterfaceServer::`RTTI Base Class Array'
	DD	imagerel ??_R1A@?0A@EA@InterfaceServer@@8
	DD	imagerel ??_R17?0A@EA@MaxHeapOperators@@8
	ORG $+3
rdata$r	ENDS
;	COMDAT ??_R3BaseInterfaceServer@@8
rdata$r	SEGMENT
??_R3BaseInterfaceServer@@8 DD 00H			; BaseInterfaceServer::`RTTI Class Hierarchy Descriptor'
	DD	00H
	DD	03H
	DD	imagerel ??_R2BaseInterfaceServer@@8
rdata$r	ENDS
;	COMDAT ??_R0?AVBaseInterfaceServer@@@8
data$r	SEGMENT
??_R0?AVBaseInterfaceServer@@@8 DQ FLAT:??_7type_info@@6B@ ; BaseInterfaceServer `RTTI Type Descriptor'
	DQ	0000000000000000H
	DB	'.?AVBaseInterfaceServer@@', 00H
data$r	ENDS
;	COMDAT ??_R2InterfaceServer@@8
rdata$r	SEGMENT
??_R2InterfaceServer@@8 DD imagerel ??_R1A@?0A@EA@InterfaceServer@@8 ; InterfaceServer::`RTTI Base Class Array'
	DD	imagerel ??_R17?0A@EA@MaxHeapOperators@@8
	ORG $+3
rdata$r	ENDS
;	COMDAT ??_R3InterfaceServer@@8
rdata$r	SEGMENT
??_R3InterfaceServer@@8 DD 00H				; InterfaceServer::`RTTI Class Hierarchy Descriptor'
	DD	00H
	DD	02H
	DD	imagerel ??_R2InterfaceServer@@8
rdata$r	ENDS
;	COMDAT ??_R0?AVInterfaceServer@@@8
data$r	SEGMENT
??_R0?AVInterfaceServer@@@8 DQ FLAT:??_7type_info@@6B@	; InterfaceServer `RTTI Type Descriptor'
	DQ	0000000000000000H
	DB	'.?AVInterfaceServer@@', 00H
data$r	ENDS
;	COMDAT ??_R1A@?0A@EA@InterfaceServer@@8
rdata$r	SEGMENT
??_R1A@?0A@EA@InterfaceServer@@8 DD imagerel ??_R0?AVInterfaceServer@@@8 ; InterfaceServer::`RTTI Base Class Descriptor at (0,-1,0,64)'
	DD	01H
	DD	00H
	DD	0ffffffffH
	DD	00H
	DD	040H
	DD	imagerel ??_R3InterfaceServer@@8
rdata$r	ENDS
;	COMDAT ??_R1A@?0A@EA@MaxHeapOperators@@8
rdata$r	SEGMENT
??_R1A@?0A@EA@MaxHeapOperators@@8 DD imagerel ??_R0?AVMaxHeapOperators@@@8 ; MaxHeapOperators::`RTTI Base Class Descriptor at (0,-1,0,64)'
	DD	00H
	DD	00H
	DD	0ffffffffH
	DD	00H
	DD	040H
	DD	imagerel ??_R3MaxHeapOperators@@8
rdata$r	ENDS
;	COMDAT ??_R2MaxHeapOperators@@8
rdata$r	SEGMENT
??_R2MaxHeapOperators@@8 DD imagerel ??_R1A@?0A@EA@MaxHeapOperators@@8 ; MaxHeapOperators::`RTTI Base Class Array'
	ORG $+3
rdata$r	ENDS
;	COMDAT ??_R3MaxHeapOperators@@8
rdata$r	SEGMENT
??_R3MaxHeapOperators@@8 DD 00H				; MaxHeapOperators::`RTTI Class Hierarchy Descriptor'
	DD	00H
	DD	01H
	DD	imagerel ??_R2MaxHeapOperators@@8
rdata$r	ENDS
;	COMDAT ??_R17?0A@EA@MaxHeapOperators@@8
rdata$r	SEGMENT
??_R17?0A@EA@MaxHeapOperators@@8 DD imagerel ??_R0?AVMaxHeapOperators@@@8 ; MaxHeapOperators::`RTTI Base Class Descriptor at (8,-1,0,64)'
	DD	00H
	DD	08H
	DD	0ffffffffH
	DD	00H
	DD	040H
	DD	imagerel ??_R3MaxHeapOperators@@8
rdata$r	ENDS
;	COMDAT ??_R2Exception@Util@MaxSDK@@8
rdata$r	SEGMENT
??_R2Exception@Util@MaxSDK@@8 DD imagerel ??_R1A@?0A@EA@Exception@Util@MaxSDK@@8 ; MaxSDK::Util::Exception::`RTTI Base Class Array'
	DD	imagerel ??_R17?0A@EA@MaxHeapOperators@@8
	ORG $+3
rdata$r	ENDS
;	COMDAT ??_R3Exception@Util@MaxSDK@@8
rdata$r	SEGMENT
??_R3Exception@Util@MaxSDK@@8 DD 00H			; MaxSDK::Util::Exception::`RTTI Class Hierarchy Descriptor'
	DD	00H
	DD	02H
	DD	imagerel ??_R2Exception@Util@MaxSDK@@8
rdata$r	ENDS
;	COMDAT ??_R1A@?0A@EA@Exception@Util@MaxSDK@@8
rdata$r	SEGMENT
??_R1A@?0A@EA@Exception@Util@MaxSDK@@8 DD imagerel ??_R0?AVException@Util@MaxSDK@@@8 ; MaxSDK::Util::Exception::`RTTI Base Class Descriptor at (0,-1,0,64)'
	DD	01H
	DD	00H
	DD	0ffffffffH
	DD	00H
	DD	040H
	DD	imagerel ??_R3Exception@Util@MaxSDK@@8
rdata$r	ENDS
;	COMDAT ??_R2OutOfRangeException@Util@MaxSDK@@8
rdata$r	SEGMENT
??_R2OutOfRangeException@Util@MaxSDK@@8 DD imagerel ??_R1A@?0A@EA@OutOfRangeException@Util@MaxSDK@@8 ; MaxSDK::Util::OutOfRangeException::`RTTI Base Class Array'
	DD	imagerel ??_R1A@?0A@EA@Exception@Util@MaxSDK@@8
	DD	imagerel ??_R17?0A@EA@MaxHeapOperators@@8
	ORG $+3
rdata$r	ENDS
;	COMDAT ??_R3OutOfRangeException@Util@MaxSDK@@8
rdata$r	SEGMENT
??_R3OutOfRangeException@Util@MaxSDK@@8 DD 00H		; MaxSDK::Util::OutOfRangeException::`RTTI Class Hierarchy Descriptor'
	DD	00H
	DD	03H
	DD	imagerel ??_R2OutOfRangeException@Util@MaxSDK@@8
rdata$r	ENDS
;	COMDAT ??_R1A@?0A@EA@OutOfRangeException@Util@MaxSDK@@8
rdata$r	SEGMENT
??_R1A@?0A@EA@OutOfRangeException@Util@MaxSDK@@8 DD imagerel ??_R0?AVOutOfRangeException@Util@MaxSDK@@@8 ; MaxSDK::Util::OutOfRangeException::`RTTI Base Class Descriptor at (0,-1,0,64)'
	DD	02H
	DD	00H
	DD	0ffffffffH
	DD	00H
	DD	040H
	DD	imagerel ??_R3OutOfRangeException@Util@MaxSDK@@8
rdata$r	ENDS
;	COMDAT ??_R1A@?0A@EA@TabOutOfRangeException@Util@MaxSDK@@8
rdata$r	SEGMENT
??_R1A@?0A@EA@TabOutOfRangeException@Util@MaxSDK@@8 DD imagerel ??_R0?AVTabOutOfRangeException@Util@MaxSDK@@@8 ; MaxSDK::Util::TabOutOfRangeException::`RTTI Base Class Descriptor at (0,-1,0,64)'
	DD	03H
	DD	00H
	DD	0ffffffffH
	DD	00H
	DD	040H
	DD	imagerel ??_R3TabOutOfRangeException@Util@MaxSDK@@8
rdata$r	ENDS
;	COMDAT ??_R2TabOutOfRangeException@Util@MaxSDK@@8
rdata$r	SEGMENT
??_R2TabOutOfRangeException@Util@MaxSDK@@8 DD imagerel ??_R1A@?0A@EA@TabOutOfRangeException@Util@MaxSDK@@8 ; MaxSDK::Util::TabOutOfRangeException::`RTTI Base Class Array'
	DD	imagerel ??_R1A@?0A@EA@OutOfRangeException@Util@MaxSDK@@8
	DD	imagerel ??_R1A@?0A@EA@Exception@Util@MaxSDK@@8
	DD	imagerel ??_R17?0A@EA@MaxHeapOperators@@8
	ORG $+3
rdata$r	ENDS
;	COMDAT ??_R3TabOutOfRangeException@Util@MaxSDK@@8
rdata$r	SEGMENT
??_R3TabOutOfRangeException@Util@MaxSDK@@8 DD 00H	; MaxSDK::Util::TabOutOfRangeException::`RTTI Class Hierarchy Descriptor'
	DD	00H
	DD	04H
	DD	imagerel ??_R2TabOutOfRangeException@Util@MaxSDK@@8
rdata$r	ENDS
;	COMDAT ??_R4TabOutOfRangeException@Util@MaxSDK@@6B@
rdata$r	SEGMENT
??_R4TabOutOfRangeException@Util@MaxSDK@@6B@ DD 01H	; MaxSDK::Util::TabOutOfRangeException::`RTTI Complete Object Locator'
	DD	00H
	DD	00H
	DD	imagerel ??_R0?AVTabOutOfRangeException@Util@MaxSDK@@@8
	DD	imagerel ??_R3TabOutOfRangeException@Util@MaxSDK@@8
	DD	imagerel ??_R4TabOutOfRangeException@Util@MaxSDK@@6B@
rdata$r	ENDS
;	COMDAT ??_C@_1GI@NLEIFPEJ@?$AAI?$AAn?$AAv?$AAa?$AAl?$AAi?$AAd?$AA?5?$AAi?$AAn?$AAd?$AAe?$AAx?$AA?5?$AAp?$AAa?$AAs?$AAs?$AAe?$AAd?$AA?5?$AAi?$AAn?$AAt?$AAo?$AA?5?$AAa?$AA?5?$AAM?$AAa?$AAx?$AA?5@
CONST	SEGMENT
??_C@_1GI@NLEIFPEJ@?$AAI?$AAn?$AAv?$AAa?$AAl?$AAi?$AAd?$AA?5?$AAi?$AAn?$AAd?$AAe?$AAx?$AA?5?$AAp?$AAa?$AAs?$AAs?$AAe?$AAd?$AA?5?$AAi?$AAn?$AAt?$AAo?$AA?5?$AAa?$AA?5?$AAM?$AAa?$AAx?$AA?5@ DB 'I'
	DB	00H, 'n', 00H, 'v', 00H, 'a', 00H, 'l', 00H, 'i', 00H, 'd', 00H
	DB	' ', 00H, 'i', 00H, 'n', 00H, 'd', 00H, 'e', 00H, 'x', 00H, ' '
	DB	00H, 'p', 00H, 'a', 00H, 's', 00H, 's', 00H, 'e', 00H, 'd', 00H
	DB	' ', 00H, 'i', 00H, 'n', 00H, 't', 00H, 'o', 00H, ' ', 00H, 'a'
	DB	00H, ' ', 00H, 'M', 00H, 'a', 00H, 'x', 00H, ' ', 00H, 'S', 00H
	DB	'D', 00H, 'K', 00H, ' ', 00H, 'T', 00H, 'a', 00H, 'b', 00H, ':'
	DB	00H, ':', 00H, 'o', 00H, 'p', 00H, 'e', 00H, 'r', 00H, 'a', 00H
	DB	't', 00H, 'o', 00H, 'r', 00H, '[', 00H, ']', 00H, 00H, 00H ; `string'
CONST	ENDS
;	COMDAT _CT??_R0?AVException@Util@MaxSDK@@@8??0Exception@Util@MaxSDK@@QEAA@AEBV012@@Z16
xdata$x	SEGMENT
_CT??_R0?AVException@Util@MaxSDK@@@8??0Exception@Util@MaxSDK@@QEAA@AEBV012@@Z16 DD 00H
	DD	imagerel ??_R0?AVException@Util@MaxSDK@@@8
	DD	00H
	DD	0ffffffffH
	ORG $+4
	DD	010H
	DD	imagerel __imp_??0Exception@Util@MaxSDK@@QEAA@AEBV012@@Z
xdata$x	ENDS
;	COMDAT ??_R0?AVException@Util@MaxSDK@@@8
data$r	SEGMENT
??_R0?AVException@Util@MaxSDK@@@8 DQ FLAT:??_7type_info@@6B@ ; MaxSDK::Util::Exception `RTTI Type Descriptor'
	DQ	0000000000000000H
	DB	'.?AVException@Util@MaxSDK@@', 00H
data$r	ENDS
;	COMDAT _CT??_R0?AVOutOfRangeException@Util@MaxSDK@@@8??0OutOfRangeException@Util@MaxSDK@@QEAA@AEBV012@@Z16
xdata$x	SEGMENT
_CT??_R0?AVOutOfRangeException@Util@MaxSDK@@@8??0OutOfRangeException@Util@MaxSDK@@QEAA@AEBV012@@Z16 DD 00H
	DD	imagerel ??_R0?AVOutOfRangeException@Util@MaxSDK@@@8
	DD	00H
	DD	0ffffffffH
	ORG $+4
	DD	010H
	DD	imagerel __imp_??0OutOfRangeException@Util@MaxSDK@@QEAA@AEBV012@@Z
xdata$x	ENDS
;	COMDAT ??_R0?AVOutOfRangeException@Util@MaxSDK@@@8
data$r	SEGMENT
??_R0?AVOutOfRangeException@Util@MaxSDK@@@8 DQ FLAT:??_7type_info@@6B@ ; MaxSDK::Util::OutOfRangeException `RTTI Type Descriptor'
	DQ	0000000000000000H
	DB	'.?AVOutOfRangeException@Util@MaxSDK@@', 00H
data$r	ENDS
;	COMDAT _CT??_R0?AVTabOutOfRangeException@Util@MaxSDK@@@8??0TabOutOfRangeException@Util@MaxSDK@@QEAA@AEBV012@@Z16
xdata$x	SEGMENT
_CT??_R0?AVTabOutOfRangeException@Util@MaxSDK@@@8??0TabOutOfRangeException@Util@MaxSDK@@QEAA@AEBV012@@Z16 DD 00H
	DD	imagerel ??_R0?AVTabOutOfRangeException@Util@MaxSDK@@@8
	DD	00H
	DD	0ffffffffH
	ORG $+4
	DD	010H
	DD	imagerel ??0TabOutOfRangeException@Util@MaxSDK@@QEAA@AEBV012@@Z
xdata$x	ENDS
;	COMDAT ??_R0?AVTabOutOfRangeException@Util@MaxSDK@@@8
data$r	SEGMENT
??_R0?AVTabOutOfRangeException@Util@MaxSDK@@@8 DQ FLAT:??_7type_info@@6B@ ; MaxSDK::Util::TabOutOfRangeException `RTTI Type Descriptor'
	DQ	0000000000000000H
	DB	'.?AVTabOutOfRangeException@Util@MaxSDK@@', 00H
data$r	ENDS
;	COMDAT _CTA4?AVTabOutOfRangeException@Util@MaxSDK@@
xdata$x	SEGMENT
_CTA4?AVTabOutOfRangeException@Util@MaxSDK@@ DD 04H
	DD	imagerel _CT??_R0?AVTabOutOfRangeException@Util@MaxSDK@@@8??0TabOutOfRangeException@Util@MaxSDK@@QEAA@AEBV012@@Z16
	DD	imagerel _CT??_R0?AVOutOfRangeException@Util@MaxSDK@@@8??0OutOfRangeException@Util@MaxSDK@@QEAA@AEBV012@@Z16
	DD	imagerel _CT??_R0?AVException@Util@MaxSDK@@@8??0Exception@Util@MaxSDK@@QEAA@AEBV012@@Z16
	DD	imagerel _CT??_R0?AVMaxHeapOperators@@@818
xdata$x	ENDS
;	COMDAT _TI4?AVTabOutOfRangeException@Util@MaxSDK@@
xdata$x	SEGMENT
_TI4?AVTabOutOfRangeException@Util@MaxSDK@@ DD 00H
	DD	imagerel ??1TabOutOfRangeException@Util@MaxSDK@@UEAA@XZ
	DD	00H
	DD	imagerel _CTA4?AVTabOutOfRangeException@Util@MaxSDK@@
xdata$x	ENDS
;	COMDAT ??_7BerconNoiseDlgProc@@6B@
CONST	SEGMENT
??_7BerconNoiseDlgProc@@6B@ DQ FLAT:??_R4BerconNoiseDlgProc@@6B@ ; BerconNoiseDlgProc::`vftable'
	DQ	FLAT:??_EBerconNoiseDlgProc@@UEAAPEAXI@Z
	DQ	FLAT:?DlgProc@BerconNoiseDlgProc@@UEAA_JHPEAVIParamMap2@@PEAUHWND__@@I_K_J@Z
	DQ	FLAT:?DeleteThis@BerconNoiseDlgProc@@UEAAXXZ
	DQ	FLAT:?SetThing@BerconNoiseDlgProc@@UEAAXPEAVReferenceTarget@@@Z
	DQ	FLAT:?Update@ParamMap2UserDlgProc@@UEAAXHAEAVInterval@@PEAVIParamMap2@@@Z
	DQ	FLAT:?Update@ParamMap2UserDlgProc@@UEAAXH@Z
	DQ	FLAT:?SetParamBlock@ParamMap2UserDlgProc@@UEAAXPEAVIParamBlock2@@@Z
CONST	ENDS
;	COMDAT ??_7BerconCurveDlgProcNOISE@@6B@
CONST	SEGMENT
??_7BerconCurveDlgProcNOISE@@6B@ DQ FLAT:??_R4BerconCurveDlgProcNOISE@@6B@ ; BerconCurveDlgProcNOISE::`vftable'
	DQ	FLAT:??_EBerconCurveDlgProcNOISE@@UEAAPEAXI@Z
	DQ	FLAT:?DlgProc@BerconCurveDlgProcNOISE@@UEAA_JHPEAVIParamMap2@@PEAUHWND__@@I_K_J@Z
	DQ	FLAT:?DeleteThis@BerconCurveDlgProcNOISE@@UEAAXXZ
	DQ	FLAT:?SetThing@BerconCurveDlgProcNOISE@@UEAAXPEAVReferenceTarget@@@Z
	DQ	FLAT:?Update@ParamMap2UserDlgProc@@UEAAXHAEAVInterval@@PEAVIParamMap2@@@Z
	DQ	FLAT:?Update@ParamMap2UserDlgProc@@UEAAXH@Z
	DQ	FLAT:?SetParamBlock@ParamMap2UserDlgProc@@UEAAXPEAVIParamBlock2@@@Z
CONST	ENDS
;	COMDAT ??_C@_1BI@OFHJLFOO@?$AAB?$AAe?$AAr?$AAc?$AAo?$AAn?$AAN?$AAo?$AAi?$AAs?$AAe?$AA?$AA@
CONST	SEGMENT
??_C@_1BI@OFHJLFOO@?$AAB?$AAe?$AAr?$AAc?$AAo?$AAn?$AAN?$AAo?$AAi?$AAs?$AAe?$AA?$AA@ DB 'B'
	DB	00H, 'e', 00H, 'r', 00H, 'c', 00H, 'o', 00H, 'n', 00H, 'N', 00H
	DB	'o', 00H, 'i', 00H, 's', 00H, 'e', 00H, 00H, 00H ; `string'
CONST	ENDS
;	COMDAT ??_7BerconNoiseClassDesc@@6B@
CONST	SEGMENT
??_7BerconNoiseClassDesc@@6B@ DQ FLAT:??_R4BerconNoiseClassDesc@@6B@ ; BerconNoiseClassDesc::`vftable'
	DQ	FLAT:??_EBerconNoiseClassDesc@@UEAAPEAXI@Z
	DQ	FLAT:?IsPublic@BerconNoiseClassDesc@@UEAAHXZ
	DQ	FLAT:?Create@BerconNoiseClassDesc@@UEAAPEAXH@Z
	DQ	FLAT:?BeginCreate@ClassDesc@@UEAAHPEAVInterface@@@Z
	DQ	FLAT:?EndCreate@ClassDesc@@UEAAHPEAVInterface@@@Z
	DQ	FLAT:?OkToCreate@ClassDesc@@UEAAHPEAVInterface@@@Z
	DQ	FLAT:?ClassName@BerconNoiseClassDesc@@UEAAPEB_WXZ
	DQ	FLAT:?SuperClassID@BerconNoiseClassDesc@@UEAAKXZ
	DQ	FLAT:?ClassID@BerconNoiseClassDesc@@UEAA?AVClass_ID@@XZ
	DQ	FLAT:?Category@BerconNoiseClassDesc@@UEAAPEB_WXZ
	DQ	FLAT:?HasClassParams@ClassDesc@@UEAAHXZ
	DQ	FLAT:?EditClassParams@ClassDesc@@UEAAXPEAUHWND__@@@Z
	DQ	FLAT:?ResetClassParams@ClassDesc2@@UEAAXH@Z
	DQ	FLAT:?NumActionTables@ClassDesc@@UEAAHXZ
	DQ	FLAT:?GetActionTable@ClassDesc@@UEAAPEAVActionTable@@H@Z
	DQ	FLAT:?IsManipulator@ClassDesc@@UEAAHXZ
	DQ	FLAT:?CanManipulate@ClassDesc@@UEAAHPEAVReferenceTarget@@@Z
	DQ	FLAT:?CanManipulateNode@ClassDesc@@UEAAHPEAVINode@@@Z
	DQ	FLAT:?CreateManipulator@ClassDesc@@UEAAPEAVManipulator@@PEAVINode@@@Z
	DQ	FLAT:?CreateManipulator@ClassDesc@@UEAAPEAVManipulator@@PEAVReferenceTarget@@PEAVINode@@@Z
	DQ	FLAT:?NeedsToSave@ClassDesc@@UEAAHXZ
	DQ	FLAT:?Save@ClassDesc@@UEAA?AW4IOResult@@PEAVISave@@@Z
	DQ	FLAT:?Load@ClassDesc@@UEAA?AW4IOResult@@PEAVILoad@@@Z
	DQ	FLAT:?InitialRollupPageState@ClassDesc@@UEAAKXZ
	DQ	FLAT:?InternalName@BerconNoiseClassDesc@@UEAAPEB_WXZ
	DQ	FLAT:?UseOnlyInternalNameForMAXScriptExposure@ClassDesc@@UEAA_NXZ
	DQ	FLAT:?HInstance@BerconNoiseClassDesc@@UEAAPEAUHINSTANCE__@@XZ
	DQ	FLAT:?NumParamBlockDescs@ClassDesc2@@UEAAHXZ
	DQ	FLAT:?GetParamBlockDesc@ClassDesc2@@UEAAPEAVParamBlockDesc2@@H@Z
	DQ	FLAT:?GetParamBlockDescByID@ClassDesc2@@UEAAPEAVParamBlockDesc2@@F@Z
	DQ	FLAT:?AddParamBlockDesc@ClassDesc2@@UEAAXPEAVParamBlockDesc2@@@Z
	DQ	FLAT:?BeginEditParams@ClassDesc2@@UEAAXPEAVIObjParam@@PEAVReferenceMaker@@KPEAVAnimatable@@@Z
	DQ	FLAT:?EndEditParams@ClassDesc2@@UEAAXPEAVIObjParam@@PEAVReferenceMaker@@KPEAVAnimatable@@@Z
	DQ	FLAT:?InvalidateUI@ClassDesc2@@UEAAXPEAVParamBlockDesc2@@@Z
	DQ	FLAT:?GetRsrcString@ClassDesc@@UEAAPEB_W_J@Z
	DQ	FLAT:?MakeAutoParamBlocks@ClassDesc2@@UEAAXPEAVReferenceMaker@@@Z
	DQ	FLAT:?NumParamMaps@ClassDesc2@@UEAAHXZ
	DQ	FLAT:?GetParamMap@ClassDesc@@UEAAPEAVIParamMap2@@PEAVParamBlockDesc2@@@Z
	DQ	FLAT:?GetParamMap@ClassDesc2@@UEAAPEAVIParamMap2@@H@Z
	DQ	FLAT:?SetUserDlgProc@ClassDesc2@@UEAA_NPEAVParamBlockDesc2@@PEAVParamMap2UserDlgProc@@@Z
	DQ	FLAT:?GetUserDlgProc@ClassDesc@@UEAAPEAVParamMap2UserDlgProc@@PEAVParamBlockDesc2@@@Z
	DQ	FLAT:?DrawRepresentation@ClassDesc@@UEAA_NKPEAUHDC__@@AEAVBox2@@@Z
	DQ	FLAT:?NumInterfaces@ClassDesc@@UEAAHXZ
	DQ	FLAT:?GetInterfaceAt@ClassDesc@@UEAAPEAVFPInterface@@H@Z
	DQ	FLAT:?GetInterface@ClassDesc@@UEAAPEAVFPInterface@@PEB_W@Z
	DQ	FLAT:?GetInterface@ClassDesc@@UEAAPEAVFPInterface@@VInterface_ID@@@Z
	DQ	FLAT:?AddInterface@ClassDesc@@UEAAXPEAVFPInterface@@@Z
	DQ	FLAT:?ClearInterfaces@ClassDesc@@UEAAXXZ
	DQ	FLAT:?SubClassID@ClassDesc@@UEAA?AVClass_ID@@XZ
	DQ	FLAT:?Execute@ClassDesc@@UEAA_JH_K00@Z
	DQ	FLAT:?CreateQtWidget@ClassDesc2@@UEAAPEAVQMaxParamBlockWidget@MaxSDK@@AEAVReferenceMaker@@AEAVIParamBlock2@@FAEAVWStr@@AEAH3@Z
CONST	ENDS
;	COMDAT ??_7BerconNoise@@6B@
CONST	SEGMENT
??_7BerconNoise@@6B@ DQ FLAT:??_R4BerconNoise@@6B@	; BerconNoise::`vftable'
	DQ	FLAT:?SetCustomImageList@BerconNoise@@UEAAHAEAPEAU_IMAGELIST@@PEAVICurveCtl@@@Z
	DQ	FLAT:?GetToolTip@BerconNoise@@UEAAHHAEAVWStr@@PEAVICurveCtl@@@Z
	DQ	FLAT:?ResetCallback@BerconNoise@@UEAAXHPEAVICurveCtl@@@Z
	DQ	FLAT:?NewCurveCreatedCallback@BerconNoise@@UEAAXHPEAVICurveCtl@@@Z
	DQ	FLAT:?GetInterface@BerconNoise@@WJA@EAAPEAXK@Z
CONST	ENDS
;	COMDAT ??_7BerconNoise@@6BISubMap@@@
CONST	SEGMENT
??_7BerconNoise@@6BISubMap@@@ DQ FLAT:??_R4BerconNoise@@6BISubMap@@@ ; BerconNoise::`vftable'
	DQ	FLAT:??_EBerconNoise@@WEA@EAAPEAXI@Z
	DQ	FLAT:?NumSubTexmaps@BerconNoise@@UEAAHXZ
	DQ	FLAT:?GetSubTexmap@BerconNoise@@UEAAPEAVTexmap@@H@Z
	DQ	FLAT:?MapSlotType@Texmap@@UEAAHH@Z
	DQ	FLAT:?SetSubTexmap@BerconNoise@@UEAAXHPEAVTexmap@@@Z
	DQ	FLAT:?SubTexmapOn@ISubMap@@UEAAHH@Z
	DQ	FLAT:?GetSubTexmapSlotName@BerconNoise@@UEAA?AVWStr@@H@Z
	DQ	FLAT:?SetDlgThing@BerconNoise@@UEAAHPEAVParamDlg@@@Z
	DQ	FLAT:?GetRefTarget@MtlBase@@UEAAPEAVReferenceTarget@@XZ
CONST	ENDS
;	COMDAT ??_7BerconNoise@@6BReferenceTarget@@@
CONST	SEGMENT
??_7BerconNoise@@6BReferenceTarget@@@ DQ FLAT:??_R4BerconNoise@@6BReferenceTarget@@@ ; BerconNoise::`vftable'
	DQ	FLAT:??_EBerconNoise@@UEAAPEAXI@Z
	DQ	FLAT:?GetInterface@MtlBase@@UEAAPEAVBaseInterface@@VInterface_ID@@@Z
	DQ	FLAT:?DeleteThis@BerconNoise@@UEAAXXZ
	DQ	FLAT:?GetClassName@BerconNoise@@UEAAXAEAVWStr@@@Z
	DQ	FLAT:?SuperClassID@BerconNoise@@UEAAKXZ
	DQ	FLAT:?ClassID@BerconNoise@@UEAA?AVClass_ID@@XZ
	DQ	FLAT:?FreeCaches@Animatable@@UEAAXXZ
	DQ	FLAT:?BeginEditParams@Animatable@@UEAAXPEAVIObjParam@@KPEAV1@@Z
	DQ	FLAT:?EndEditParams@Animatable@@UEAAXPEAVIObjParam@@KPEAV1@@Z
	DQ	FLAT:?GetInterface@BerconNoise@@UEAAPEAXK@Z
	DQ	FLAT:?ReleaseInterface@Animatable@@UEAAXKPEAX@Z
	DQ	FLAT:?SetProperty@MtlBase@@UEAAHKPEAX@Z
	DQ	FLAT:?GetProperty@MtlBase@@UEAAPEAXK@Z
	DQ	FLAT:?NumSubs@BerconNoise@@UEAAHXZ
	DQ	FLAT:?SubAnim@BerconNoise@@UEAAPEAVAnimatable@@H@Z
	DQ	FLAT:?SubAnimName@BerconNoise@@UEAA?AVWStr@@H@Z
	DQ	FLAT:?BypassTreeView@Animatable@@UEAAHXZ
	DQ	FLAT:?BypassTrackBar@Animatable@@UEAAHXZ
	DQ	FLAT:?BypassPropertyLevel@Animatable@@UEAAHXZ
	DQ	FLAT:?InvisibleProperty@Animatable@@UEAAHXZ
	DQ	FLAT:?AssignController@Animatable@@UEAAHPEAV1@H@Z
	DQ	FLAT:?CanAssignController@Animatable@@UEAAHH@Z
	DQ	FLAT:?CanDeleteSubAnim@Animatable@@UEAAHH@Z
	DQ	FLAT:?DeleteSubAnim@Animatable@@UEAAXH@Z
	DQ	FLAT:?GetSubAnimCurveColor@Animatable@@UEAAKH@Z
	DQ	FLAT:?SubNumToRefNum@BerconNoise@@UEAAHH@Z
	DQ	FLAT:?CanCopyAnim@Animatable@@UEAAHXZ
	DQ	FLAT:?CanMakeUnique@Animatable@@UEAAHXZ
	DQ	FLAT:?NumChildren@Animatable@@UEAAHXZ
	DQ	FLAT:?ChildAnim@Animatable@@UEAAPEAV1@H@Z
	DQ	FLAT:?NodeName@Animatable@@UEAA?AVWStr@@XZ
	DQ	FLAT:?RenderBegin@Animatable@@UEAAHHK@Z
	DQ	FLAT:?RenderEnd@Animatable@@UEAAHH@Z
	DQ	FLAT:?EditTrack@Animatable@@UEAAXXZ
	DQ	FLAT:?NumKeys@Animatable@@UEAAHXZ
	DQ	FLAT:?GetKeyTime@Animatable@@UEAAHH@Z
	DQ	FLAT:?GetKeyIndex@Animatable@@UEAAHH@Z
	DQ	FLAT:?GetNextKeyTime@Animatable@@UEAAHHKAEAH@Z
	DQ	FLAT:?CopyKeysFromTime@Animatable@@UEAAXHHK@Z
	DQ	FLAT:?DeleteKeyAtTime@Animatable@@UEAAXH@Z
	DQ	FLAT:?IsKeyAtTime@Animatable@@UEAAHHK@Z
	DQ	FLAT:?GetKeyTimes@Animatable@@UEAAHAEAV?$Tab@H@@VInterval@@K@Z
	DQ	FLAT:?GetKeySelState@Animatable@@UEAAHAEAVBitArray@@VInterval@@K@Z
	DQ	FLAT:?GetTimeRange@Animatable@@UEAA?AVInterval@@K@Z
	DQ	FLAT:?EditTimeRange@Animatable@@UEAAXVInterval@@K@Z
	DQ	FLAT:?DeleteTime@Animatable@@UEAAXVInterval@@K@Z
	DQ	FLAT:?ReverseTime@Animatable@@UEAAXVInterval@@K@Z
	DQ	FLAT:?ScaleTime@Animatable@@UEAAXVInterval@@M@Z
	DQ	FLAT:?InsertTime@Animatable@@UEAAXHH@Z
	DQ	FLAT:?SupportTimeOperations@Animatable@@UEAAHXZ
	DQ	FLAT:?MapKeys@Animatable@@UEAAXPEAVTimeMap@@K@Z
	DQ	FLAT:?DeleteKeys@Animatable@@UEAAXK@Z
	DQ	FLAT:?DeleteKeyByIndex@Animatable@@UEAAXH@Z
	DQ	FLAT:?SelectKeys@Animatable@@UEAAXAEAV?$Tab@VTrackHitRecord@@@@K@Z
	DQ	FLAT:?SelectSubKeys@Animatable@@UEAAXHAEAV?$Tab@VTrackHitRecord@@@@K@Z
	DQ	FLAT:?SelectSubCurve@Animatable@@UEAAXHH@Z
	DQ	FLAT:?SelectKeyByIndex@Animatable@@UEAAXHH@Z
	DQ	FLAT:?IsKeySelected@Animatable@@UEAAHH@Z
	DQ	FLAT:?FlagKey@Animatable@@UEAAXVTrackHitRecord@@@Z
	DQ	FLAT:?GetFlagKeyIndex@Animatable@@UEAAHXZ
	DQ	FLAT:?NumSelKeys@Animatable@@UEAAHXZ
	DQ	FLAT:?CloneSelectedKeys@Animatable@@UEAAXH@Z
	DQ	FLAT:?AddNewKey@Animatable@@UEAAXHK@Z
	DQ	FLAT:?MoveKeys@Animatable@@UEAAXPEAVParamDimensionBase@@MK@Z
	DQ	FLAT:?ScaleKeyValues@Animatable@@UEAAXPEAVParamDimensionBase@@MMK@Z
	DQ	FLAT:?SelectCurve@Animatable@@UEAAXH@Z
	DQ	FLAT:?IsCurveSelected@Animatable@@UEAAHXZ
	DQ	FLAT:?IsSubCurveSelected@Animatable@@UEAAHH@Z
	DQ	FLAT:?GetSelKeyCoords@Animatable@@UEAAHAEAHAEAMK@Z
	DQ	FLAT:?SetSelKeyCoords@Animatable@@UEAAXHMK@Z
	DQ	FLAT:?SetSelKeyCoordsExpr@Animatable@@UEAAHPEAVParamDimension@@PEB_W1K@Z
	DQ	FLAT:?AdjustTangents@Animatable@@UEAAXVTrackHitRecord@@PEAVParamDimensionBase@@MMK@Z
	DQ	FLAT:?AdjustTangents@Animatable@@UEAAXVTrackHitRecord@@PEAVParamDimensionBase@@AEAVBox2@@MHMHHHK@Z
	DQ	FLAT:?SubAnimSetKeyBufferPresent@Animatable@@UEAAHH@Z
	DQ	FLAT:?SetKeyBufferPresent@Animatable@@UEAAHXZ
	DQ	FLAT:?SubAnimCommitSetKeyBuffer@Animatable@@UEAAXHH@Z
	DQ	FLAT:?CommitSetKeyBuffer@Animatable@@UEAAXH@Z
	DQ	FLAT:?SubAnimRevertSetKeyBuffer@Animatable@@UEAAXH@Z
	DQ	FLAT:?RevertSetKeyBuffer@Animatable@@UEAAXXZ
	DQ	FLAT:?IsAnimated@Animatable@@UEAAHXZ
	DQ	FLAT:?CanCopyTrack@Animatable@@UEAAHVInterval@@K@Z
	DQ	FLAT:?CanPasteTrack@Animatable@@UEAAHPEAVTrackClipObject@@VInterval@@K@Z
	DQ	FLAT:?CopyTrack@Animatable@@UEAAPEAVTrackClipObject@@VInterval@@K@Z
	DQ	FLAT:?PasteTrack@Animatable@@UEAAXPEAVTrackClipObject@@VInterval@@K@Z
	DQ	FLAT:?CanCopySubTrack@Animatable@@UEAAHHVInterval@@K@Z
	DQ	FLAT:?CanPasteSubTrack@Animatable@@UEAAHHPEAVTrackClipObject@@VInterval@@K@Z
	DQ	FLAT:?CopySubTrack@Animatable@@UEAAPEAVTrackClipObject@@HVInterval@@K@Z
	DQ	FLAT:?PasteSubTrack@Animatable@@UEAAXHPEAVTrackClipObject@@VInterval@@K@Z
	DQ	FLAT:?GetTrackVSpace@Animatable@@UEAAHH@Z
	DQ	FLAT:?HitTestTrack@Animatable@@UEAAHAEAV?$Tab@VTrackHitRecord@@@@AEAVBox2@@1MHK@Z
	DQ	FLAT:?PaintTrack@Animatable@@UEAAHPEAVParamDimensionBase@@PEAUHDC__@@AEAVBox2@@2MHK@Z
	DQ	FLAT:?PaintSubTrack@Animatable@@UEAAHHPEAVParamDimensionBase@@PEAUHDC__@@AEAVBox2@@2MHK@Z
	DQ	FLAT:?PaintFCurves@Animatable@@UEAAHPEAVParamDimensionBase@@PEAUHDC__@@AEAVBox2@@2MHMHK@Z
	DQ	FLAT:?HitTestFCurves@Animatable@@UEAAHPEAVParamDimensionBase@@AEAV?$Tab@VTrackHitRecord@@@@AEAVBox2@@2MHMHK@Z
	DQ	FLAT:?PaintSubFCurves@Animatable@@UEAAHHPEAVParamDimensionBase@@PEAUHDC__@@AEAVBox2@@2MHMHK@Z
	DQ	FLAT:?HitTestSubFCurves@Animatable@@UEAAHHPEAVParamDimensionBase@@AEAV?$Tab@VTrackHitRecord@@@@AEAVBox2@@2MHMHK@Z
	DQ	FLAT:?EditTrackParams@Animatable@@UEAAXHPEAVParamDimensionBase@@PEB_WPEAUHWND__@@PEAVIObjParam@@K@Z
	DQ	FLAT:?TrackParamsType@Animatable@@UEAAHXZ
	DQ	FLAT:?GetFCurveExtents@Animatable@@UEAAHPEAVParamDimensionBase@@AEAM1K@Z
	DQ	FLAT:?GetSubFCurveExtents@Animatable@@UEAAHHPEAVParamDimensionBase@@AEAM1K@Z
	DQ	FLAT:?GetParamDimension@Animatable@@UEAAPEAVParamDimension@@H@Z
	DQ	FLAT:?TrackViewWinProc@Animatable@@UEAA_JPEAUHWND__@@I_K_J@Z
	DQ	FLAT:?SelectSubAnim@Animatable@@UEAAHH@Z
	DQ	FLAT:?EnumAuxFiles@MtlBase@@UEAAXAEAVAssetEnumCallback@@K@Z
	DQ	FLAT:?FreeAllBitmaps@Animatable@@UEAAXXZ
	DQ	FLAT:?GetSystemNodes@Animatable@@UEAAXAEAVINodeTab@@W4SysNodeContext@@@Z
	DQ	FLAT:?IsSubClassOf@Animatable@@UEAAHVClass_ID@@@Z
	DQ	FLAT:?IsRefMaker@ReferenceMaker@@UEAAHXZ
	DQ	FLAT:?MouseCycleCompleted@Animatable@@UEAAXH@Z
	DQ	FLAT:?MouseCycleStarted@Animatable@@UEAAXH@Z
	DQ	FLAT:?NumParamBlocks@BerconNoise@@UEAAHXZ
	DQ	FLAT:?GetParamBlock@BerconNoise@@UEAAPEAVIParamBlock2@@H@Z
	DQ	FLAT:?GetParamBlockByID@BerconNoise@@UEAAPEAVIParamBlock2@@F@Z
	DQ	FLAT:?SvTraverseAnimGraph@Texmap@@UEAA?AVSvGraphNodeReference@@PEAVIGraphObjectManager@@PEAVAnimatable@@HK@Z
	DQ	FLAT:?SvCanInitiateLink@Animatable@@UEAA_NPEAVIGraphObjectManager@@PEAVIGraphNode@@@Z
	DQ	FLAT:?SvCanConcludeLink@Animatable@@UEAA_NPEAVIGraphObjectManager@@PEAVIGraphNode@@1@Z
	DQ	FLAT:?SvGetName@MtlBase@@UEAA?AVWStr@@PEAVIGraphObjectManager@@PEAVIGraphNode@@_N@Z
	DQ	FLAT:?SvCanSetName@MtlBase@@UEAA_NPEAVIGraphObjectManager@@PEAVIGraphNode@@@Z
	DQ	FLAT:?SvSetName@MtlBase@@UEAA_NPEAVIGraphObjectManager@@PEAVIGraphNode@@AEBVWStr@@@Z
	DQ	FLAT:?SvCanRemoveThis@Animatable@@UEAA_NPEAVIGraphObjectManager@@PEAVIGraphNode@@@Z
	DQ	FLAT:?SvRemoveThis@Animatable@@UEAA_NPEAVIGraphObjectManager@@PEAVIGraphNode@@@Z
	DQ	FLAT:?SvIsSelected@MtlBase@@UEAA_NPEAVIGraphObjectManager@@PEAVIGraphNode@@@Z
	DQ	FLAT:?SvIsHighlighted@Animatable@@UEAA_NPEAVIGraphObjectManager@@PEAVIGraphNode@@@Z
	DQ	FLAT:?SvHighlightColor@MtlBase@@UEAAKPEAVIGraphObjectManager@@PEAVIGraphNode@@@Z
	DQ	FLAT:?SvGetSwatchColor@Animatable@@UEAAKPEAVIGraphObjectManager@@PEAVIGraphNode@@@Z
	DQ	FLAT:?SvIsInactive@Animatable@@UEAA_NPEAVIGraphObjectManager@@PEAVIGraphNode@@@Z
	DQ	FLAT:?SvLinkChild@Animatable@@UEAA_NPEAVIGraphObjectManager@@PEAVIGraphNode@@1@Z
	DQ	FLAT:?SvHandleDoubleClick@MtlBase@@UEAA_NPEAVIGraphObjectManager@@PEAVIGraphNode@@@Z
	DQ	FLAT:?SvGetMultiSelectCallback@MtlBase@@UEAAPEAVMultiSelectCallback@@PEAVIGraphObjectManager@@PEAVIGraphNode@@@Z
	DQ	FLAT:?SvCanSelect@MtlBase@@UEAA_NPEAVIGraphObjectManager@@PEAVIGraphNode@@@Z
	DQ	FLAT:?SvEditProperties@Animatable@@UEAA_NPEAVIGraphObjectManager@@PEAVIGraphNode@@@Z
	DQ	FLAT:?SvGetTip@Animatable@@UEAA?AVWStr@@PEAVIGraphObjectManager@@PEAVIGraphNode@@@Z
	DQ	FLAT:?SvGetRefTip@Animatable@@UEAA?AVWStr@@PEAVIGraphObjectManager@@PEAVIGraphNode@@1@Z
	DQ	FLAT:?SvCanDetach@Animatable@@UEAA_NPEAVIGraphObjectManager@@PEAVIGraphNode@@@Z
	DQ	FLAT:?SvDetach@Animatable@@UEAA_NPEAVIGraphObjectManager@@PEAVIGraphNode@@@Z
	DQ	FLAT:?SvGetRelTip@Animatable@@UEAA?AVWStr@@PEAVIGraphObjectManager@@PEAVIGraphNode@@H1@Z
	DQ	FLAT:?SvCanDetachRel@Animatable@@UEAA_NPEAVIGraphObjectManager@@PEAVIGraphNode@@H1@Z
	DQ	FLAT:?SvDetachRel@Animatable@@UEAA_NPEAVIGraphObjectManager@@PEAVIGraphNode@@H1@Z
	DQ	FLAT:?SvHandleRelDoubleClick@Animatable@@UEAA_NPEAVIGraphObjectManager@@PEAVIGraphNode@@H1@Z
	DQ	FLAT:?IsParamBlockDesc2Used@Animatable@@UEAA_NPEAVParamBlockDesc2@@@Z
	DQ	FLAT:?GetMacroRecorderName@Animatable@@UEAA_N_NAEAVWStr@@@Z
	DQ	FLAT:?DeleteAllRefsToMe@ReferenceTarget@@UEAA?AW4RefResult@@XZ
	DQ	FLAT:?CanTransferReference@ReferenceMaker@@UEAAHH@Z
	DQ	FLAT:?NumRefs@BerconNoise@@UEAAHXZ
	DQ	FLAT:?GetReference@BerconNoise@@UEAAPEAVReferenceTarget@@H@Z
	DQ	FLAT:?SetReference@BerconNoise@@UEAAXHPEAVReferenceTarget@@@Z
	DQ	FLAT:?Save@MtlBase@@UEAA?AW4IOResult@@PEAVISave@@@Z
	DQ	FLAT:?Load@MtlBase@@UEAA?AW4IOResult@@PEAVILoad@@@Z
	DQ	FLAT:?RemapRefOnLoad@ReferenceMaker@@UEAAHH@Z
	DQ	FLAT:?RescaleWorldUnits@ReferenceMaker@@UEAAXM@Z
	DQ	FLAT:?NotifyDependents@ReferenceTarget@@UEAA?AW4RefResult@@AEBVInterval@@_KIKHPEAV1@W4NotifyDependentsOption@@@Z
	DQ	FLAT:?NotifyDependents@ReferenceMaker@@EEAA?AW4RefResult@@AEBVInterval@@_KIKHPEAVReferenceTarget@@@Z
	DQ	FLAT:?SaveEnum@ReferenceMaker@@UEAAXAEAVSaveEnumProc@@H@Z
	DQ	FLAT:?SpecifySaveReferences@ReferenceMaker@@UEAA_NAEAVReferenceSaveManager@@@Z
	DQ	FLAT:?DoEnumDependentsImpl@ReferenceTarget@@MEAAHPEAVDependentEnumProc@@@Z
	DQ	FLAT:?IsRefTarget@ReferenceTarget@@UEAAHXZ
	DQ	FLAT:?IsRealDependency@ReferenceMaker@@UEAAHPEAVReferenceTarget@@@Z
	DQ	FLAT:?ShouldPersistWeakRef@ReferenceMaker@@UEAAHPEAVReferenceTarget@@@Z
	DQ	FLAT:?NotifyRefChanged@BerconNoise@@UEAA?AW4RefResult@@AEBVInterval@@PEAVReferenceTarget@@AEA_KIH@Z
	DQ	FLAT:?AutoDelete@ReferenceTarget@@UEAA?AW4RefResult@@XZ
	DQ	FLAT:?RefAdded@Texmap@@UEAAXPEAVReferenceMaker@@@Z
	DQ	FLAT:?RefAddedUndoRedo@ReferenceTarget@@UEAAXPEAVReferenceMaker@@@Z
	DQ	FLAT:?RefDeleted@ReferenceTarget@@UEAAXXZ
	DQ	FLAT:?RefDeletedUndoRedo@ReferenceTarget@@UEAAXXZ
	DQ	FLAT:?Clone@BerconNoise@@UEAAPEAVReferenceTarget@@AEAVRemapDir@@@Z
	DQ	FLAT:?BaseClone@MtlBase@@UEAAXPEAVReferenceTarget@@0AEAVRemapDir@@@Z
	DQ	FLAT:?NotifyForeground@ReferenceTarget@@UEAAXH@Z
	DQ	FLAT:?NotifyTarget@ReferenceTarget@@UEAAXHPEAVReferenceMaker@@@Z
	DQ	FLAT:?GetFullName@MtlBase@@UEAA?AVWStr@@XZ
	DQ	FLAT:?BuildMaps@MtlBase@@UEAAHHAEAVRenderMapsContext@@@Z
	DQ	FLAT:?Requirements@MtlBase@@UEAAKH@Z
	DQ	FLAT:?LocalRequirements@BerconNoise@@UEAAKH@Z
	DQ	FLAT:?MappingsRequired@BerconNoise@@UEAAXHAEAVBitArray@@0@Z
	DQ	FLAT:?LocalMappingsRequired@MtlBase@@UEAAXHAEAVBitArray@@0@Z
	DQ	FLAT:?IsMultiMtl@MtlBase@@UEAAHXZ
	DQ	FLAT:?Update@BerconNoise@@UEAAXHAEAVInterval@@@Z
	DQ	FLAT:?Reset@BerconNoise@@UEAAXXZ
	DQ	FLAT:?Validity@BerconNoise@@UEAA?AVInterval@@H@Z
	DQ	FLAT:?CreateParamDlg@BerconNoise@@UEAAPEAVParamDlg@@PEAUHWND__@@PEAVIMtlParams@@@Z
	DQ	FLAT:?GetPStamp@MtlBase@@UEAAPEAVPStamp@@H@Z
	DQ	FLAT:?CreatePStamp@MtlBase@@UEAAPEAVPStamp@@HH@Z
	DQ	FLAT:?DiscardPStamp@MtlBase@@UEAAXH@Z
	DQ	FLAT:?SupportTexDisplay@BerconNoise@@UEAAHXZ
	DQ	FLAT:?GetActiveTexHandle@BerconNoise@@UEAA_KHAEAVTexHandleMaker@@@Z
	DQ	FLAT:?ActivateTexDisplay@BerconNoise@@UEAAXH@Z
	DQ	FLAT:?SupportsMultiMapsInViewport@MtlBase@@UEAAHXZ
	DQ	FLAT:?SetupGfxMultiMaps@MtlBase@@UEAAXHPEAVMaterial@@AEAVMtlMakerCallback@@@Z
	DQ	FLAT:?GetTransparencyHint@MtlBase@@UEAAHHAEAVInterval@@@Z
	DQ	FLAT:?EvalColor@BerconNoise@@UEAA?AVAColor@@AEAVShadeContext@@@Z
	DQ	FLAT:?EvalMono@BerconNoise@@UEAAMAEAVShadeContext@@@Z
	DQ	FLAT:?EvalNormalPerturb@BerconNoise@@UEAA?AVPoint3@@AEAVShadeContext@@@Z
	DQ	FLAT:?HandleOwnViewPerturb@Texmap@@UEAAHXZ
	DQ	FLAT:?GetVPDisplayDIB@Texmap@@UEAAPEAUtagBITMAPINFO@@HAEAVTexHandleMaker@@AEAVInterval@@HHH@Z
	DQ	FLAT:?GetUVTransform@Texmap@@UEAAXAEAVMatrix3@@@Z
	DQ	FLAT:?GetTextureTiling@Texmap@@UEAAHXZ
	DQ	FLAT:?GetUVWSource@Texmap@@UEAAHXZ
	DQ	FLAT:?GetMapChannel@Texmap@@UEAAHXZ
	DQ	FLAT:?InitSlotType@Texmap@@UEAAXH@Z
	DQ	FLAT:?GetTheUVGen@Texmap@@UEAAPEAVUVGen@@XZ
	DQ	FLAT:?GetTheXYZGen@BerconNoise@@UEAAPEAVXYZGen@@XZ
	DQ	FLAT:?SetOutputLevel@Texmap@@UEAAXHM@Z
	DQ	FLAT:?IsOutputMeaningful@Texmap@@UEAA_NAEAVShadeContext@@@Z
	DQ	FLAT:?IsLocalOutputMeaningful@Texmap@@UEAA_NAEAVShadeContext@@@Z
	DQ	FLAT:?LoadMapFiles@Texmap@@UEAAHH@Z
	DQ	FLAT:?RenderBitmap@Texmap@@UEAAXHPEAVBitmap@@MH@Z
	DQ	FLAT:?IsHighDynamicRange@Texmap@@UEBAHXZ
CONST	ENDS
;	COMDAT ??_C@_13PHJMHGG@?$AAL?$AA?$AA@
CONST	SEGMENT
??_C@_13PHJMHGG@?$AAL?$AA?$AA@ DB 'L', 00H, 00H, 00H	; `string'
CONST	ENDS
;	COMDAT ??_7BerconXYZDlgProc@@6B@
CONST	SEGMENT
??_7BerconXYZDlgProc@@6B@ DQ FLAT:??_R4BerconXYZDlgProc@@6B@ ; BerconXYZDlgProc::`vftable'
	DQ	FLAT:??_EBerconXYZDlgProc@@UEAAPEAXI@Z
	DQ	FLAT:?DlgProc@BerconXYZDlgProc@@UEAA_JHPEAVIParamMap2@@PEAUHWND__@@I_K_J@Z
	DQ	FLAT:?DeleteThis@BerconXYZDlgProc@@UEAAXXZ
	DQ	FLAT:?SetThing@BerconXYZDlgProc@@UEAAXPEAVReferenceTarget@@@Z
	DQ	FLAT:?Update@ParamMap2UserDlgProc@@UEAAXHAEAVInterval@@PEAVIParamMap2@@@Z
	DQ	FLAT:?Update@ParamMap2UserDlgProc@@UEAAXH@Z
	DQ	FLAT:?SetParamBlock@ParamMap2UserDlgProc@@UEAAXPEAVIParamBlock2@@@Z
CONST	ENDS
;	COMDAT ??_C@_1BA@KMAKHADK@?$AAM?$AAa?$AAp?$AAp?$AAi?$AAn?$AAg?$AA?$AA@
CONST	SEGMENT
??_C@_1BA@KMAKHADK@?$AAM?$AAa?$AAp?$AAp?$AAi?$AAn?$AAg?$AA?$AA@ DB 'M', 00H
	DB	'a', 00H, 'p', 00H, 'p', 00H, 'i', 00H, 'n', 00H, 'g', 00H, 00H
	DB	00H						; `string'
CONST	ENDS
;	COMDAT ??_C@_1BA@JOBDKJKA@?$AAx?$AAy?$AAz?$AA_?$AAm?$AAa?$AAp?$AA?$AA@
CONST	SEGMENT
??_C@_1BA@JOBDKJKA@?$AAx?$AAy?$AAz?$AA_?$AAm?$AAa?$AAp?$AA?$AA@ DB 'x', 00H
	DB	'y', 00H, 'z', 00H, '_', 00H, 'm', 00H, 'a', 00H, 'p', 00H, 00H
	DB	00H						; `string'
CONST	ENDS
;	COMDAT ??_C@_1BC@BDPIEDCA@?$AAx?$AAy?$AAz?$AA_?$AAc?$AAh?$AAa?$AAn?$AA?$AA@
CONST	SEGMENT
??_C@_1BC@BDPIEDCA@?$AAx?$AAy?$AAz?$AA_?$AAc?$AAh?$AAa?$AAn?$AA?$AA@ DB 'x'
	DB	00H, 'y', 00H, 'z', 00H, '_', 00H, 'c', 00H, 'h', 00H, 'a', 00H
	DB	'n', 00H, 00H, 00H				; `string'
CONST	ENDS
;	COMDAT ??_C@_1BK@NFJCNAOI@?$AAx?$AAy?$AAz?$AA_?$AAo?$AAf?$AAf?$AAs?$AAe?$AAt?$AA_?$AAx?$AA?$AA@
CONST	SEGMENT
??_C@_1BK@NFJCNAOI@?$AAx?$AAy?$AAz?$AA_?$AAo?$AAf?$AAf?$AAs?$AAe?$AAt?$AA_?$AAx?$AA?$AA@ DB 'x'
	DB	00H, 'y', 00H, 'z', 00H, '_', 00H, 'o', 00H, 'f', 00H, 'f', 00H
	DB	's', 00H, 'e', 00H, 't', 00H, '_', 00H, 'x', 00H, 00H, 00H ; `string'
CONST	ENDS
;	COMDAT ??_C@_1BK@GNCOLHIN@?$AAx?$AAy?$AAz?$AA_?$AAo?$AAf?$AAf?$AAs?$AAe?$AAt?$AA_?$AAy?$AA?$AA@
CONST	SEGMENT
??_C@_1BK@GNCOLHIN@?$AAx?$AAy?$AAz?$AA_?$AAo?$AAf?$AAf?$AAs?$AAe?$AAt?$AA_?$AAy?$AA?$AA@ DB 'x'
	DB	00H, 'y', 00H, 'z', 00H, '_', 00H, 'o', 00H, 'f', 00H, 'f', 00H
	DB	's', 00H, 'e', 00H, 't', 00H, '_', 00H, 'y', 00H, 00H, 00H ; `string'
CONST	ENDS
;	COMDAT ??_C@_1BK@HPJLBIGD@?$AAx?$AAy?$AAz?$AA_?$AAo?$AAf?$AAf?$AAs?$AAe?$AAt?$AA_?$AAz?$AA?$AA@
CONST	SEGMENT
??_C@_1BK@HPJLBIGD@?$AAx?$AAy?$AAz?$AA_?$AAo?$AAf?$AAf?$AAs?$AAe?$AAt?$AA_?$AAz?$AA?$AA@ DB 'x'
	DB	00H, 'y', 00H, 'z', 00H, '_', 00H, 'o', 00H, 'f', 00H, 'f', 00H
	DB	's', 00H, 'e', 00H, 't', 00H, '_', 00H, 'z', 00H, 00H, 00H ; `string'
CONST	ENDS
;	COMDAT ??_C@_1BG@KGFFJCNH@?$AAx?$AAy?$AAz?$AA_?$AAs?$AAi?$AAz?$AAe?$AA_?$AAx?$AA?$AA@
CONST	SEGMENT
??_C@_1BG@KGFFJCNH@?$AAx?$AAy?$AAz?$AA_?$AAs?$AAi?$AAz?$AAe?$AA_?$AAx?$AA?$AA@ DB 'x'
	DB	00H, 'y', 00H, 'z', 00H, '_', 00H, 's', 00H, 'i', 00H, 'z', 00H
	DB	'e', 00H, '_', 00H, 'x', 00H, 00H, 00H	; `string'
CONST	ENDS
;	COMDAT ??_C@_1BG@BOOJPFLC@?$AAx?$AAy?$AAz?$AA_?$AAs?$AAi?$AAz?$AAe?$AA_?$AAy?$AA?$AA@
CONST	SEGMENT
??_C@_1BG@BOOJPFLC@?$AAx?$AAy?$AAz?$AA_?$AAs?$AAi?$AAz?$AAe?$AA_?$AAy?$AA?$AA@ DB 'x'
	DB	00H, 'y', 00H, 'z', 00H, '_', 00H, 's', 00H, 'i', 00H, 'z', 00H
	DB	'e', 00H, '_', 00H, 'y', 00H, 00H, 00H	; `string'
CONST	ENDS
;	COMDAT ??_C@_1BG@MFMFKFM@?$AAx?$AAy?$AAz?$AA_?$AAs?$AAi?$AAz?$AAe?$AA_?$AAz?$AA?$AA@
CONST	SEGMENT
??_C@_1BG@MFMFKFM@?$AAx?$AAy?$AAz?$AA_?$AAs?$AAi?$AAz?$AAe?$AA_?$AAz?$AA?$AA@ DB 'x'
	DB	00H, 'y', 00H, 'z', 00H, '_', 00H, 's', 00H, 'i', 00H, 'z', 00H
	DB	'e', 00H, '_', 00H, 'z', 00H, 00H, 00H	; `string'
CONST	ENDS
;	COMDAT ??_C@_1BI@BKLPIDEI@?$AAx?$AAy?$AAz?$AA_?$AAa?$AAn?$AAg?$AAl?$AAe?$AA_?$AAx?$AA?$AA@
CONST	SEGMENT
??_C@_1BI@BKLPIDEI@?$AAx?$AAy?$AAz?$AA_?$AAa?$AAn?$AAg?$AAl?$AAe?$AA_?$AAx?$AA?$AA@ DB 'x'
	DB	00H, 'y', 00H, 'z', 00H, '_', 00H, 'a', 00H, 'n', 00H, 'g', 00H
	DB	'l', 00H, 'e', 00H, '_', 00H, 'x', 00H, 00H, 00H ; `string'
CONST	ENDS
;	COMDAT ??_C@_1BI@KCADOECN@?$AAx?$AAy?$AAz?$AA_?$AAa?$AAn?$AAg?$AAl?$AAe?$AA_?$AAy?$AA?$AA@
CONST	SEGMENT
??_C@_1BI@KCADOECN@?$AAx?$AAy?$AAz?$AA_?$AAa?$AAn?$AAg?$AAl?$AAe?$AA_?$AAy?$AA?$AA@ DB 'x'
	DB	00H, 'y', 00H, 'z', 00H, '_', 00H, 'a', 00H, 'n', 00H, 'g', 00H
	DB	'l', 00H, 'e', 00H, '_', 00H, 'y', 00H, 00H, 00H ; `string'
CONST	ENDS
;	COMDAT ??_C@_1BI@LALGELMD@?$AAx?$AAy?$AAz?$AA_?$AAa?$AAn?$AAg?$AAl?$AAe?$AA_?$AAz?$AA?$AA@
CONST	SEGMENT
??_C@_1BI@LALGELMD@?$AAx?$AAy?$AAz?$AA_?$AAa?$AAn?$AAg?$AAl?$AAe?$AA_?$AAz?$AA?$AA@ DB 'x'
	DB	00H, 'y', 00H, 'z', 00H, '_', 00H, 'a', 00H, 'n', 00H, 'g', 00H
	DB	'l', 00H, 'e', 00H, '_', 00H, 'z', 00H, 00H, 00H ; `string'
CONST	ENDS
;	COMDAT ??_C@_1BG@OJCIMJLI@?$AAx?$AAy?$AAz?$AA_?$AAt?$AAi?$AAl?$AAe?$AA_?$AAx?$AA?$AA@
CONST	SEGMENT
??_C@_1BG@OJCIMJLI@?$AAx?$AAy?$AAz?$AA_?$AAt?$AAi?$AAl?$AAe?$AA_?$AAx?$AA?$AA@ DB 'x'
	DB	00H, 'y', 00H, 'z', 00H, '_', 00H, 't', 00H, 'i', 00H, 'l', 00H
	DB	'e', 00H, '_', 00H, 'x', 00H, 00H, 00H	; `string'
CONST	ENDS
;	COMDAT ??_C@_1BG@FBJEKONN@?$AAx?$AAy?$AAz?$AA_?$AAt?$AAi?$AAl?$AAe?$AA_?$AAy?$AA?$AA@
CONST	SEGMENT
??_C@_1BG@FBJEKONN@?$AAx?$AAy?$AAz?$AA_?$AAt?$AAi?$AAl?$AAe?$AA_?$AAy?$AA?$AA@ DB 'x'
	DB	00H, 'y', 00H, 'z', 00H, '_', 00H, 't', 00H, 'i', 00H, 'l', 00H
	DB	'e', 00H, '_', 00H, 'y', 00H, 00H, 00H	; `string'
CONST	ENDS
;	COMDAT ??_C@_1BG@EDCBABDD@?$AAx?$AAy?$AAz?$AA_?$AAt?$AAi?$AAl?$AAe?$AA_?$AAz?$AA?$AA@
CONST	SEGMENT
??_C@_1BG@EDCBABDD@?$AAx?$AAy?$AAz?$AA_?$AAt?$AAi?$AAl?$AAe?$AA_?$AAz?$AA?$AA@ DB 'x'
	DB	00H, 'y', 00H, 'z', 00H, '_', 00H, 't', 00H, 'i', 00H, 'l', 00H
	DB	'e', 00H, '_', 00H, 'z', 00H, 00H, 00H	; `string'
CONST	ENDS
;	COMDAT ??_C@_19HFHNPJHA@?$AAs?$AAe?$AAe?$AAd?$AA?$AA@
CONST	SEGMENT
??_C@_19HFHNPJHA@?$AAs?$AAe?$AAe?$AAd?$AA?$AA@ DB 's', 00H, 'e', 00H, 'e', 00H
	DB	'd', 00H, 00H, 00H				; `string'
CONST	ENDS
;	COMDAT ??_C@_1BE@DCGEPHFM@?$AAr?$AAa?$AAn?$AAd?$AAB?$AAy?$AAM?$AAa?$AAt?$AA?$AA@
CONST	SEGMENT
??_C@_1BE@DCGEPHFM@?$AAr?$AAa?$AAn?$AAd?$AAB?$AAy?$AAM?$AAa?$AAt?$AA?$AA@ DB 'r'
	DB	00H, 'a', 00H, 'n', 00H, 'd', 00H, 'B', 00H, 'y', 00H, 'M', 00H
	DB	'a', 00H, 't', 00H, 00H, 00H			; `string'
CONST	ENDS
;	COMDAT ??_C@_1BE@EGBDKCCD@?$AAr?$AAa?$AAn?$AAd?$AAB?$AAy?$AAO?$AAb?$AAj?$AA?$AA@
CONST	SEGMENT
??_C@_1BE@EGBDKCCD@?$AAr?$AAa?$AAn?$AAd?$AAB?$AAy?$AAO?$AAb?$AAj?$AA?$AA@ DB 'r'
	DB	00H, 'a', 00H, 'n', 00H, 'd', 00H, 'B', 00H, 'y', 00H, 'O', 00H
	DB	'b', 00H, 'j', 00H, 00H, 00H			; `string'
CONST	ENDS
;	COMDAT ??_C@_1BE@PALBIMHK@?$AAr?$AAa?$AAn?$AAd?$AAB?$AAy?$AAP?$AAa?$AAr?$AA?$AA@
CONST	SEGMENT
??_C@_1BE@PALBIMHK@?$AAr?$AAa?$AAn?$AAd?$AAB?$AAy?$AAP?$AAa?$AAr?$AA?$AA@ DB 'r'
	DB	00H, 'a', 00H, 'n', 00H, 'd', 00H, 'B', 00H, 'y', 00H, 'P', 00H
	DB	'a', 00H, 'r', 00H, 00H, 00H			; `string'
CONST	ENDS
;	COMDAT ??_C@_1BM@EKFGEOII@?$AAx?$AAy?$AAz?$AA_?$AAo?$AAf?$AAf?$AAs?$AAe?$AAt?$AA_?$AAx?$AA2?$AA?$AA@
CONST	SEGMENT
??_C@_1BM@EKFGEOII@?$AAx?$AAy?$AAz?$AA_?$AAo?$AAf?$AAf?$AAs?$AAe?$AAt?$AA_?$AAx?$AA2?$AA?$AA@ DB 'x'
	DB	00H, 'y', 00H, 'z', 00H, '_', 00H, 'o', 00H, 'f', 00H, 'f', 00H
	DB	's', 00H, 'e', 00H, 't', 00H, '_', 00H, 'x', 00H, '2', 00H, 00H
	DB	00H						; `string'
CONST	ENDS
;	COMDAT ??_C@_1BM@IBAKJNCN@?$AAx?$AAy?$AAz?$AA_?$AAo?$AAf?$AAf?$AAs?$AAe?$AAt?$AA_?$AAy?$AA2?$AA?$AA@
CONST	SEGMENT
??_C@_1BM@IBAKJNCN@?$AAx?$AAy?$AAz?$AA_?$AAo?$AAf?$AAf?$AAs?$AAe?$AAt?$AA_?$AAy?$AA2?$AA?$AA@ DB 'x'
	DB	00H, 'y', 00H, 'z', 00H, '_', 00H, 'o', 00H, 'f', 00H, 'f', 00H
	DB	's', 00H, 'e', 00H, 't', 00H, '_', 00H, 'y', 00H, '2', 00H, 00H
	DB	00H						; `string'
CONST	ENDS
;	COMDAT ??_C@_1BM@HJOOPID@?$AAx?$AAy?$AAz?$AA_?$AAo?$AAf?$AAf?$AAs?$AAe?$AAt?$AA_?$AAz?$AA2?$AA?$AA@
CONST	SEGMENT
??_C@_1BM@HJOOPID@?$AAx?$AAy?$AAz?$AA_?$AAo?$AAf?$AAf?$AAs?$AAe?$AAt?$AA_?$AAz?$AA2?$AA?$AA@ DB 'x'
	DB	00H, 'y', 00H, 'z', 00H, '_', 00H, 'o', 00H, 'f', 00H, 'f', 00H
	DB	's', 00H, 'e', 00H, 't', 00H, '_', 00H, 'z', 00H, '2', 00H, 00H
	DB	00H						; `string'
CONST	ENDS
;	COMDAT ??_C@_1BI@IKFKDHMP@?$AAx?$AAy?$AAz?$AA_?$AAs?$AAi?$AAz?$AAe?$AA_?$AAx?$AA2?$AA?$AA@
CONST	SEGMENT
??_C@_1BI@IKFKDHMP@?$AAx?$AAy?$AAz?$AA_?$AAs?$AAi?$AAz?$AAe?$AA_?$AAx?$AA2?$AA?$AA@ DB 'x'
	DB	00H, 'y', 00H, 'z', 00H, '_', 00H, 's', 00H, 'i', 00H, 'z', 00H
	DB	'e', 00H, '_', 00H, 'x', 00H, '2', 00H, 00H, 00H ; `string'
CONST	ENDS
;	COMDAT ??_C@_1BI@EBAGOEGK@?$AAx?$AAy?$AAz?$AA_?$AAs?$AAi?$AAz?$AAe?$AA_?$AAy?$AA2?$AA?$AA@
CONST	SEGMENT
??_C@_1BI@EBAGOEGK@?$AAx?$AAy?$AAz?$AA_?$AAs?$AAi?$AAz?$AAe?$AA_?$AAy?$AA2?$AA?$AA@ DB 'x'
	DB	00H, 'y', 00H, 'z', 00H, '_', 00H, 's', 00H, 'i', 00H, 'z', 00H
	DB	'e', 00H, '_', 00H, 'y', 00H, '2', 00H, 00H, 00H ; `string'
CONST	ENDS
;	COMDAT ??_C@_1BI@MHJCJGME@?$AAx?$AAy?$AAz?$AA_?$AAs?$AAi?$AAz?$AAe?$AA_?$AAz?$AA2?$AA?$AA@
CONST	SEGMENT
??_C@_1BI@MHJCJGME@?$AAx?$AAy?$AAz?$AA_?$AAs?$AAi?$AAz?$AAe?$AA_?$AAz?$AA2?$AA?$AA@ DB 'x'
	DB	00H, 'y', 00H, 'z', 00H, '_', 00H, 's', 00H, 'i', 00H, 'z', 00H
	DB	'e', 00H, '_', 00H, 'z', 00H, '2', 00H, 00H, 00H ; `string'
CONST	ENDS
;	COMDAT ??_C@_1BK@BGDDDNAC@?$AAx?$AAy?$AAz?$AA_?$AAa?$AAn?$AAg?$AAl?$AAe?$AA_?$AAx?$AA2?$AA?$AA@
CONST	SEGMENT
??_C@_1BK@BGDDDNAC@?$AAx?$AAy?$AAz?$AA_?$AAa?$AAn?$AAg?$AAl?$AAe?$AA_?$AAx?$AA2?$AA?$AA@ DB 'x'
	DB	00H, 'y', 00H, 'z', 00H, '_', 00H, 'a', 00H, 'n', 00H, 'g', 00H
	DB	'l', 00H, 'e', 00H, '_', 00H, 'x', 00H, '2', 00H, 00H, 00H ; `string'
CONST	ENDS
;	COMDAT ??_C@_1BK@NNGPOOKH@?$AAx?$AAy?$AAz?$AA_?$AAa?$AAn?$AAg?$AAl?$AAe?$AA_?$AAy?$AA2?$AA?$AA@
CONST	SEGMENT
??_C@_1BK@NNGPOOKH@?$AAx?$AAy?$AAz?$AA_?$AAa?$AAn?$AAg?$AAl?$AAe?$AA_?$AAy?$AA2?$AA?$AA@ DB 'x'
	DB	00H, 'y', 00H, 'z', 00H, '_', 00H, 'a', 00H, 'n', 00H, 'g', 00H
	DB	'l', 00H, 'e', 00H, '_', 00H, 'y', 00H, '2', 00H, 00H, 00H ; `string'
CONST	ENDS
;	COMDAT ??_C@_1BK@FLPLJMAJ@?$AAx?$AAy?$AAz?$AA_?$AAa?$AAn?$AAg?$AAl?$AAe?$AA_?$AAz?$AA2?$AA?$AA@
CONST	SEGMENT
??_C@_1BK@FLPLJMAJ@?$AAx?$AAy?$AAz?$AA_?$AAa?$AAn?$AAg?$AAl?$AAe?$AA_?$AAz?$AA2?$AA?$AA@ DB 'x'
	DB	00H, 'y', 00H, 'z', 00H, '_', 00H, 'a', 00H, 'n', 00H, 'g', 00H
	DB	'l', 00H, 'e', 00H, '_', 00H, 'z', 00H, '2', 00H, 00H, 00H ; `string'
CONST	ENDS
;	COMDAT ??_C@_1BC@JCCAEAIN@?$AAx?$AAy?$AAz?$AA_?$AAl?$AAo?$AAc?$AAk?$AA?$AA@
CONST	SEGMENT
??_C@_1BC@JCCAEAIN@?$AAx?$AAy?$AAz?$AA_?$AAl?$AAo?$AAc?$AAk?$AA?$AA@ DB 'x'
	DB	00H, 'y', 00H, 'z', 00H, '_', 00H, 'l', 00H, 'o', 00H, 'c', 00H
	DB	'k', 00H, 00H, 00H				; `string'
CONST	ENDS
;	COMDAT ??_C@_1BM@LCALCDFD@?$AAx?$AAy?$AAz?$AA_?$AAf?$AAi?$AAl?$AAt?$AAe?$AAr?$AAi?$AAn?$AAg?$AA?$AA@
CONST	SEGMENT
??_C@_1BM@LCALCDFD@?$AAx?$AAy?$AAz?$AA_?$AAf?$AAi?$AAl?$AAt?$AAe?$AAr?$AAi?$AAn?$AAg?$AA?$AA@ DB 'x'
	DB	00H, 'y', 00H, 'z', 00H, '_', 00H, 'f', 00H, 'i', 00H, 'l', 00H
	DB	't', 00H, 'e', 00H, 'r', 00H, 'i', 00H, 'n', 00H, 'g', 00H, 00H
	DB	00H						; `string'
CONST	ENDS
;	COMDAT ??_7XYZ_Desc@@6B@
CONST	SEGMENT
??_7XYZ_Desc@@6B@ DQ FLAT:??_R4XYZ_Desc@@6B@		; XYZ_Desc::`vftable'
	DQ	FLAT:??_EXYZ_Desc@@UEAAPEAXI@Z
	DQ	FLAT:?GetInterface@BaseInterfaceServer@@UEAAPEAVBaseInterface@@VInterface_ID@@@Z
	DQ	FLAT:?NumInterfaces@BaseInterfaceServer@@UEBAHXZ
	DQ	FLAT:?GetInterfaceAt@BaseInterfaceServer@@UEBAPEAVBaseInterface@@H@Z
CONST	ENDS
;	COMDAT ??_7ResourceMakerCallback@@6B@
CONST	SEGMENT
??_7ResourceMakerCallback@@6B@ DQ FLAT:??_R4ResourceMakerCallback@@6B@ ; ResourceMakerCallback::`vftable'
	DQ	FLAT:?SetCustomImageList@ResourceMakerCallback@@UEAAHAEAPEAU_IMAGELIST@@PEAVICurveCtl@@@Z
	DQ	FLAT:?GetToolTip@ResourceMakerCallback@@UEAAHHAEAVWStr@@PEAVICurveCtl@@@Z
	DQ	FLAT:?ResetCallback@ResourceMakerCallback@@UEAAXHPEAVICurveCtl@@@Z
	DQ	FLAT:?NewCurveCreatedCallback@ResourceMakerCallback@@UEAAXHPEAVICurveCtl@@@Z
	DQ	FLAT:?GetInterface@ResourceMakerCallback@@UEAAPEAXK@Z
CONST	ENDS
;	COMDAT _CT??_R0?AVMaxHeapOperators@@@818
xdata$x	SEGMENT
_CT??_R0?AVMaxHeapOperators@@@818 DD 00H
	DD	imagerel ??_R0?AVMaxHeapOperators@@@8
	DD	08H
	DD	0ffffffffH
	DD	00H
	DD	01H
	DD	00H
xdata$x	ENDS
;	COMDAT ??_R0?AVMaxHeapOperators@@@8
data$r	SEGMENT
??_R0?AVMaxHeapOperators@@@8 DQ FLAT:??_7type_info@@6B@	; MaxHeapOperators `RTTI Type Descriptor'
	DQ	0000000000000000H
	DB	'.?AVMaxHeapOperators@@', 00H
data$r	ENDS
;	COMDAT ??_7ParamMap2UserDlgProc@@6B@
CONST	SEGMENT
??_7ParamMap2UserDlgProc@@6B@ DQ FLAT:??_R4ParamMap2UserDlgProc@@6B@ ; ParamMap2UserDlgProc::`vftable'
	DQ	FLAT:??_EParamMap2UserDlgProc@@UEAAPEAXI@Z
	DQ	FLAT:_purecall
	DQ	FLAT:_purecall
	DQ	FLAT:?SetThing@ParamMap2UserDlgProc@@UEAAXPEAVReferenceTarget@@@Z
	DQ	FLAT:?Update@ParamMap2UserDlgProc@@UEAAXHAEAVInterval@@PEAVIParamMap2@@@Z
	DQ	FLAT:?Update@ParamMap2UserDlgProc@@UEAAXH@Z
	DQ	FLAT:?SetParamBlock@ParamMap2UserDlgProc@@UEAAXPEAVIParamBlock2@@@Z
CONST	ENDS
;	COMDAT ??_R0?AVClassDesc2@@@8
data$r	SEGMENT
??_R0?AVClassDesc2@@@8 DQ FLAT:??_7type_info@@6B@	; ClassDesc2 `RTTI Type Descriptor'
	DQ	0000000000000000H
	DB	'.?AVClassDesc2@@', 00H
data$r	ENDS
;	COMDAT ??_C@_1EK@FOLBONAG@?$AAM?$AAa?$AAx?$AAS?$AAD?$AAK?$AA?3?$AA?3?$AAU?$AAt?$AAi?$AAl?$AA?3?$AA?3?$AAT?$AAa?$AAb?$AAO?$AAu?$AAt?$AAO?$AAf?$AAR?$AAa?$AAn?$AAg?$AAe?$AAE?$AAx?$AAc?$AAe?$AAp@
CONST	SEGMENT
??_C@_1EK@FOLBONAG@?$AAM?$AAa?$AAx?$AAS?$AAD?$AAK?$AA?3?$AA?3?$AAU?$AAt?$AAi?$AAl?$AA?3?$AA?3?$AAT?$AAa?$AAb?$AAO?$AAu?$AAt?$AAO?$AAf?$AAR?$AAa?$AAn?$AAg?$AAe?$AAE?$AAx?$AAc?$AAe?$AAp@ DB 'M'
	DB	00H, 'a', 00H, 'x', 00H, 'S', 00H, 'D', 00H, 'K', 00H, ':', 00H
	DB	':', 00H, 'U', 00H, 't', 00H, 'i', 00H, 'l', 00H, ':', 00H, ':'
	DB	00H, 'T', 00H, 'a', 00H, 'b', 00H, 'O', 00H, 'u', 00H, 't', 00H
	DB	'O', 00H, 'f', 00H, 'R', 00H, 'a', 00H, 'n', 00H, 'g', 00H, 'e'
	DB	00H, 'E', 00H, 'x', 00H, 'c', 00H, 'e', 00H, 'p', 00H, 't', 00H
	DB	'i', 00H, 'o', 00H, 'n', 00H, 00H, 00H	; `string'
CONST	ENDS
;	COMDAT ??_7TabOutOfRangeException@Util@MaxSDK@@6B@
CONST	SEGMENT
??_7TabOutOfRangeException@Util@MaxSDK@@6B@ DQ FLAT:??_R4TabOutOfRangeException@Util@MaxSDK@@6B@ ; MaxSDK::Util::TabOutOfRangeException::`vftable'
	DQ	FLAT:??_ETabOutOfRangeException@Util@MaxSDK@@UEAAPEAXI@Z
	DQ	FLAT:?What@TabOutOfRangeException@Util@MaxSDK@@UEBAPEB_WXZ
CONST	ENDS
;	COMDAT xdata
xdata	SEGMENT
$unwind$??__Ewhite@@YAXXZ DD 010401H
	DD	06204H
xdata	ENDS
;	COMDAT xdata
xdata	SEGMENT
$unwind$??__Eblack@@YAXXZ DD 010401H
	DD	06204H
xdata	ENDS
;	COMDAT xdata
xdata	SEGMENT
$unwind$??_GBerconNoiseDlgProc@@UEAAPEAXI@Z DD 010d01H
	DD	0420dH
xdata	ENDS
;	COMDAT xdata
xdata	SEGMENT
$unwind$?__autoclassinit2@BerconNoiseDlgProc@@QEAAX_K@Z DD 010b01H
	DD	0700bH
xdata	ENDS
;	COMDAT xdata
xdata	SEGMENT
$unwind$?SetThing@BerconNoiseDlgProc@@UEAAXPEAVReferenceTarget@@@Z DD 010e01H
	DD	0420eH
xdata	ENDS
;	COMDAT xdata
xdata	SEGMENT
$unwind$?DeleteThis@BerconNoiseDlgProc@@UEAAXXZ DD 010901H
	DD	08209H
xdata	ENDS
;	COMDAT xdata
xdata	SEGMENT
$unwind$?DlgProc@BerconNoiseDlgProc@@UEAA_JHPEAVIParamMap2@@PEAUHWND__@@I_K_J@Z DD 022c19H
	DD	01b011aH
	DD	imagerel __GSHandlerCheck
	DD	0c8H
xdata	ENDS
;	COMDAT xdata
xdata	SEGMENT
$unwind$?dtor$0@?0???0BerconNoiseDlgProc@@QEAA@PEAVBerconNoise@@@Z@4HA DD 020601H
	DD	050023206H
xdata	ENDS
;	COMDAT xdata
xdata	SEGMENT
$ip2state$??0BerconNoiseDlgProc@@QEAA@PEAVBerconNoise@@@Z DD imagerel ??0BerconNoiseDlgProc@@QEAA@PEAVBerconNoise@@@Z
	DD	0ffffffffH
	DD	imagerel ??0BerconNoiseDlgProc@@QEAA@PEAVBerconNoise@@@Z+34
	DD	00H
	DD	imagerel ??0BerconNoiseDlgProc@@QEAA@PEAVBerconNoise@@@Z+63
	DD	0ffffffffH
xdata	ENDS
;	COMDAT xdata
xdata	SEGMENT
$stateUnwindMap$??0BerconNoiseDlgProc@@QEAA@PEAVBerconNoise@@@Z DD 0ffffffffH
	DD	imagerel ?dtor$0@?0???0BerconNoiseDlgProc@@QEAA@PEAVBerconNoise@@@Z@4HA
xdata	ENDS
;	COMDAT CONST
CONST	SEGMENT
$cppxdata$??0BerconNoiseDlgProc@@QEAA@PEAVBerconNoise@@@Z DD 019930522H
	DD	01H
	DD	imagerel $stateUnwindMap$??0BerconNoiseDlgProc@@QEAA@PEAVBerconNoise@@@Z
	DD	00H
	DD	00H
	DD	03H
	DD	imagerel $ip2state$??0BerconNoiseDlgProc@@QEAA@PEAVBerconNoise@@@Z
	DD	020H
	DD	00H
	DD	00H
CONST	ENDS
;	COMDAT xdata
xdata	SEGMENT
$unwind$??0BerconNoiseDlgProc@@QEAA@PEAVBerconNoise@@@Z DD 011711H
	DD	0620eH
	DD	imagerel __CxxFrameHandler3
	DD	imagerel $cppxdata$??0BerconNoiseDlgProc@@QEAA@PEAVBerconNoise@@@Z
xdata	ENDS
;	COMDAT xdata
xdata	SEGMENT
$unwind$?dtor$0@?0???1BerconNoiseDlgProc@@UEAA@XZ@4HA DD 020601H
	DD	050023206H
xdata	ENDS
;	COMDAT xdata
xdata	SEGMENT
$ip2state$??1BerconNoiseDlgProc@@UEAA@XZ DD imagerel ??1BerconNoiseDlgProc@@UEAA@XZ
	DD	0ffffffffH
xdata	ENDS
;	COMDAT xdata
xdata	SEGMENT
$stateUnwindMap$??1BerconNoiseDlgProc@@UEAA@XZ DD 0ffffffffH
	DD	imagerel ?dtor$0@?0???1BerconNoiseDlgProc@@UEAA@XZ@4HA
xdata	ENDS
;	COMDAT CONST
CONST	SEGMENT
$cppxdata$??1BerconNoiseDlgProc@@UEAA@XZ DD 019930522H
	DD	01H
	DD	imagerel $stateUnwindMap$??1BerconNoiseDlgProc@@UEAA@XZ
	DD	00H
	DD	00H
	DD	01H
	DD	imagerel $ip2state$??1BerconNoiseDlgProc@@UEAA@XZ
	DD	020H
	DD	00H
	DD	04H
CONST	ENDS
;	COMDAT xdata
xdata	SEGMENT
$unwind$??1BerconNoiseDlgProc@@UEAA@XZ DD 011211H
	DD	06209H
	DD	imagerel __CxxFrameHandler3
	DD	imagerel $cppxdata$??1BerconNoiseDlgProc@@UEAA@XZ
xdata	ENDS
;	COMDAT xdata
xdata	SEGMENT
$unwind$??_GBerconCurveDlgProcNOISE@@UEAAPEAXI@Z DD 010d01H
	DD	0420dH
xdata	ENDS
;	COMDAT xdata
xdata	SEGMENT
$unwind$?__autoclassinit2@BerconCurveDlgProcNOISE@@QEAAX_K@Z DD 010b01H
	DD	0700bH
xdata	ENDS
;	COMDAT xdata
xdata	SEGMENT
$unwind$?SetThing@BerconCurveDlgProcNOISE@@UEAAXPEAVReferenceTarget@@@Z DD 010e01H
	DD	0420eH
xdata	ENDS
;	COMDAT xdata
xdata	SEGMENT
$unwind$?DeleteThis@BerconCurveDlgProcNOISE@@UEAAXXZ DD 010901H
	DD	08209H
xdata	ENDS
;	COMDAT xdata
xdata	SEGMENT
$unwind$?DlgProc@BerconCurveDlgProcNOISE@@UEAA_JHPEAVIParamMap2@@PEAUHWND__@@I_K_J@Z DD 011701H
	DD	06217H
xdata	ENDS
;	COMDAT xdata
xdata	SEGMENT
$unwind$?dtor$0@?0???0BerconCurveDlgProcNOISE@@QEAA@PEAVBerconNoise@@@Z@4HA DD 020601H
	DD	050023206H
xdata	ENDS
;	COMDAT xdata
xdata	SEGMENT
$ip2state$??0BerconCurveDlgProcNOISE@@QEAA@PEAVBerconNoise@@@Z DD imagerel ??0BerconCurveDlgProcNOISE@@QEAA@PEAVBerconNoise@@@Z
	DD	0ffffffffH
	DD	imagerel ??0BerconCurveDlgProcNOISE@@QEAA@PEAVBerconNoise@@@Z+34
	DD	00H
	DD	imagerel ??0BerconCurveDlgProcNOISE@@QEAA@PEAVBerconNoise@@@Z+63
	DD	0ffffffffH
xdata	ENDS
;	COMDAT xdata
xdata	SEGMENT
$stateUnwindMap$??0BerconCurveDlgProcNOISE@@QEAA@PEAVBerconNoise@@@Z DD 0ffffffffH
	DD	imagerel ?dtor$0@?0???0BerconCurveDlgProcNOISE@@QEAA@PEAVBerconNoise@@@Z@4HA
xdata	ENDS
;	COMDAT CONST
CONST	SEGMENT
$cppxdata$??0BerconCurveDlgProcNOISE@@QEAA@PEAVBerconNoise@@@Z DD 019930522H
	DD	01H
	DD	imagerel $stateUnwindMap$??0BerconCurveDlgProcNOISE@@QEAA@PEAVBerconNoise@@@Z
	DD	00H
	DD	00H
	DD	03H
	DD	imagerel $ip2state$??0BerconCurveDlgProcNOISE@@QEAA@PEAVBerconNoise@@@Z
	DD	020H
	DD	00H
	DD	00H
CONST	ENDS
;	COMDAT xdata
xdata	SEGMENT
$unwind$??0BerconCurveDlgProcNOISE@@QEAA@PEAVBerconNoise@@@Z DD 011711H
	DD	0620eH
	DD	imagerel __CxxFrameHandler3
	DD	imagerel $cppxdata$??0BerconCurveDlgProcNOISE@@QEAA@PEAVBerconNoise@@@Z
xdata	ENDS
;	COMDAT xdata
xdata	SEGMENT
$unwind$?dtor$0@?0???1BerconCurveDlgProcNOISE@@UEAA@XZ@4HA DD 020601H
	DD	050023206H
xdata	ENDS
;	COMDAT xdata
xdata	SEGMENT
$ip2state$??1BerconCurveDlgProcNOISE@@UEAA@XZ DD imagerel ??1BerconCurveDlgProcNOISE@@UEAA@XZ
	DD	0ffffffffH
xdata	ENDS
;	COMDAT xdata
xdata	SEGMENT
$stateUnwindMap$??1BerconCurveDlgProcNOISE@@UEAA@XZ DD 0ffffffffH
	DD	imagerel ?dtor$0@?0???1BerconCurveDlgProcNOISE@@UEAA@XZ@4HA
xdata	ENDS
;	COMDAT CONST
CONST	SEGMENT
$cppxdata$??1BerconCurveDlgProcNOISE@@UEAA@XZ DD 019930522H
	DD	01H
	DD	imagerel $stateUnwindMap$??1BerconCurveDlgProcNOISE@@UEAA@XZ
	DD	00H
	DD	00H
	DD	01H
	DD	imagerel $ip2state$??1BerconCurveDlgProcNOISE@@UEAA@XZ
	DD	020H
	DD	00H
	DD	04H
CONST	ENDS
;	COMDAT xdata
xdata	SEGMENT
$unwind$??1BerconCurveDlgProcNOISE@@UEAA@XZ DD 011211H
	DD	06209H
	DD	imagerel __CxxFrameHandler3
	DD	imagerel $cppxdata$??1BerconCurveDlgProcNOISE@@UEAA@XZ
xdata	ENDS
;	COMDAT xdata
xdata	SEGMENT
$unwind$??__FBerconMap_param_blk@@YAXXZ DD 010401H
	DD	04204H
xdata	ENDS
;	COMDAT xdata
xdata	SEGMENT
$unwind$??__EBerconMap_param_blk@@YAXXZ DD 020701H
	DD	015f0107H
xdata	ENDS
;	COMDAT xdata
xdata	SEGMENT
$unwind$??__FBerconCurve_param_blk@@YAXXZ DD 010401H
	DD	04204H
xdata	ENDS
;	COMDAT xdata
xdata	SEGMENT
$unwind$??__EBerconCurve_param_blk@@YAXXZ DD 020701H
	DD	0210107H
xdata	ENDS
;	COMDAT xdata
xdata	SEGMENT
$unwind$??__Fberconnoise_param_blk@@YAXXZ DD 010401H
	DD	04204H
xdata	ENDS
;	COMDAT xdata
xdata	SEGMENT
$unwind$??__Eberconnoise_param_blk@@YAXXZ DD 040a01H
	DD	01b9010aH
	DD	060027003H
xdata	ENDS
;	COMDAT xdata
xdata	SEGMENT
$unwind$??__Fxyz_blk@@YAXXZ DD 010401H
	DD	04204H
xdata	ENDS
;	COMDAT xdata
xdata	SEGMENT
$unwind$??__Exyz_blk@@YAXXZ DD 010401H
	DD	0a204H
xdata	ENDS
;	COMDAT xdata
xdata	SEGMENT
$unwind$??__FBerconNoiseDesc@@YAXXZ DD 010401H
	DD	04204H
xdata	ENDS
;	COMDAT xdata
xdata	SEGMENT
$unwind$??__EBerconNoiseDesc@@YAXXZ DD 010401H
	DD	04204H
xdata	ENDS
;	COMDAT xdata
xdata	SEGMENT
$unwind$??_GBerconNoiseClassDesc@@UEAAPEAXI@Z DD 010d01H
	DD	0420dH
xdata	ENDS
;	COMDAT xdata
xdata	SEGMENT
$unwind$?__autoclassinit2@BerconNoiseClassDesc@@QEAAX_K@Z DD 010b01H
	DD	0700bH
xdata	ENDS
;	COMDAT xdata
xdata	SEGMENT
$unwind$?ClassID@BerconNoiseClassDesc@@UEAA?AVClass_ID@@XZ DD 010e01H
	DD	0420eH
xdata	ENDS
;	COMDAT xdata
xdata	SEGMENT
$unwind$?ClassName@BerconNoiseClassDesc@@UEAAPEB_WXZ DD 010901H
	DD	04209H
xdata	ENDS
;	COMDAT xdata
xdata	SEGMENT
$unwind$?dtor$0@?0??Create@BerconNoiseClassDesc@@UEAAPEAXH@Z@4HA DD 020601H
	DD	050023206H
xdata	ENDS
;	COMDAT xdata
xdata	SEGMENT
$ip2state$?Create@BerconNoiseClassDesc@@UEAAPEAXH@Z DD imagerel ?Create@BerconNoiseClassDesc@@UEAAPEAXH@Z
	DD	0ffffffffH
	DD	imagerel ?Create@BerconNoiseClassDesc@@UEAAPEAXH@Z+38
	DD	00H
	DD	imagerel ?Create@BerconNoiseClassDesc@@UEAAPEAXH@Z+97
	DD	0ffffffffH
xdata	ENDS
;	COMDAT xdata
xdata	SEGMENT
$stateUnwindMap$?Create@BerconNoiseClassDesc@@UEAAPEAXH@Z DD 0ffffffffH
	DD	imagerel ?dtor$0@?0??Create@BerconNoiseClassDesc@@UEAAPEAXH@Z@4HA
xdata	ENDS
;	COMDAT CONST
CONST	SEGMENT
$cppxdata$?Create@BerconNoiseClassDesc@@UEAAPEAXH@Z DD 019930522H
	DD	01H
	DD	imagerel $stateUnwindMap$?Create@BerconNoiseClassDesc@@UEAAPEAXH@Z
	DD	00H
	DD	00H
	DD	03H
	DD	imagerel $ip2state$?Create@BerconNoiseClassDesc@@UEAAPEAXH@Z
	DD	038H
	DD	00H
	DD	00H
CONST	ENDS
;	COMDAT xdata
xdata	SEGMENT
$unwind$?Create@BerconNoiseClassDesc@@UEAAPEAXH@Z DD 011611H
	DD	0820dH
	DD	imagerel __CxxFrameHandler3
	DD	imagerel $cppxdata$?Create@BerconNoiseClassDesc@@UEAAPEAXH@Z
xdata	ENDS
;	COMDAT xdata
xdata	SEGMENT
$unwind$?dtor$0@?0???1BerconNoiseClassDesc@@UEAA@XZ@4HA DD 020601H
	DD	050023206H
xdata	ENDS
;	COMDAT xdata
xdata	SEGMENT
$ip2state$??1BerconNoiseClassDesc@@UEAA@XZ DD imagerel ??1BerconNoiseClassDesc@@UEAA@XZ
	DD	0ffffffffH
xdata	ENDS
;	COMDAT xdata
xdata	SEGMENT
$stateUnwindMap$??1BerconNoiseClassDesc@@UEAA@XZ DD 0ffffffffH
	DD	imagerel ?dtor$0@?0???1BerconNoiseClassDesc@@UEAA@XZ@4HA
xdata	ENDS
;	COMDAT CONST
CONST	SEGMENT
$cppxdata$??1BerconNoiseClassDesc@@UEAA@XZ DD 019930522H
	DD	01H
	DD	imagerel $stateUnwindMap$??1BerconNoiseClassDesc@@UEAA@XZ
	DD	00H
	DD	00H
	DD	01H
	DD	imagerel $ip2state$??1BerconNoiseClassDesc@@UEAA@XZ
	DD	020H
	DD	00H
	DD	04H
CONST	ENDS
;	COMDAT xdata
xdata	SEGMENT
$unwind$??1BerconNoiseClassDesc@@UEAA@XZ DD 011211H
	DD	06209H
	DD	imagerel __CxxFrameHandler3
	DD	imagerel $cppxdata$??1BerconNoiseClassDesc@@UEAA@XZ
xdata	ENDS
;	COMDAT xdata
xdata	SEGMENT
$unwind$?dtor$0@?0???0BerconNoiseClassDesc@@QEAA@XZ@4HA DD 020601H
	DD	050023206H
xdata	ENDS
;	COMDAT xdata
xdata	SEGMENT
$ip2state$??0BerconNoiseClassDesc@@QEAA@XZ DD imagerel ??0BerconNoiseClassDesc@@QEAA@XZ
	DD	0ffffffffH
	DD	imagerel ??0BerconNoiseClassDesc@@QEAA@XZ+30
	DD	00H
	DD	imagerel ??0BerconNoiseClassDesc@@QEAA@XZ+45
	DD	0ffffffffH
xdata	ENDS
;	COMDAT xdata
xdata	SEGMENT
$stateUnwindMap$??0BerconNoiseClassDesc@@QEAA@XZ DD 0ffffffffH
	DD	imagerel ?dtor$0@?0???0BerconNoiseClassDesc@@QEAA@XZ@4HA
xdata	ENDS
;	COMDAT CONST
CONST	SEGMENT
$cppxdata$??0BerconNoiseClassDesc@@QEAA@XZ DD 019930522H
	DD	01H
	DD	imagerel $stateUnwindMap$??0BerconNoiseClassDesc@@QEAA@XZ
	DD	00H
	DD	00H
	DD	03H
	DD	imagerel $ip2state$??0BerconNoiseClassDesc@@QEAA@XZ
	DD	020H
	DD	00H
	DD	00H
CONST	ENDS
;	COMDAT xdata
xdata	SEGMENT
$unwind$??0BerconNoiseClassDesc@@QEAA@XZ DD 011211H
	DD	06209H
	DD	imagerel __CxxFrameHandler3
	DD	imagerel $cppxdata$??0BerconNoiseClassDesc@@QEAA@XZ
xdata	ENDS
;	COMDAT xdata
xdata	SEGMENT
$unwind$??_GBerconNoise@@UEAAPEAXI@Z DD 010d01H
	DD	0420dH
xdata	ENDS
;	COMDAT xdata
xdata	SEGMENT
$unwind$?__autoclassinit2@BerconNoise@@QEAAX_K@Z DD 010b01H
	DD	0700bH
xdata	ENDS
;	COMDAT xdata
xdata	SEGMENT
$unwind$?GetInterface@BerconNoise@@UEAAPEAXK@Z DD 010d01H
	DD	0620dH
xdata	ENDS
;	COMDAT xdata
xdata	SEGMENT
$unwind$?dtor$0@?0???1BerconNoise@@UEAA@XZ@4HA DD 020601H
	DD	050023206H
xdata	ENDS
;	COMDAT xdata
xdata	SEGMENT
$ip2state$??1BerconNoise@@UEAA@XZ DD imagerel ??1BerconNoise@@UEAA@XZ
	DD	0ffffffffH
	DD	imagerel ??1BerconNoise@@UEAA@XZ+68
	DD	00H
	DD	imagerel ??1BerconNoise@@UEAA@XZ+79
	DD	0ffffffffH
xdata	ENDS
;	COMDAT xdata
xdata	SEGMENT
$stateUnwindMap$??1BerconNoise@@UEAA@XZ DD 0ffffffffH
	DD	imagerel ?dtor$0@?0???1BerconNoise@@UEAA@XZ@4HA
xdata	ENDS
;	COMDAT CONST
CONST	SEGMENT
$cppxdata$??1BerconNoise@@UEAA@XZ DD 019930522H
	DD	01H
	DD	imagerel $stateUnwindMap$??1BerconNoise@@UEAA@XZ
	DD	00H
	DD	00H
	DD	03H
	DD	imagerel $ip2state$??1BerconNoise@@UEAA@XZ
	DD	020H
	DD	00H
	DD	04H
CONST	ENDS
;	COMDAT xdata
xdata	SEGMENT
$unwind$??1BerconNoise@@UEAA@XZ DD 011219H
	DD	06209H
	DD	imagerel __CxxFrameHandler3
	DD	imagerel $cppxdata$??1BerconNoise@@UEAA@XZ
xdata	ENDS
;	COMDAT xdata
xdata	SEGMENT
$unwind$?dtor$0@?0???0BerconNoise@@QEAA@XZ@4HA DD 020601H
	DD	050023206H
xdata	ENDS
;	COMDAT xdata
xdata	SEGMENT
$ip2state$??0BerconNoise@@QEAA@XZ DD imagerel ??0BerconNoise@@QEAA@XZ
	DD	0ffffffffH
	DD	imagerel ??0BerconNoise@@QEAA@XZ+30
	DD	00H
	DD	imagerel ??0BerconNoise@@QEAA@XZ+385
	DD	0ffffffffH
xdata	ENDS
;	COMDAT xdata
xdata	SEGMENT
$stateUnwindMap$??0BerconNoise@@QEAA@XZ DD 0ffffffffH
	DD	imagerel ?dtor$0@?0???0BerconNoise@@QEAA@XZ@4HA
xdata	ENDS
;	COMDAT CONST
CONST	SEGMENT
$cppxdata$??0BerconNoise@@QEAA@XZ DD 019930522H
	DD	01H
	DD	imagerel $stateUnwindMap$??0BerconNoise@@QEAA@XZ
	DD	00H
	DD	00H
	DD	03H
	DD	imagerel $ip2state$??0BerconNoise@@QEAA@XZ
	DD	028H
	DD	00H
	DD	00H
CONST	ENDS
;	COMDAT xdata
xdata	SEGMENT
$unwind$??0BerconNoise@@QEAA@XZ DD 011211H
	DD	06209H
	DD	imagerel __CxxFrameHandler3
	DD	imagerel $cppxdata$??0BerconNoise@@QEAA@XZ
xdata	ENDS
;	COMDAT xdata
xdata	SEGMENT
$unwind$?DeleteThis@BerconNoise@@UEAAXXZ DD 010901H
	DD	08209H
xdata	ENDS
;	COMDAT xdata
xdata	SEGMENT
$unwind$?GetParamBlockByID@BerconNoise@@UEAAPEAVIParamBlock2@@F@Z DD 010e01H
	DD	0420eH
xdata	ENDS
;	COMDAT xdata
xdata	SEGMENT
$unwind$?GetParamBlock@BerconNoise@@UEAAPEAVIParamBlock2@@H@Z DD 010d01H
	DD	0220dH
xdata	ENDS
;	COMDAT xdata
xdata	SEGMENT
$unwind$?SetReference@BerconNoise@@UEAAXHPEAVReferenceTarget@@@Z DD 011201H
	DD	02212H
xdata	ENDS
;	COMDAT xdata
xdata	SEGMENT
$unwind$?GetReference@BerconNoise@@UEAAPEAVReferenceTarget@@H@Z DD 010d01H
	DD	0220dH
xdata	ENDS
;	COMDAT xdata
xdata	SEGMENT
$unwind$?dtor$0@?0??SubAnimName@BerconNoise@@UEAA?AVWStr@@H@Z@4HA DD 020601H
	DD	050023206H
xdata	ENDS
;	COMDAT xdata
xdata	SEGMENT
$ip2state$?SubAnimName@BerconNoise@@UEAA?AVWStr@@H@Z DD imagerel ?SubAnimName@BerconNoise@@UEAA?AVWStr@@H@Z
	DD	0ffffffffH
	DD	imagerel ?SubAnimName@BerconNoise@@UEAA?AVWStr@@H@Z+85
	DD	00H
	DD	imagerel ?SubAnimName@BerconNoise@@UEAA?AVWStr@@H@Z+87
	DD	0ffffffffH
	DD	imagerel ?SubAnimName@BerconNoise@@UEAA?AVWStr@@H@Z+112
	DD	00H
	DD	imagerel ?SubAnimName@BerconNoise@@UEAA?AVWStr@@H@Z+133
	DD	0ffffffffH
	DD	imagerel ?SubAnimName@BerconNoise@@UEAA?AVWStr@@H@Z+158
	DD	00H
	DD	imagerel ?SubAnimName@BerconNoise@@UEAA?AVWStr@@H@Z+179
	DD	0ffffffffH
	DD	imagerel ?SubAnimName@BerconNoise@@UEAA?AVWStr@@H@Z+204
	DD	00H
	DD	imagerel ?SubAnimName@BerconNoise@@UEAA?AVWStr@@H@Z+225
	DD	0ffffffffH
	DD	imagerel ?SubAnimName@BerconNoise@@UEAA?AVWStr@@H@Z+250
	DD	00H
	DD	imagerel ?SubAnimName@BerconNoise@@UEAA?AVWStr@@H@Z+271
	DD	0ffffffffH
	DD	imagerel ?SubAnimName@BerconNoise@@UEAA?AVWStr@@H@Z+296
	DD	00H
	DD	imagerel ?SubAnimName@BerconNoise@@UEAA?AVWStr@@H@Z+314
	DD	0ffffffffH
	DD	imagerel ?SubAnimName@BerconNoise@@UEAA?AVWStr@@H@Z+339
	DD	00H
	DD	imagerel ?SubAnimName@BerconNoise@@UEAA?AVWStr@@H@Z+357
	DD	0ffffffffH
	DD	imagerel ?SubAnimName@BerconNoise@@UEAA?AVWStr@@H@Z+388
	DD	00H
xdata	ENDS
;	COMDAT xdata
xdata	SEGMENT
$stateUnwindMap$?SubAnimName@BerconNoise@@UEAA?AVWStr@@H@Z DD 0ffffffffH
	DD	imagerel ?dtor$0@?0??SubAnimName@BerconNoise@@UEAA?AVWStr@@H@Z@4HA
xdata	ENDS
;	COMDAT CONST
CONST	SEGMENT
$cppxdata$?SubAnimName@BerconNoise@@UEAA?AVWStr@@H@Z DD 019930522H
	DD	01H
	DD	imagerel $stateUnwindMap$?SubAnimName@BerconNoise@@UEAA?AVWStr@@H@Z
	DD	00H
	DD	00H
	DD	010H
	DD	imagerel $ip2state$?SubAnimName@BerconNoise@@UEAA?AVWStr@@H@Z
	DD	028H
	DD	00H
	DD	00H
CONST	ENDS
;	COMDAT xdata
xdata	SEGMENT
$unwind$?SubAnimName@BerconNoise@@UEAA?AVWStr@@H@Z DD 011c11H
	DD	06213H
	DD	imagerel __CxxFrameHandler3
	DD	imagerel $cppxdata$?SubAnimName@BerconNoise@@UEAA?AVWStr@@H@Z
xdata	ENDS
;	COMDAT xdata
xdata	SEGMENT
$unwind$?SubAnim@BerconNoise@@UEAAPEAVAnimatable@@H@Z DD 010d01H
	DD	0220dH
xdata	ENDS
;	COMDAT xdata
xdata	SEGMENT
$unwind$?NotifyRefChanged@BerconNoise@@UEAA?AW4RefResult@@AEBVInterval@@PEAVReferenceTarget@@AEA_KIH@Z DD 011801H
	DD	06218H
xdata	ENDS
;	COMDAT xdata
xdata	SEGMENT
$unwind$?dtor$0@?0??Clone@BerconNoise@@UEAAPEAVReferenceTarget@@AEAVRemapDir@@@Z@4HA DD 020601H
	DD	050023206H
xdata	ENDS
;	COMDAT xdata
xdata	SEGMENT
$ip2state$?Clone@BerconNoise@@UEAAPEAVReferenceTarget@@AEAVRemapDir@@@Z DD imagerel ?Clone@BerconNoise@@UEAAPEAVReferenceTarget@@AEAVRemapDir@@@Z
	DD	0ffffffffH
	DD	imagerel ?Clone@BerconNoise@@UEAAPEAVReferenceTarget@@AEAVRemapDir@@@Z+39
	DD	00H
	DD	imagerel ?Clone@BerconNoise@@UEAAPEAVReferenceTarget@@AEAVRemapDir@@@Z+98
	DD	0ffffffffH
xdata	ENDS
;	COMDAT xdata
xdata	SEGMENT
$stateUnwindMap$?Clone@BerconNoise@@UEAAPEAVReferenceTarget@@AEAVRemapDir@@@Z DD 0ffffffffH
	DD	imagerel ?dtor$0@?0??Clone@BerconNoise@@UEAAPEAVReferenceTarget@@AEAVRemapDir@@@Z@4HA
xdata	ENDS
;	COMDAT CONST
CONST	SEGMENT
$cppxdata$?Clone@BerconNoise@@UEAAPEAVReferenceTarget@@AEAVRemapDir@@@Z DD 019930522H
	DD	01H
	DD	imagerel $stateUnwindMap$?Clone@BerconNoise@@UEAAPEAVReferenceTarget@@AEAVRemapDir@@@Z
	DD	00H
	DD	00H
	DD	03H
	DD	imagerel $ip2state$?Clone@BerconNoise@@UEAAPEAVReferenceTarget@@AEAVRemapDir@@@Z
	DD	050H
	DD	00H
	DD	00H
CONST	ENDS
;	COMDAT xdata
xdata	SEGMENT
$unwind$?Clone@BerconNoise@@UEAAPEAVReferenceTarget@@AEAVRemapDir@@@Z DD 011711H
	DD	0c20eH
	DD	imagerel __CxxFrameHandler3
	DD	imagerel $cppxdata$?Clone@BerconNoise@@UEAAPEAVReferenceTarget@@AEAVRemapDir@@@Z
xdata	ENDS
;	COMDAT xdata
xdata	SEGMENT
$unwind$?GetClassName@BerconNoise@@UEAAXAEAVWStr@@@Z DD 010e01H
	DD	0420eH
xdata	ENDS
;	COMDAT xdata
xdata	SEGMENT
$unwind$?ClassID@BerconNoise@@UEAA?AVClass_ID@@XZ DD 010e01H
	DD	0420eH
xdata	ENDS
;	COMDAT xdata
xdata	SEGMENT
$unwind$?EvalNormalPerturb@BerconNoise@@UEAA?AVPoint3@@AEAVShadeContext@@@Z DD 042a19H
	DD	0710118H
	DD	060107011H
	DD	imagerel __GSHandlerCheck
	DD	0378H
xdata	ENDS
;	COMDAT xdata
xdata	SEGMENT
$unwind$?EvalMono@BerconNoise@@UEAAMAEAVShadeContext@@@Z DD 010e01H
	DD	0620eH
xdata	ENDS
;	COMDAT xdata
xdata	SEGMENT
$unwind$?EvalColor@BerconNoise@@UEAA?AVAColor@@AEAVShadeContext@@@Z DD 042a19H
	DD	04f0118H
	DD	060107011H
	DD	imagerel __GSHandlerCheck
	DD	0260H
xdata	ENDS
;	COMDAT xdata
xdata	SEGMENT
$unwind$?dtor$0@?0??GetSubTexmapSlotName@BerconNoise@@UEAA?AVWStr@@H@Z@4HA DD 020601H
	DD	050023206H
xdata	ENDS
;	COMDAT xdata
xdata	SEGMENT
$ip2state$?GetSubTexmapSlotName@BerconNoise@@UEAA?AVWStr@@H@Z DD imagerel ?GetSubTexmapSlotName@BerconNoise@@UEAA?AVWStr@@H@Z
	DD	0ffffffffH
	DD	imagerel ?GetSubTexmapSlotName@BerconNoise@@UEAA?AVWStr@@H@Z+77
	DD	00H
	DD	imagerel ?GetSubTexmapSlotName@BerconNoise@@UEAA?AVWStr@@H@Z+79
	DD	0ffffffffH
	DD	imagerel ?GetSubTexmapSlotName@BerconNoise@@UEAA?AVWStr@@H@Z+104
	DD	00H
	DD	imagerel ?GetSubTexmapSlotName@BerconNoise@@UEAA?AVWStr@@H@Z+125
	DD	0ffffffffH
	DD	imagerel ?GetSubTexmapSlotName@BerconNoise@@UEAA?AVWStr@@H@Z+150
	DD	00H
	DD	imagerel ?GetSubTexmapSlotName@BerconNoise@@UEAA?AVWStr@@H@Z+171
	DD	0ffffffffH
	DD	imagerel ?GetSubTexmapSlotName@BerconNoise@@UEAA?AVWStr@@H@Z+196
	DD	00H
	DD	imagerel ?GetSubTexmapSlotName@BerconNoise@@UEAA?AVWStr@@H@Z+217
	DD	0ffffffffH
	DD	imagerel ?GetSubTexmapSlotName@BerconNoise@@UEAA?AVWStr@@H@Z+242
	DD	00H
	DD	imagerel ?GetSubTexmapSlotName@BerconNoise@@UEAA?AVWStr@@H@Z+263
	DD	0ffffffffH
	DD	imagerel ?GetSubTexmapSlotName@BerconNoise@@UEAA?AVWStr@@H@Z+288
	DD	00H
	DD	imagerel ?GetSubTexmapSlotName@BerconNoise@@UEAA?AVWStr@@H@Z+309
	DD	0ffffffffH
	DD	imagerel ?GetSubTexmapSlotName@BerconNoise@@UEAA?AVWStr@@H@Z+334
	DD	00H
	DD	imagerel ?GetSubTexmapSlotName@BerconNoise@@UEAA?AVWStr@@H@Z+355
	DD	0ffffffffH
	DD	imagerel ?GetSubTexmapSlotName@BerconNoise@@UEAA?AVWStr@@H@Z+380
	DD	00H
	DD	imagerel ?GetSubTexmapSlotName@BerconNoise@@UEAA?AVWStr@@H@Z+401
	DD	0ffffffffH
	DD	imagerel ?GetSubTexmapSlotName@BerconNoise@@UEAA?AVWStr@@H@Z+426
	DD	00H
	DD	imagerel ?GetSubTexmapSlotName@BerconNoise@@UEAA?AVWStr@@H@Z+447
	DD	0ffffffffH
	DD	imagerel ?GetSubTexmapSlotName@BerconNoise@@UEAA?AVWStr@@H@Z+472
	DD	00H
	DD	imagerel ?GetSubTexmapSlotName@BerconNoise@@UEAA?AVWStr@@H@Z+493
	DD	0ffffffffH
	DD	imagerel ?GetSubTexmapSlotName@BerconNoise@@UEAA?AVWStr@@H@Z+518
	DD	00H
	DD	imagerel ?GetSubTexmapSlotName@BerconNoise@@UEAA?AVWStr@@H@Z+539
	DD	0ffffffffH
	DD	imagerel ?GetSubTexmapSlotName@BerconNoise@@UEAA?AVWStr@@H@Z+564
	DD	00H
	DD	imagerel ?GetSubTexmapSlotName@BerconNoise@@UEAA?AVWStr@@H@Z+585
	DD	0ffffffffH
	DD	imagerel ?GetSubTexmapSlotName@BerconNoise@@UEAA?AVWStr@@H@Z+610
	DD	00H
	DD	imagerel ?GetSubTexmapSlotName@BerconNoise@@UEAA?AVWStr@@H@Z+631
	DD	0ffffffffH
	DD	imagerel ?GetSubTexmapSlotName@BerconNoise@@UEAA?AVWStr@@H@Z+656
	DD	00H
	DD	imagerel ?GetSubTexmapSlotName@BerconNoise@@UEAA?AVWStr@@H@Z+677
	DD	0ffffffffH
	DD	imagerel ?GetSubTexmapSlotName@BerconNoise@@UEAA?AVWStr@@H@Z+702
	DD	00H
	DD	imagerel ?GetSubTexmapSlotName@BerconNoise@@UEAA?AVWStr@@H@Z+723
	DD	0ffffffffH
	DD	imagerel ?GetSubTexmapSlotName@BerconNoise@@UEAA?AVWStr@@H@Z+748
	DD	00H
	DD	imagerel ?GetSubTexmapSlotName@BerconNoise@@UEAA?AVWStr@@H@Z+769
	DD	0ffffffffH
	DD	imagerel ?GetSubTexmapSlotName@BerconNoise@@UEAA?AVWStr@@H@Z+794
	DD	00H
	DD	imagerel ?GetSubTexmapSlotName@BerconNoise@@UEAA?AVWStr@@H@Z+812
	DD	0ffffffffH
	DD	imagerel ?GetSubTexmapSlotName@BerconNoise@@UEAA?AVWStr@@H@Z+837
	DD	00H
	DD	imagerel ?GetSubTexmapSlotName@BerconNoise@@UEAA?AVWStr@@H@Z+855
	DD	0ffffffffH
	DD	imagerel ?GetSubTexmapSlotName@BerconNoise@@UEAA?AVWStr@@H@Z+880
	DD	00H
	DD	imagerel ?GetSubTexmapSlotName@BerconNoise@@UEAA?AVWStr@@H@Z+898
	DD	0ffffffffH
	DD	imagerel ?GetSubTexmapSlotName@BerconNoise@@UEAA?AVWStr@@H@Z+917
	DD	00H
xdata	ENDS
;	COMDAT xdata
xdata	SEGMENT
$stateUnwindMap$?GetSubTexmapSlotName@BerconNoise@@UEAA?AVWStr@@H@Z DD 0ffffffffH
	DD	imagerel ?dtor$0@?0??GetSubTexmapSlotName@BerconNoise@@UEAA?AVWStr@@H@Z@4HA
xdata	ENDS
;	COMDAT CONST
CONST	SEGMENT
$cppxdata$?GetSubTexmapSlotName@BerconNoise@@UEAA?AVWStr@@H@Z DD 019930522H
	DD	01H
	DD	imagerel $stateUnwindMap$?GetSubTexmapSlotName@BerconNoise@@UEAA?AVWStr@@H@Z
	DD	00H
	DD	00H
	DD	028H
	DD	imagerel $ip2state$?GetSubTexmapSlotName@BerconNoise@@UEAA?AVWStr@@H@Z
	DD	028H
	DD	00H
	DD	00H
CONST	ENDS
;	COMDAT xdata
xdata	SEGMENT
$unwind$?GetSubTexmapSlotName@BerconNoise@@UEAA?AVWStr@@H@Z DD 011c11H
	DD	06213H
	DD	imagerel __CxxFrameHandler3
	DD	imagerel $cppxdata$?GetSubTexmapSlotName@BerconNoise@@UEAA?AVWStr@@H@Z
xdata	ENDS
;	COMDAT xdata
xdata	SEGMENT
$unwind$?SetSubTexmap@BerconNoise@@UEAAXHPEAVTexmap@@@Z DD 011201H
	DD	04212H
xdata	ENDS
;	COMDAT xdata
xdata	SEGMENT
$unwind$?MappingsRequired@BerconNoise@@UEAAXHAEAVBitArray@@0@Z DD 011701H
	DD	04217H
xdata	ENDS
;	COMDAT xdata
xdata	SEGMENT
$unwind$?LocalRequirements@BerconNoise@@UEAAKH@Z DD 010d01H
	DD	0420dH
xdata	ENDS
;	COMDAT xdata
xdata	SEGMENT
$unwind$?Validity@BerconNoise@@UEAA?AVInterval@@H@Z DD 012219H
	DD	06213H
	DD	imagerel __GSHandlerCheck
	DD	028H
xdata	ENDS
;	COMDAT xdata
xdata	SEGMENT
$unwind$?Reset@BerconNoise@@UEAAXXZ DD 020c01H
	DD	015010cH
xdata	ENDS
;	COMDAT xdata
xdata	SEGMENT
$unwind$?Update@BerconNoise@@UEAAXHAEAVInterval@@@Z DD 021501H
	DD	0410115H
xdata	ENDS
;	COMDAT xdata
xdata	SEGMENT
$unwind$?SetDlgThing@BerconNoise@@UEAAHPEAVParamDlg@@@Z DD 010e01H
	DD	0420eH
xdata	ENDS
;	COMDAT xdata
xdata	SEGMENT
$unwind$?dtor$2@?0??CreateParamDlg@BerconNoise@@UEAAPEAVParamDlg@@PEAUHWND__@@PEAVIMtlParams@@@Z@4HA DD 020601H
	DD	050023206H
xdata	ENDS
;	COMDAT xdata
xdata	SEGMENT
$unwind$?dtor$1@?0??CreateParamDlg@BerconNoise@@UEAAPEAVParamDlg@@PEAUHWND__@@PEAVIMtlParams@@@Z@4HA DD 020601H
	DD	050023206H
xdata	ENDS
;	COMDAT xdata
xdata	SEGMENT
$unwind$?dtor$0@?0??CreateParamDlg@BerconNoise@@UEAAPEAVParamDlg@@PEAUHWND__@@PEAVIMtlParams@@@Z@4HA DD 020601H
	DD	050023206H
xdata	ENDS
;	COMDAT xdata
xdata	SEGMENT
$ip2state$?CreateParamDlg@BerconNoise@@UEAAPEAVParamDlg@@PEAUHWND__@@PEAVIMtlParams@@@Z DD imagerel ?CreateParamDlg@BerconNoise@@UEAAPEAVParamDlg@@PEAUHWND__@@PEAVIMtlParams@@@Z
	DD	0ffffffffH
	DD	imagerel ?CreateParamDlg@BerconNoise@@UEAAPEAVParamDlg@@PEAUHWND__@@PEAVIMtlParams@@@Z+174
	DD	00H
	DD	imagerel ?CreateParamDlg@BerconNoise@@UEAAPEAVParamDlg@@PEAUHWND__@@PEAVIMtlParams@@@Z+241
	DD	0ffffffffH
	DD	imagerel ?CreateParamDlg@BerconNoise@@UEAAPEAVParamDlg@@PEAUHWND__@@PEAVIMtlParams@@@Z+274
	DD	01H
	DD	imagerel ?CreateParamDlg@BerconNoise@@UEAAPEAVParamDlg@@PEAUHWND__@@PEAVIMtlParams@@@Z+341
	DD	0ffffffffH
	DD	imagerel ?CreateParamDlg@BerconNoise@@UEAAPEAVParamDlg@@PEAUHWND__@@PEAVIMtlParams@@@Z+374
	DD	02H
	DD	imagerel ?CreateParamDlg@BerconNoise@@UEAAPEAVParamDlg@@PEAUHWND__@@PEAVIMtlParams@@@Z+441
	DD	0ffffffffH
xdata	ENDS
;	COMDAT xdata
xdata	SEGMENT
$stateUnwindMap$?CreateParamDlg@BerconNoise@@UEAAPEAVParamDlg@@PEAUHWND__@@PEAVIMtlParams@@@Z DD 0ffffffffH
	DD	imagerel ?dtor$0@?0??CreateParamDlg@BerconNoise@@UEAAPEAVParamDlg@@PEAUHWND__@@PEAVIMtlParams@@@Z@4HA
	DD	0ffffffffH
	DD	imagerel ?dtor$1@?0??CreateParamDlg@BerconNoise@@UEAAPEAVParamDlg@@PEAUHWND__@@PEAVIMtlParams@@@Z@4HA
	DD	0ffffffffH
	DD	imagerel ?dtor$2@?0??CreateParamDlg@BerconNoise@@UEAAPEAVParamDlg@@PEAUHWND__@@PEAVIMtlParams@@@Z@4HA
xdata	ENDS
;	COMDAT CONST
CONST	SEGMENT
$cppxdata$?CreateParamDlg@BerconNoise@@UEAAPEAVParamDlg@@PEAUHWND__@@PEAVIMtlParams@@@Z DD 019930522H
	DD	03H
	DD	imagerel $stateUnwindMap$?CreateParamDlg@BerconNoise@@UEAAPEAVParamDlg@@PEAUHWND__@@PEAVIMtlParams@@@Z
	DD	00H
	DD	00H
	DD	07H
	DD	imagerel $ip2state$?CreateParamDlg@BerconNoise@@UEAAPEAVParamDlg@@PEAUHWND__@@PEAVIMtlParams@@@Z
	DD	070H
	DD	00H
	DD	00H
CONST	ENDS
;	COMDAT xdata
xdata	SEGMENT
$unwind$?CreateParamDlg@BerconNoise@@UEAAPEAVParamDlg@@PEAUHWND__@@PEAVIMtlParams@@@Z DD 021f11H
	DD	0110116H
	DD	imagerel __CxxFrameHandler3
	DD	imagerel $cppxdata$?CreateParamDlg@BerconNoise@@UEAAPEAVParamDlg@@PEAUHWND__@@PEAVIMtlParams@@@Z
xdata	ENDS
;	COMDAT xdata
xdata	SEGMENT
$unwind$?GetActiveTexHandle@BerconNoise@@UEAA_KHAEAVTexHandleMaker@@@Z DD 011201H
	DD	0a212H
xdata	ENDS
;	COMDAT xdata
xdata	SEGMENT
$unwind$?ActivateTexDisplay@BerconNoise@@UEAAXH@Z DD 010d01H
	DD	0420dH
xdata	ENDS
;	COMDAT xdata
xdata	SEGMENT
$unwind$?DiscardTexHandle@BerconNoise@@QEAAXXZ DD 010901H
	DD	04209H
xdata	ENDS
;	COMDAT xdata
xdata	SEGMENT
$unwind$?NewCurveCreatedCallback@BerconNoise@@UEAAXHPEAVICurveCtl@@@Z DD 022719H
	DD	0170115H
	DD	imagerel __GSHandlerCheck
	DD	0a8H
xdata	ENDS
;	COMDAT xdata
xdata	SEGMENT
$unwind$?ResetCallback@BerconNoise@@UEAAXHPEAVICurveCtl@@@Z DD 011201H
	DD	06212H
xdata	ENDS
;	COMDAT xdata
xdata	SEGMENT
$unwind$?EnableStuff@BerconNoise@@QEAAXXZ DD 020c01H
	DD	015010cH
xdata	ENDS
;	COMDAT xdata
xdata	SEGMENT
$unwind$?applyDistortion@BerconNoise@@QEAAXAEAVShadeContext@@AEAVPoint3@@@Z DD 011301H
	DD	0c213H
xdata	ENDS
;	COMDAT xdata
xdata	SEGMENT
$unwind$?EvalParameters@BerconNoise@@QEAA?AVNoiseParams@@PEAVShadeContext@@@Z DD 041801H
	DD	0170118H
	DD	060107011H
xdata	ENDS
;	COMDAT xdata
xdata	SEGMENT
$unwind$?map@BerconXYZ@@QEAAXHAEAVBitArray@@0@Z DD 011701H
	DD	04217H
xdata	ENDS
;	COMDAT xdata
xdata	SEGMENT
$unwind$??0BerconXYZ@@QEAA@XZ DD 010901H
	DD	04209H
xdata	ENDS
;	COMDAT xdata
xdata	SEGMENT
$unwind$??_GBerconXYZDlgProc@@UEAAPEAXI@Z DD 010d01H
	DD	0420dH
xdata	ENDS
;	COMDAT xdata
xdata	SEGMENT
$unwind$?__autoclassinit2@BerconXYZDlgProc@@QEAAX_K@Z DD 010b01H
	DD	0700bH
xdata	ENDS
;	COMDAT xdata
xdata	SEGMENT
$unwind$?dtor$0@?0???1BerconXYZDlgProc@@UEAA@XZ@4HA DD 020601H
	DD	050023206H
xdata	ENDS
;	COMDAT xdata
xdata	SEGMENT
$ip2state$??1BerconXYZDlgProc@@UEAA@XZ DD imagerel ??1BerconXYZDlgProc@@UEAA@XZ
	DD	0ffffffffH
xdata	ENDS
;	COMDAT xdata
xdata	SEGMENT
$stateUnwindMap$??1BerconXYZDlgProc@@UEAA@XZ DD 0ffffffffH
	DD	imagerel ?dtor$0@?0???1BerconXYZDlgProc@@UEAA@XZ@4HA
xdata	ENDS
;	COMDAT CONST
CONST	SEGMENT
$cppxdata$??1BerconXYZDlgProc@@UEAA@XZ DD 019930522H
	DD	01H
	DD	imagerel $stateUnwindMap$??1BerconXYZDlgProc@@UEAA@XZ
	DD	00H
	DD	00H
	DD	01H
	DD	imagerel $ip2state$??1BerconXYZDlgProc@@UEAA@XZ
	DD	020H
	DD	00H
	DD	04H
CONST	ENDS
;	COMDAT xdata
xdata	SEGMENT
$unwind$??1BerconXYZDlgProc@@UEAA@XZ DD 011211H
	DD	06209H
	DD	imagerel __CxxFrameHandler3
	DD	imagerel $cppxdata$??1BerconXYZDlgProc@@UEAA@XZ
xdata	ENDS
;	COMDAT xdata
xdata	SEGMENT
$unwind$?DeleteThis@BerconXYZDlgProc@@UEAAXXZ DD 010901H
	DD	08209H
xdata	ENDS
;	COMDAT xdata
xdata	SEGMENT
$unwind$?DlgProc@BerconXYZDlgProc@@UEAA_JHPEAVIParamMap2@@PEAUHWND__@@I_K_J@Z DD 022c19H
	DD	015011aH
	DD	imagerel __GSHandlerCheck
	DD	090H
xdata	ENDS
;	COMDAT xdata
xdata	SEGMENT
$unwind$?dtor$0@?0???0BerconXYZDlgProc@@QEAA@PEAVReferenceTarget@@@Z@4HA DD 020601H
	DD	050023206H
xdata	ENDS
;	COMDAT xdata
xdata	SEGMENT
$ip2state$??0BerconXYZDlgProc@@QEAA@PEAVReferenceTarget@@@Z DD imagerel ??0BerconXYZDlgProc@@QEAA@PEAVReferenceTarget@@@Z
	DD	0ffffffffH
	DD	imagerel ??0BerconXYZDlgProc@@QEAA@PEAVReferenceTarget@@@Z+34
	DD	00H
	DD	imagerel ??0BerconXYZDlgProc@@QEAA@PEAVReferenceTarget@@@Z+63
	DD	0ffffffffH
xdata	ENDS
;	COMDAT xdata
xdata	SEGMENT
$stateUnwindMap$??0BerconXYZDlgProc@@QEAA@PEAVReferenceTarget@@@Z DD 0ffffffffH
	DD	imagerel ?dtor$0@?0???0BerconXYZDlgProc@@QEAA@PEAVReferenceTarget@@@Z@4HA
xdata	ENDS
;	COMDAT CONST
CONST	SEGMENT
$cppxdata$??0BerconXYZDlgProc@@QEAA@PEAVReferenceTarget@@@Z DD 019930522H
	DD	01H
	DD	imagerel $stateUnwindMap$??0BerconXYZDlgProc@@QEAA@PEAVReferenceTarget@@@Z
	DD	00H
	DD	00H
	DD	03H
	DD	imagerel $ip2state$??0BerconXYZDlgProc@@QEAA@PEAVReferenceTarget@@@Z
	DD	020H
	DD	00H
	DD	00H
CONST	ENDS
;	COMDAT xdata
xdata	SEGMENT
$unwind$??0BerconXYZDlgProc@@QEAA@PEAVReferenceTarget@@@Z DD 011711H
	DD	0620eH
	DD	imagerel __CxxFrameHandler3
	DD	imagerel $cppxdata$??0BerconXYZDlgProc@@QEAA@PEAVReferenceTarget@@@Z
xdata	ENDS
;	COMDAT xdata
xdata	SEGMENT
$unwind$??_GXYZ_Desc@@UEAAPEAXI@Z DD 010d01H
	DD	0420dH
xdata	ENDS
;	COMDAT xdata
xdata	SEGMENT
$unwind$?__autoclassinit2@XYZ_Desc@@QEAAX_K@Z DD 010b01H
	DD	0700bH
xdata	ENDS
;	COMDAT xdata
xdata	SEGMENT
$unwind$?dtor$0@?0???1XYZ_Desc@@UEAA@XZ@4HA DD 020601H
	DD	050023206H
xdata	ENDS
;	COMDAT xdata
xdata	SEGMENT
$ip2state$??1XYZ_Desc@@UEAA@XZ DD imagerel ??1XYZ_Desc@@UEAA@XZ
	DD	0ffffffffH
xdata	ENDS
;	COMDAT xdata
xdata	SEGMENT
$stateUnwindMap$??1XYZ_Desc@@UEAA@XZ DD 0ffffffffH
	DD	imagerel ?dtor$0@?0???1XYZ_Desc@@UEAA@XZ@4HA
xdata	ENDS
;	COMDAT CONST
CONST	SEGMENT
$cppxdata$??1XYZ_Desc@@UEAA@XZ DD 019930522H
	DD	01H
	DD	imagerel $stateUnwindMap$??1XYZ_Desc@@UEAA@XZ
	DD	00H
	DD	00H
	DD	01H
	DD	imagerel $ip2state$??1XYZ_Desc@@UEAA@XZ
	DD	020H
	DD	00H
	DD	04H
CONST	ENDS
;	COMDAT xdata
xdata	SEGMENT
$unwind$??1XYZ_Desc@@UEAA@XZ DD 011211H
	DD	06209H
	DD	imagerel __CxxFrameHandler3
	DD	imagerel $cppxdata$??1XYZ_Desc@@UEAA@XZ
xdata	ENDS
;	COMDAT xdata
xdata	SEGMENT
$unwind$?dtor$0@?0???0XYZ_Desc@@QEAA@PEAVClassDesc2@@HHHHHHH@Z@4HA DD 020601H
	DD	050023206H
xdata	ENDS
;	COMDAT xdata
xdata	SEGMENT
$ip2state$??0XYZ_Desc@@QEAA@PEAVClassDesc2@@HHHHHHH@Z DD imagerel ??0XYZ_Desc@@QEAA@PEAVClassDesc2@@HHHHHHH@Z
	DD	0ffffffffH
	DD	imagerel ??0XYZ_Desc@@QEAA@PEAVClassDesc2@@HHHHHHH@Z+5698
	DD	00H
	DD	imagerel ??0XYZ_Desc@@QEAA@PEAVClassDesc2@@HHHHHHH@Z+5716
	DD	0ffffffffH
xdata	ENDS
;	COMDAT xdata
xdata	SEGMENT
$stateUnwindMap$??0XYZ_Desc@@QEAA@PEAVClassDesc2@@HHHHHHH@Z DD 0ffffffffH
	DD	imagerel ?dtor$0@?0???0XYZ_Desc@@QEAA@PEAVClassDesc2@@HHHHHHH@Z@4HA
xdata	ENDS
;	COMDAT CONST
CONST	SEGMENT
$cppxdata$??0XYZ_Desc@@QEAA@PEAVClassDesc2@@HHHHHHH@Z DD 019930522H
	DD	01H
	DD	imagerel $stateUnwindMap$??0XYZ_Desc@@QEAA@PEAVClassDesc2@@HHHHHHH@Z
	DD	00H
	DD	00H
	DD	03H
	DD	imagerel $ip2state$??0XYZ_Desc@@QEAA@PEAVClassDesc2@@HHHHHHH@Z
	DD	0e70H
	DD	00H
	DD	00H
CONST	ENDS
;	COMDAT xdata
xdata	SEGMENT
$unwind$??0XYZ_Desc@@QEAA@PEAVClassDesc2@@HHHHHHH@Z DD 022711H
	DD	01d1011bH
	DD	imagerel __CxxFrameHandler3
	DD	imagerel $cppxdata$??0XYZ_Desc@@QEAA@PEAVClassDesc2@@HHHHHHH@Z
xdata	ENDS
;	COMDAT xdata
xdata	SEGMENT
$unwind$??__Eintvalid@@YAXXZ DD 010401H
	DD	04204H
xdata	ENDS
;	COMDAT xdata
xdata	SEGMENT
$unwind$??_GParamMap2UserDlgProc@@UEAAPEAXI@Z DD 010d01H
	DD	0420dH
xdata	ENDS
;	COMDAT xdata
xdata	SEGMENT
$unwind$?Update@ParamMap2UserDlgProc@@UEAAXHAEAVInterval@@PEAVIParamMap2@@@Z DD 011701H
	DD	04217H
xdata	ENDS
;	COMDAT xdata
xdata	SEGMENT
$unwind$?__autoclassinit2@ParamBlockDesc2@@QEAAX_K@Z DD 010b01H
	DD	0700bH
xdata	ENDS
;	COMDAT xdata
xdata	SEGMENT
$unwind$?SetUserDlgProc@ParamBlockDesc2@@QEAAXPEAVParamMap2UserDlgProc@@@Z DD 010e01H
	DD	0420eH
xdata	ENDS
;	COMDAT xdata
xdata	SEGMENT
$unwind$?SetUserDlgProc@ClassDesc2@@UEAA_NPEAVParamBlockDesc2@@PEAVParamMap2UserDlgProc@@@Z DD 011301H
	DD	04213H
xdata	ENDS
;	COMDAT xdata
xdata	SEGMENT
$unwind$??__EkTriObjNormalXTCID@@YAXXZ DD 010401H
	DD	04204H
xdata	ENDS
;	COMDAT xdata
xdata	SEGMENT
$unwind$?dtor$0@?0???1Texmap@@UEAA@XZ@4HA DD 020601H
	DD	050023206H
xdata	ENDS
;	COMDAT xdata
xdata	SEGMENT
$ip2state$??1Texmap@@UEAA@XZ DD imagerel ??1Texmap@@UEAA@XZ
	DD	0ffffffffH
xdata	ENDS
;	COMDAT xdata
xdata	SEGMENT
$stateUnwindMap$??1Texmap@@UEAA@XZ DD 0ffffffffH
	DD	imagerel ?dtor$0@?0???1Texmap@@UEAA@XZ@4HA
xdata	ENDS
;	COMDAT CONST
CONST	SEGMENT
$cppxdata$??1Texmap@@UEAA@XZ DD 019930522H
	DD	01H
	DD	imagerel $stateUnwindMap$??1Texmap@@UEAA@XZ
	DD	00H
	DD	00H
	DD	01H
	DD	imagerel $ip2state$??1Texmap@@UEAA@XZ
	DD	020H
	DD	00H
	DD	04H
CONST	ENDS
;	COMDAT xdata
xdata	SEGMENT
$unwind$??1Texmap@@UEAA@XZ DD 011211H
	DD	06209H
	DD	imagerel __CxxFrameHandler3
	DD	imagerel $cppxdata$??1Texmap@@UEAA@XZ
xdata	ENDS
;	COMDAT xdata
xdata	SEGMENT
$unwind$?GetUVTransform@Texmap@@UEAAXAEAVMatrix3@@@Z DD 010e01H
	DD	0420eH
xdata	ENDS
;	COMDAT xdata
xdata	SEGMENT
$unwind$?GetInterface@MtlBase@@UEAAPEAVBaseInterface@@VInterface_ID@@@Z DD 010e01H
	DD	0620eH
xdata	ENDS
;	COMDAT xdata
xdata	SEGMENT
$unwind$?NotifyForeground@ReferenceTarget@@UEAAXH@Z DD 010d01H
	DD	0a20dH
xdata	ENDS
;	COMDAT xdata
xdata	SEGMENT
$unwind$?IsSubClassOf@Animatable@@UEAAHVClass_ID@@@Z DD 010e01H
	DD	0620eH
xdata	ENDS
;	COMDAT xdata
xdata	SEGMENT
$unwind$?BypassTrackBar@Animatable@@UEAAHXZ DD 010901H
	DD	04209H
xdata	ENDS
;	COMDAT xdata
xdata	SEGMENT
$unwind$??_4Interval@@QEAAAEAV0@V0@@Z DD 010e01H
	DD	0620eH
xdata	ENDS
;	COMDAT xdata
xdata	SEGMENT
$unwind$??0Interval@@QEAA@XZ DD 010901H
	DD	04209H
xdata	ENDS
;	COMDAT xdata
xdata	SEGMENT
$unwind$??D@YA?AVAColor@@MAEBV0@@Z DD 011401H
	DD	08214H
xdata	ENDS
;	COMDAT xdata
xdata	SEGMENT
$unwind$??HAColor@@QEBA?AV0@AEBV0@@Z DD 011301H
	DD	08213H
xdata	ENDS
;	COMDAT xdata
xdata	SEGMENT
$unwind$?BitMask@BitArray@@AEBA_KH@Z DD 010d01H
	DD	0220dH
xdata	ENDS
;	COMDAT xdata
xdata	SEGMENT
$unwind$?UseLocalBits@BitArray@@AEBA_NXZ DD 010901H
	DD	02209H
xdata	ENDS
;	COMDAT xdata
xdata	SEGMENT
$unwind$?Set@BitArray@@QEAAXH@Z DD 010d01H
	DD	0620dH
xdata	ENDS
;	COMDAT xdata
xdata	SEGMENT
$unwind$?SubClassID@ClassDesc@@UEAA?AVClass_ID@@XZ DD 010e01H
	DD	0420eH
xdata	ENDS
;	COMDAT xdata
xdata	SEGMENT
$unwind$?ClearInterfaces@ClassDesc@@UEAAXXZ DD 010901H
	DD	04209H
xdata	ENDS
;	COMDAT xdata
xdata	SEGMENT
$unwind$?GetInterfaceAt@ClassDesc@@UEAAPEAVFPInterface@@H@Z DD 010d01H
	DD	0420dH
xdata	ENDS
;	COMDAT xdata
xdata	SEGMENT
$unwind$?NumInterfaces@ClassDesc@@UEAAHXZ DD 010901H
	DD	04209H
xdata	ENDS
;	COMDAT xdata
xdata	SEGMENT
$unwind$??A?$Tab@PEAVFPInterface@@@@QEBAAEAPEAVFPInterface@@_J@Z DD 010e01H
	DD	0620eH
xdata	ENDS
;	COMDAT xdata
xdata	SEGMENT
$unwind$??__EkInvalidId@AssetManagement@MaxSDK@@YAXXZ DD 010401H
	DD	04204H
xdata	ENDS
;	COMDAT xdata
xdata	SEGMENT
$unwind$??0AssetId@AssetManagement@MaxSDK@@QEAA@XZ DD 020701H
	DD	060067007H
xdata	ENDS
;	COMDAT xdata
xdata	SEGMENT
$unwind$??D@YA?AVPoint3@@AEBV0@M@Z DD 011401H
	DD	06214H
xdata	ENDS
;	COMDAT xdata
xdata	SEGMENT
$unwind$??D@YA?AVPoint3@@MAEBV0@@Z DD 011401H
	DD	06214H
xdata	ENDS
;	COMDAT xdata
xdata	SEGMENT
$unwind$??_GTabOutOfRangeException@Util@MaxSDK@@UEAAPEAXI@Z DD 010d01H
	DD	0420dH
xdata	ENDS
;	COMDAT xdata
xdata	SEGMENT
$unwind$?dtor$0@?0???0TabOutOfRangeException@Util@MaxSDK@@QEAA@AEBV012@@Z@4HA DD 020601H
	DD	050023206H
xdata	ENDS
;	COMDAT xdata
xdata	SEGMENT
$ip2state$??0TabOutOfRangeException@Util@MaxSDK@@QEAA@AEBV012@@Z DD imagerel ??0TabOutOfRangeException@Util@MaxSDK@@QEAA@AEBV012@@Z
	DD	0ffffffffH
	DD	imagerel ??0TabOutOfRangeException@Util@MaxSDK@@QEAA@AEBV012@@Z+40
	DD	00H
	DD	imagerel ??0TabOutOfRangeException@Util@MaxSDK@@QEAA@AEBV012@@Z+55
	DD	0ffffffffH
xdata	ENDS
;	COMDAT xdata
xdata	SEGMENT
$stateUnwindMap$??0TabOutOfRangeException@Util@MaxSDK@@QEAA@AEBV012@@Z DD 0ffffffffH
	DD	imagerel ?dtor$0@?0???0TabOutOfRangeException@Util@MaxSDK@@QEAA@AEBV012@@Z@4HA
xdata	ENDS
;	COMDAT CONST
CONST	SEGMENT
$cppxdata$??0TabOutOfRangeException@Util@MaxSDK@@QEAA@AEBV012@@Z DD 019930522H
	DD	01H
	DD	imagerel $stateUnwindMap$??0TabOutOfRangeException@Util@MaxSDK@@QEAA@AEBV012@@Z
	DD	00H
	DD	00H
	DD	03H
	DD	imagerel $ip2state$??0TabOutOfRangeException@Util@MaxSDK@@QEAA@AEBV012@@Z
	DD	020H
	DD	00H
	DD	00H
CONST	ENDS
;	COMDAT xdata
xdata	SEGMENT
$unwind$??0TabOutOfRangeException@Util@MaxSDK@@QEAA@AEBV012@@Z DD 011711H
	DD	0620eH
	DD	imagerel __CxxFrameHandler3
	DD	imagerel $cppxdata$??0TabOutOfRangeException@Util@MaxSDK@@QEAA@AEBV012@@Z
xdata	ENDS
;	COMDAT xdata
xdata	SEGMENT
$unwind$?dtor$0@?0???1TabOutOfRangeException@Util@MaxSDK@@UEAA@XZ@4HA DD 020601H
	DD	050023206H
xdata	ENDS
;	COMDAT xdata
xdata	SEGMENT
$ip2state$??1TabOutOfRangeException@Util@MaxSDK@@UEAA@XZ DD imagerel ??1TabOutOfRangeException@Util@MaxSDK@@UEAA@XZ
	DD	0ffffffffH
xdata	ENDS
;	COMDAT xdata
xdata	SEGMENT
$stateUnwindMap$??1TabOutOfRangeException@Util@MaxSDK@@UEAA@XZ DD 0ffffffffH
	DD	imagerel ?dtor$0@?0???1TabOutOfRangeException@Util@MaxSDK@@UEAA@XZ@4HA
xdata	ENDS
;	COMDAT CONST
CONST	SEGMENT
$cppxdata$??1TabOutOfRangeException@Util@MaxSDK@@UEAA@XZ DD 019930522H
	DD	01H
	DD	imagerel $stateUnwindMap$??1TabOutOfRangeException@Util@MaxSDK@@UEAA@XZ
	DD	00H
	DD	00H
	DD	01H
	DD	imagerel $ip2state$??1TabOutOfRangeException@Util@MaxSDK@@UEAA@XZ
	DD	020H
	DD	00H
	DD	04H
CONST	ENDS
;	COMDAT xdata
xdata	SEGMENT
$unwind$??1TabOutOfRangeException@Util@MaxSDK@@UEAA@XZ DD 011211H
	DD	06209H
	DD	imagerel __CxxFrameHandler3
	DD	imagerel $cppxdata$??1TabOutOfRangeException@Util@MaxSDK@@UEAA@XZ
xdata	ENDS
;	COMDAT xdata
xdata	SEGMENT
$unwind$?What@TabOutOfRangeException@Util@MaxSDK@@UEBAPEB_WXZ DD 010901H
	DD	02209H
xdata	ENDS
;	COMDAT xdata
xdata	SEGMENT
$unwind$?dtor$0@?0???0TabOutOfRangeException@Util@MaxSDK@@QEAA@PEB_W@Z@4HA DD 020601H
	DD	050023206H
xdata	ENDS
;	COMDAT xdata
xdata	SEGMENT
$ip2state$??0TabOutOfRangeException@Util@MaxSDK@@QEAA@PEB_W@Z DD imagerel ??0TabOutOfRangeException@Util@MaxSDK@@QEAA@PEB_W@Z
	DD	0ffffffffH
	DD	imagerel ??0TabOutOfRangeException@Util@MaxSDK@@QEAA@PEB_W@Z+40
	DD	00H
	DD	imagerel ??0TabOutOfRangeException@Util@MaxSDK@@QEAA@PEB_W@Z+55
	DD	0ffffffffH
xdata	ENDS
;	COMDAT xdata
xdata	SEGMENT
$stateUnwindMap$??0TabOutOfRangeException@Util@MaxSDK@@QEAA@PEB_W@Z DD 0ffffffffH
	DD	imagerel ?dtor$0@?0???0TabOutOfRangeException@Util@MaxSDK@@QEAA@PEB_W@Z@4HA
xdata	ENDS
;	COMDAT CONST
CONST	SEGMENT
$cppxdata$??0TabOutOfRangeException@Util@MaxSDK@@QEAA@PEB_W@Z DD 019930522H
	DD	01H
	DD	imagerel $stateUnwindMap$??0TabOutOfRangeException@Util@MaxSDK@@QEAA@PEB_W@Z
	DD	00H
	DD	00H
	DD	03H
	DD	imagerel $ip2state$??0TabOutOfRangeException@Util@MaxSDK@@QEAA@PEB_W@Z
	DD	020H
	DD	00H
	DD	00H
CONST	ENDS
;	COMDAT xdata
xdata	SEGMENT
$unwind$??0TabOutOfRangeException@Util@MaxSDK@@QEAA@PEB_W@Z DD 011711H
	DD	0620eH
	DD	imagerel __CxxFrameHandler3
	DD	imagerel $cppxdata$??0TabOutOfRangeException@Util@MaxSDK@@QEAA@PEB_W@Z
xdata	ENDS
;	COMDAT xdata
xdata	SEGMENT
$unwind$??8Class_ID@@QEBA_NAEBV0@@Z DD 010e01H
	DD	0220eH
xdata	ENDS
;	COMDAT xdata
xdata	SEGMENT
$unwind$??_H@YAXPEAX_K1P6APEAX0@Z@Z DD 011801H
	DD	06218H
xdata	ENDS
CRT$XCU	SEGMENT
?kTriObjNormalXTCID$initializer$@@3P6AXXZEA DQ FLAT:??__EkTriObjNormalXTCID@@YAXXZ ; kTriObjNormalXTCID$initializer$
CRT$XCU	ENDS
CRT$XCU	SEGMENT
?intvalid$initializer$@@3P6AXXZEA DQ FLAT:??__Eintvalid@@YAXXZ ; intvalid$initializer$
CRT$XCU	ENDS
CRT$XCU	SEGMENT
?BerconNoiseDesc$initializer$@@3P6AXXZEA DQ FLAT:??__EBerconNoiseDesc@@YAXXZ ; BerconNoiseDesc$initializer$
CRT$XCU	ENDS
CRT$XCU	SEGMENT
?xyz_blk$initializer$@@3P6AXXZEA DQ FLAT:??__Exyz_blk@@YAXXZ ; xyz_blk$initializer$
CRT$XCU	ENDS
CRT$XCU	SEGMENT
?berconnoise_param_blk$initializer$@@3P6AXXZEA DQ FLAT:??__Eberconnoise_param_blk@@YAXXZ ; berconnoise_param_blk$initializer$
CRT$XCU	ENDS
CRT$XCU	SEGMENT
?BerconCurve_param_blk$initializer$@@3P6AXXZEA DQ FLAT:??__EBerconCurve_param_blk@@YAXXZ ; BerconCurve_param_blk$initializer$
CRT$XCU	ENDS
CRT$XCU	SEGMENT
?BerconMap_param_blk$initializer$@@3P6AXXZEA DQ FLAT:??__EBerconMap_param_blk@@YAXXZ ; BerconMap_param_blk$initializer$
CRT$XCU	ENDS
CRT$XCU	SEGMENT
?black$initializer$@@3P6AXXZEA DQ FLAT:??__Eblack@@YAXXZ ; black$initializer$
CRT$XCU	ENDS
CRT$XCU	SEGMENT
?white$initializer$@@3P6AXXZEA DQ FLAT:??__Ewhite@@YAXXZ ; white$initializer$
CRT$XCU	ENDS
; Function compile flags: /Odsp
;	COMDAT ?GetInterface@BerconNoise@@WJA@EAAPEAXK@Z
_TEXT	SEGMENT
?GetInterface@BerconNoise@@WJA@EAAPEAXK@Z PROC		; [thunk]:BerconNoise::GetInterface`adjustor{144}', COMDAT
	sub	rcx, 144				; 00000090H
	jmp	?GetInterface@BerconNoise@@UEAAPEAXK@Z	; BerconNoise::GetInterface
?GetInterface@BerconNoise@@WJA@EAAPEAXK@Z ENDP		; [thunk]:BerconNoise::GetInterface`adjustor{144}'
_TEXT	ENDS
; Function compile flags: /Odsp
;	COMDAT ??_EBerconNoise@@WEA@EAAPEAXI@Z
_TEXT	SEGMENT
??_EBerconNoise@@WEA@EAAPEAXI@Z PROC			; [thunk]:BerconNoise::`vector deleting destructor', COMDAT
	sub	rcx, 64					; 00000040H
	jmp	??_EBerconNoise@@UEAAPEAXI@Z
??_EBerconNoise@@WEA@EAAPEAXI@Z ENDP			; [thunk]:BerconNoise::`vector deleting destructor'
_TEXT	ENDS
; Function compile flags: /Odtp
; File c:\users\james\source\repos\berconmaps\src\berconnoise.cpp
;	COMDAT ??__Ewhite@@YAXXZ
text$di	SEGMENT
??__Ewhite@@YAXXZ PROC					; `dynamic initializer for 'white'', COMDAT

; 766  : static AColor white(1.0f,1.0f,1.0f,1.0f);

	sub	rsp, 56					; 00000038H
	movss	xmm0, DWORD PTR __real@3f800000
	movss	DWORD PTR [rsp+32], xmm0
	movss	xmm3, DWORD PTR __real@3f800000
	movss	xmm2, DWORD PTR __real@3f800000
	movss	xmm1, DWORD PTR __real@3f800000
	lea	rcx, OFFSET FLAT:?white@@3VAColor@@A
	call	??0AColor@@QEAA@MMMM@Z			; AColor::AColor
	add	rsp, 56					; 00000038H
	ret	0
??__Ewhite@@YAXXZ ENDP					; `dynamic initializer for 'white''
text$di	ENDS
; Function compile flags: /Odtp
; File c:\users\james\source\repos\berconmaps\src\berconnoise.cpp
;	COMDAT ??__Eblack@@YAXXZ
text$di	SEGMENT
??__Eblack@@YAXXZ PROC					; `dynamic initializer for 'black'', COMDAT

; 765  : static AColor black(0.0f,0.0f,0.0f,0.0f);

	sub	rsp, 56					; 00000038H
	xorps	xmm0, xmm0
	movss	DWORD PTR [rsp+32], xmm0
	xorps	xmm3, xmm3
	xorps	xmm2, xmm2
	xorps	xmm1, xmm1
	lea	rcx, OFFSET FLAT:?black@@3VAColor@@A
	call	??0AColor@@QEAA@MMMM@Z			; AColor::AColor
	add	rsp, 56					; 00000038H
	ret	0
??__Eblack@@YAXXZ ENDP					; `dynamic initializer for 'black''
text$di	ENDS
; Function compile flags: /Odtp
;	COMDAT ??_GBerconNoiseDlgProc@@UEAAPEAXI@Z
_TEXT	SEGMENT
this$ = 48
__flags$ = 56
??_GBerconNoiseDlgProc@@UEAAPEAXI@Z PROC		; BerconNoiseDlgProc::`scalar deleting destructor', COMDAT
$LN7:
	mov	DWORD PTR [rsp+16], edx
	mov	QWORD PTR [rsp+8], rcx
	sub	rsp, 40					; 00000028H
	mov	rcx, QWORD PTR this$[rsp]
	call	??1BerconNoiseDlgProc@@UEAA@XZ		; BerconNoiseDlgProc::~BerconNoiseDlgProc
	mov	eax, DWORD PTR __flags$[rsp]
	and	eax, 1
	test	eax, eax
	je	SHORT $LN2@scalar
	mov	eax, DWORD PTR __flags$[rsp]
	and	eax, 4
	test	eax, eax
	jne	SHORT $LN3@scalar
	mov	rcx, QWORD PTR this$[rsp]
	call	QWORD PTR __imp_??3MaxHeapOperators@@SAXPEAX@Z
	jmp	SHORT $LN5@scalar
	jmp	SHORT $LN4@scalar
$LN3@scalar:
	mov	edx, 16
	mov	rcx, QWORD PTR this$[rsp]
	call	?__global_delete@@YAXPEAX_K@Z		; __global_delete
$LN5@scalar:
$LN4@scalar:
$LN2@scalar:
	mov	rax, QWORD PTR this$[rsp]
	add	rsp, 40					; 00000028H
	ret	0
??_GBerconNoiseDlgProc@@UEAAPEAXI@Z ENDP		; BerconNoiseDlgProc::`scalar deleting destructor'
_TEXT	ENDS
; Function compile flags: /Odtp
;	COMDAT ?__autoclassinit2@BerconNoiseDlgProc@@QEAAX_K@Z
_TEXT	SEGMENT
this$ = 16
classSize$ = 24
?__autoclassinit2@BerconNoiseDlgProc@@QEAAX_K@Z PROC	; BerconNoiseDlgProc::__autoclassinit2, COMDAT
$LN3:
	mov	QWORD PTR [rsp+16], rdx
	mov	QWORD PTR [rsp+8], rcx
	push	rdi
	mov	rdi, QWORD PTR this$[rsp]
	xor	eax, eax
	mov	rcx, QWORD PTR classSize$[rsp]
	rep stosb
	pop	rdi
	ret	0
?__autoclassinit2@BerconNoiseDlgProc@@QEAAX_K@Z ENDP	; BerconNoiseDlgProc::__autoclassinit2
_TEXT	ENDS
; Function compile flags: /Odtp
; File c:\users\james\source\repos\berconmaps\src\berconnoise.cpp
;	COMDAT ?SetThing@BerconNoiseDlgProc@@UEAAXPEAVReferenceTarget@@@Z
_TEXT	SEGMENT
this$ = 48
m$ = 56
?SetThing@BerconNoiseDlgProc@@UEAAXPEAVReferenceTarget@@@Z PROC ; BerconNoiseDlgProc::SetThing, COMDAT

; 328  : 	void SetThing(ReferenceTarget *m) {

$LN3:
	mov	QWORD PTR [rsp+16], rdx
	mov	QWORD PTR [rsp+8], rcx
	sub	rsp, 40					; 00000028H

; 329  : 		berconNoise = (BerconNoise*)m;

	mov	rax, QWORD PTR this$[rsp]
	mov	rcx, QWORD PTR m$[rsp]
	mov	QWORD PTR [rax+8], rcx

; 330  : 		berconNoise->EnableStuff();

	mov	rax, QWORD PTR this$[rsp]
	mov	rcx, QWORD PTR [rax+8]
	call	?EnableStuff@BerconNoise@@QEAAXXZ	; BerconNoise::EnableStuff

; 331  : 	}

	add	rsp, 40					; 00000028H
	ret	0
?SetThing@BerconNoiseDlgProc@@UEAAXPEAVReferenceTarget@@@Z ENDP ; BerconNoiseDlgProc::SetThing
_TEXT	ENDS
; Function compile flags: /Odtp
; File c:\users\james\source\repos\berconmaps\src\berconnoise.cpp
;	COMDAT ?DeleteThis@BerconNoiseDlgProc@@UEAAXXZ
_TEXT	SEGMENT
$T1 = 32
$T2 = 40
tv74 = 48
this$ = 80
?DeleteThis@BerconNoiseDlgProc@@UEAAXXZ PROC		; BerconNoiseDlgProc::DeleteThis, COMDAT

; 327  : 	void DeleteThis() {delete this;}

$LN5:
	mov	QWORD PTR [rsp+8], rcx
	sub	rsp, 72					; 00000048H
	mov	rax, QWORD PTR this$[rsp]
	mov	QWORD PTR $T2[rsp], rax
	mov	rax, QWORD PTR $T2[rsp]
	mov	QWORD PTR $T1[rsp], rax
	cmp	QWORD PTR $T1[rsp], 0
	je	SHORT $LN3@DeleteThis
	mov	rax, QWORD PTR $T1[rsp]
	mov	rax, QWORD PTR [rax]
	mov	edx, 1
	mov	rcx, QWORD PTR $T1[rsp]
	call	QWORD PTR [rax]
	mov	QWORD PTR tv74[rsp], rax
	jmp	SHORT $LN4@DeleteThis
$LN3@DeleteThis:
	mov	QWORD PTR tv74[rsp], 0
$LN4@DeleteThis:
	add	rsp, 72					; 00000048H
	ret	0
?DeleteThis@BerconNoiseDlgProc@@UEAAXXZ ENDP		; BerconNoiseDlgProc::DeleteThis
_TEXT	ENDS
; Function compile flags: /Odtp
; File c:\users\james\source\repos\berconmaps\src\berconnoise.cpp
;	COMDAT ?DlgProc@BerconNoiseDlgProc@@UEAA_JHPEAVIParamMap2@@PEAUHWND__@@I_K_J@Z
_TEXT	SEGMENT
hwndMap$1 = 48
tv64 = 56
tv258 = 64
tv279 = 72
tv300 = 80
tv321 = 88
tv342 = 96
tv363 = 104
tv384 = 112
tv405 = 120
tv268 = 128
tv289 = 136
tv310 = 144
tv331 = 152
tv352 = 160
tv373 = 168
tv394 = 176
tv415 = 184
curIndex$2 = 192
curIndex$3 = 196
__$ArrayPad$ = 200
this$ = 224
t$ = 232
map$ = 240
hWnd$ = 248
msg$ = 256
wParam$ = 264
lParam$ = 272
?DlgProc@BerconNoiseDlgProc@@UEAA_JHPEAVIParamMap2@@PEAUHWND__@@I_K_J@Z PROC ; BerconNoiseDlgProc::DlgProc, COMDAT

; 334  : INT_PTR BerconNoiseDlgProc::DlgProc(TimeValue t,IParamMap2 *map,HWND hWnd,UINT msg,WPARAM wParam,LPARAM lParam)	{	

$LN7:
	mov	QWORD PTR [rsp+32], r9
	mov	QWORD PTR [rsp+24], r8
	mov	DWORD PTR [rsp+16], edx
	mov	QWORD PTR [rsp+8], rcx
	sub	rsp, 216				; 000000d8H
	mov	rax, QWORD PTR __security_cookie
	xor	rax, rsp
	mov	QWORD PTR __$ArrayPad$[rsp], rax

; 335  : 	switch (msg) {

	mov	eax, DWORD PTR msg$[rsp]
	mov	DWORD PTR tv64[rsp], eax
	cmp	DWORD PTR tv64[rsp], 24
	je	$LN5@DlgProc
	cmp	DWORD PTR tv64[rsp], 272		; 00000110H
	je	SHORT $LN4@DlgProc
	jmp	$LN2@DlgProc
$LN4@DlgProc:

; 336  : 	case WM_INITDIALOG: {
; 337  : 		// UVW
; 338  : 		HWND hwndMap = GetDlgItem(hWnd, IDC_DIST_UVW);

	mov	edx, 1007				; 000003efH
	mov	rcx, QWORD PTR hWnd$[rsp]
	call	QWORD PTR __imp_GetDlgItem
	mov	QWORD PTR hwndMap$1[rsp], rax

; 339  : 		SendMessage(hwndMap, CB_ADDSTRING, 0, (LPARAM)GetString(IDS_UVW_NORMAL));

	mov	ecx, 139				; 0000008bH
	call	?GetString@@YAPEA_WH@Z			; GetString
	mov	r9, rax
	xor	r8d, r8d
	mov	edx, 323				; 00000143H
	mov	rcx, QWORD PTR hwndMap$1[rsp]
	call	QWORD PTR __imp_SendMessageW

; 340  : 		SendMessage(hwndMap, CB_ADDSTRING, 0, (LPARAM)GetString(IDS_UVW_RADIAL));

	mov	ecx, 140				; 0000008cH
	call	?GetString@@YAPEA_WH@Z			; GetString
	mov	r9, rax
	xor	r8d, r8d
	mov	edx, 323				; 00000143H
	mov	rcx, QWORD PTR hwndMap$1[rsp]
	call	QWORD PTR __imp_SendMessageW

; 341  : 		SendMessage(hwndMap, CB_ADDSTRING, 0, (LPARAM)GetString(IDS_UVW_SPHERICAL));

	mov	ecx, 141				; 0000008dH
	call	?GetString@@YAPEA_WH@Z			; GetString
	mov	r9, rax
	xor	r8d, r8d
	mov	edx, 323				; 00000143H
	mov	rcx, QWORD PTR hwndMap$1[rsp]
	call	QWORD PTR __imp_SendMessageW

; 342  : 
; 343  : 		// Noise type
; 344  : 		hwndMap = GetDlgItem(hWnd, IDC_NOISE_FUNCTION);

	mov	edx, 1003				; 000003ebH
	mov	rcx, QWORD PTR hWnd$[rsp]
	call	QWORD PTR __imp_GetDlgItem
	mov	QWORD PTR hwndMap$1[rsp], rax

; 345  : 		SendMessage(hwndMap, CB_ADDSTRING, 0, (LPARAM)GetString(IDS_NF_PERLIN2));

	mov	ecx, 225				; 000000e1H
	call	?GetString@@YAPEA_WH@Z			; GetString
	mov	r9, rax
	xor	r8d, r8d
	mov	edx, 323				; 00000143H
	mov	rcx, QWORD PTR hwndMap$1[rsp]
	call	QWORD PTR __imp_SendMessageW

; 346  : 		SendMessage(hwndMap, CB_ADDSTRING, 0, (LPARAM)GetString(IDS_NF_PERLIN3));

	mov	ecx, 226				; 000000e2H
	call	?GetString@@YAPEA_WH@Z			; GetString
	mov	r9, rax
	xor	r8d, r8d
	mov	edx, 323				; 00000143H
	mov	rcx, QWORD PTR hwndMap$1[rsp]
	call	QWORD PTR __imp_SendMessageW

; 347  : 		SendMessage(hwndMap, CB_ADDSTRING, 0, (LPARAM)GetString(IDS_NF_PERLIN4));

	mov	ecx, 227				; 000000e3H
	call	?GetString@@YAPEA_WH@Z			; GetString
	mov	r9, rax
	xor	r8d, r8d
	mov	edx, 323				; 00000143H
	mov	rcx, QWORD PTR hwndMap$1[rsp]
	call	QWORD PTR __imp_SendMessageW

; 348  : 		SendMessage(hwndMap, CB_ADDSTRING, 0, (LPARAM)GetString(IDS_NF_SIMPLEX2));

	mov	ecx, 1066				; 0000042aH
	call	?GetString@@YAPEA_WH@Z			; GetString
	mov	r9, rax
	xor	r8d, r8d
	mov	edx, 323				; 00000143H
	mov	rcx, QWORD PTR hwndMap$1[rsp]
	call	QWORD PTR __imp_SendMessageW

; 349  : 		SendMessage(hwndMap, CB_ADDSTRING, 0, (LPARAM)GetString(IDS_NF_SIMPLEX3));

	mov	ecx, 223				; 000000dfH
	call	?GetString@@YAPEA_WH@Z			; GetString
	mov	r9, rax
	xor	r8d, r8d
	mov	edx, 323				; 00000143H
	mov	rcx, QWORD PTR hwndMap$1[rsp]
	call	QWORD PTR __imp_SendMessageW

; 350  : 		SendMessage(hwndMap, CB_ADDSTRING, 0, (LPARAM)GetString(IDS_NF_SIMPLEX4));

	mov	ecx, 224				; 000000e0H
	call	?GetString@@YAPEA_WH@Z			; GetString
	mov	r9, rax
	xor	r8d, r8d
	mov	edx, 323				; 00000143H
	mov	rcx, QWORD PTR hwndMap$1[rsp]
	call	QWORD PTR __imp_SendMessageW

; 351  : 		SendMessage(hwndMap, CB_ADDSTRING, 0, (LPARAM)GetString(IDS_NF_WORLEY));

	mov	ecx, 14
	call	?GetString@@YAPEA_WH@Z			; GetString
	mov	r9, rax
	xor	r8d, r8d
	mov	edx, 323				; 00000143H
	mov	rcx, QWORD PTR hwndMap$1[rsp]
	call	QWORD PTR __imp_SendMessageW

; 352  : 
; 353  : 		// Worley distance
; 354  : 		hwndMap = GetDlgItem(hWnd, IDC_WORLEY_DISTANCE);

	mov	edx, 1004				; 000003ecH
	mov	rcx, QWORD PTR hWnd$[rsp]
	call	QWORD PTR __imp_GetDlgItem
	mov	QWORD PTR hwndMap$1[rsp], rax

; 355  : 		SendMessage(hwndMap, CB_ADDSTRING, 0, (LPARAM)GetString(IDS_W_LIN));

	mov	ecx, 1071				; 0000042fH
	call	?GetString@@YAPEA_WH@Z			; GetString
	mov	r9, rax
	xor	r8d, r8d
	mov	edx, 323				; 00000143H
	mov	rcx, QWORD PTR hwndMap$1[rsp]
	call	QWORD PTR __imp_SendMessageW

; 356  : 		SendMessage(hwndMap, CB_ADDSTRING, 0, (LPARAM)GetString(IDS_W_SQU));

	mov	ecx, 1072				; 00000430H
	call	?GetString@@YAPEA_WH@Z			; GetString
	mov	r9, rax
	xor	r8d, r8d
	mov	edx, 323				; 00000143H
	mov	rcx, QWORD PTR hwndMap$1[rsp]
	call	QWORD PTR __imp_SendMessageW

; 357  : 		SendMessage(hwndMap, CB_ADDSTRING, 0, (LPARAM)GetString(IDS_W_MAN));

	mov	ecx, 1073				; 00000431H
	call	?GetString@@YAPEA_WH@Z			; GetString
	mov	r9, rax
	xor	r8d, r8d
	mov	edx, 323				; 00000143H
	mov	rcx, QWORD PTR hwndMap$1[rsp]
	call	QWORD PTR __imp_SendMessageW

; 358  : 		SendMessage(hwndMap, CB_ADDSTRING, 0, (LPARAM)GetString(IDS_W_CHE));

	mov	ecx, 1074				; 00000432H
	call	?GetString@@YAPEA_WH@Z			; GetString
	mov	r9, rax
	xor	r8d, r8d
	mov	edx, 323				; 00000143H
	mov	rcx, QWORD PTR hwndMap$1[rsp]
	call	QWORD PTR __imp_SendMessageW

; 359  : 		SendMessage(hwndMap, CB_ADDSTRING, 0, (LPARAM)GetString(IDS_W_MI5));

	mov	ecx, 27
	call	?GetString@@YAPEA_WH@Z			; GetString
	mov	r9, rax
	xor	r8d, r8d
	mov	edx, 323				; 00000143H
	mov	rcx, QWORD PTR hwndMap$1[rsp]
	call	QWORD PTR __imp_SendMessageW

; 360  : 		SendMessage(hwndMap, CB_ADDSTRING, 0, (LPARAM)GetString(IDS_W_MI4));

	mov	ecx, 28
	call	?GetString@@YAPEA_WH@Z			; GetString
	mov	r9, rax
	xor	r8d, r8d
	mov	edx, 323				; 00000143H
	mov	rcx, QWORD PTR hwndMap$1[rsp]
	call	QWORD PTR __imp_SendMessageW

; 361  : 
; 362  : 		// Fractal type
; 363  : 		hwndMap = GetDlgItem(hWnd, IDC_FRACTAL_TYPE);

	mov	edx, 1005				; 000003edH
	mov	rcx, QWORD PTR hWnd$[rsp]
	call	QWORD PTR __imp_GetDlgItem
	mov	QWORD PTR hwndMap$1[rsp], rax

; 364  : 		SendMessage(hwndMap, CB_ADDSTRING, 0, (LPARAM)GetString(IDS_F_REGULAR));

	mov	ecx, 16
	call	?GetString@@YAPEA_WH@Z			; GetString
	mov	r9, rax
	xor	r8d, r8d
	mov	edx, 323				; 00000143H
	mov	rcx, QWORD PTR hwndMap$1[rsp]
	call	QWORD PTR __imp_SendMessageW

; 365  : 		SendMessage(hwndMap, CB_ADDSTRING, 0, (LPARAM)GetString(IDS_F_FRACTAL));

	mov	ecx, 15
	call	?GetString@@YAPEA_WH@Z			; GetString
	mov	r9, rax
	xor	r8d, r8d
	mov	edx, 323				; 00000143H
	mov	rcx, QWORD PTR hwndMap$1[rsp]
	call	QWORD PTR __imp_SendMessageW

; 366  : 		SendMessage(hwndMap, CB_ADDSTRING, 0, (LPARAM)GetString(IDS_F_TURBULENCE));

	mov	ecx, 17
	call	?GetString@@YAPEA_WH@Z			; GetString
	mov	r9, rax
	xor	r8d, r8d
	mov	edx, 323				; 00000143H
	mov	rcx, QWORD PTR hwndMap$1[rsp]
	call	QWORD PTR __imp_SendMessageW

; 367  : 		SendMessage(hwndMap, CB_ADDSTRING, 0, (LPARAM)GetString(IDS_F_FBM));

	mov	ecx, 18
	call	?GetString@@YAPEA_WH@Z			; GetString
	mov	r9, rax
	xor	r8d, r8d
	mov	edx, 323				; 00000143H
	mov	rcx, QWORD PTR hwndMap$1[rsp]
	call	QWORD PTR __imp_SendMessageW

; 368  : 		SendMessage(hwndMap, CB_ADDSTRING, 0, (LPARAM)GetString(IDS_F_FBMTURB));

	mov	ecx, 143				; 0000008fH
	call	?GetString@@YAPEA_WH@Z			; GetString
	mov	r9, rax
	xor	r8d, r8d
	mov	edx, 323				; 00000143H
	mov	rcx, QWORD PTR hwndMap$1[rsp]
	call	QWORD PTR __imp_SendMessageW

; 369  : 		SendMessage(hwndMap, CB_ADDSTRING, 0, (LPARAM)GetString(IDS_F_HETEROTERRAIN));

	mov	ecx, 19
	call	?GetString@@YAPEA_WH@Z			; GetString
	mov	r9, rax
	xor	r8d, r8d
	mov	edx, 323				; 00000143H
	mov	rcx, QWORD PTR hwndMap$1[rsp]
	call	QWORD PTR __imp_SendMessageW

; 370  : 		SendMessage(hwndMap, CB_ADDSTRING, 0, (LPARAM)GetString(IDS_F_HYBRIDMULTIFRACTAL));

	mov	ecx, 20
	call	?GetString@@YAPEA_WH@Z			; GetString
	mov	r9, rax
	xor	r8d, r8d
	mov	edx, 323				; 00000143H
	mov	rcx, QWORD PTR hwndMap$1[rsp]
	call	QWORD PTR __imp_SendMessageW

; 371  : 		SendMessage(hwndMap, CB_ADDSTRING, 0, (LPARAM)GetString(IDS_F_RIDGEDMULTIFRACTAL));

	mov	ecx, 21
	call	?GetString@@YAPEA_WH@Z			; GetString
	mov	r9, rax
	xor	r8d, r8d
	mov	edx, 323				; 00000143H
	mov	rcx, QWORD PTR hwndMap$1[rsp]
	call	QWORD PTR __imp_SendMessageW

; 372  : 
; 373  : 		// Set correct dropdown value
; 374  : 		int curIndex;
; 375  : 		map->GetParamBlock()->GetValue(noise_function_type, t, curIndex, intvalid);

	mov	rax, QWORD PTR map$[rsp]
	mov	rax, QWORD PTR [rax]
	mov	rcx, QWORD PTR map$[rsp]
	call	QWORD PTR [rax+136]
	mov	QWORD PTR tv258[rsp], rax
	mov	rax, QWORD PTR tv258[rsp]
	mov	rax, QWORD PTR [rax]
	mov	DWORD PTR [rsp+40], 0
	lea	rcx, OFFSET FLAT:?intvalid@@3VInterval@@A
	mov	QWORD PTR [rsp+32], rcx
	lea	r9, QWORD PTR curIndex$2[rsp]
	mov	r8d, DWORD PTR t$[rsp]
	mov	dx, 13
	mov	rcx, QWORD PTR tv258[rsp]
	call	QWORD PTR [rax+1704]

; 376  : 		SendMessage(GetDlgItem(hWnd, IDC_NOISE_FUNCTION), CB_SETCURSEL, (WPARAM)curIndex, 0);

	movsxd	rax, DWORD PTR curIndex$2[rsp]
	mov	QWORD PTR tv268[rsp], rax
	mov	edx, 1003				; 000003ebH
	mov	rcx, QWORD PTR hWnd$[rsp]
	call	QWORD PTR __imp_GetDlgItem
	xor	r9d, r9d
	mov	rcx, QWORD PTR tv268[rsp]
	mov	r8, rcx
	mov	edx, 334				; 0000014eH
	mov	rcx, rax
	call	QWORD PTR __imp_SendMessageW

; 377  : 		map->GetParamBlock()->GetValue(worley_distance, t, curIndex, intvalid);

	mov	rax, QWORD PTR map$[rsp]
	mov	rax, QWORD PTR [rax]
	mov	rcx, QWORD PTR map$[rsp]
	call	QWORD PTR [rax+136]
	mov	QWORD PTR tv279[rsp], rax
	mov	rax, QWORD PTR tv279[rsp]
	mov	rax, QWORD PTR [rax]
	mov	DWORD PTR [rsp+40], 0
	lea	rcx, OFFSET FLAT:?intvalid@@3VInterval@@A
	mov	QWORD PTR [rsp+32], rcx
	lea	r9, QWORD PTR curIndex$2[rsp]
	mov	r8d, DWORD PTR t$[rsp]
	mov	dx, 14
	mov	rcx, QWORD PTR tv279[rsp]
	call	QWORD PTR [rax+1704]

; 378  : 		SendMessage(GetDlgItem(hWnd, IDC_WORLEY_DISTANCE), CB_SETCURSEL, (WPARAM)curIndex, 0);

	movsxd	rax, DWORD PTR curIndex$2[rsp]
	mov	QWORD PTR tv289[rsp], rax
	mov	edx, 1004				; 000003ecH
	mov	rcx, QWORD PTR hWnd$[rsp]
	call	QWORD PTR __imp_GetDlgItem
	xor	r9d, r9d
	mov	rcx, QWORD PTR tv289[rsp]
	mov	r8, rcx
	mov	edx, 334				; 0000014eH
	mov	rcx, rax
	call	QWORD PTR __imp_SendMessageW

; 379  : 		map->GetParamBlock()->GetValue(fractal_type, t, curIndex, intvalid);

	mov	rax, QWORD PTR map$[rsp]
	mov	rax, QWORD PTR [rax]
	mov	rcx, QWORD PTR map$[rsp]
	call	QWORD PTR [rax+136]
	mov	QWORD PTR tv300[rsp], rax
	mov	rax, QWORD PTR tv300[rsp]
	mov	rax, QWORD PTR [rax]
	mov	DWORD PTR [rsp+40], 0
	lea	rcx, OFFSET FLAT:?intvalid@@3VInterval@@A
	mov	QWORD PTR [rsp+32], rcx
	lea	r9, QWORD PTR curIndex$2[rsp]
	mov	r8d, DWORD PTR t$[rsp]
	xor	edx, edx
	mov	rcx, QWORD PTR tv300[rsp]
	call	QWORD PTR [rax+1704]

; 380  : 		SendMessage(GetDlgItem(hWnd, IDC_FRACTAL_TYPE), CB_SETCURSEL, (WPARAM)curIndex, 0);

	movsxd	rax, DWORD PTR curIndex$2[rsp]
	mov	QWORD PTR tv310[rsp], rax
	mov	edx, 1005				; 000003edH
	mov	rcx, QWORD PTR hWnd$[rsp]
	call	QWORD PTR __imp_GetDlgItem
	xor	r9d, r9d
	mov	rcx, QWORD PTR tv310[rsp]
	mov	r8, rcx
	mov	edx, 334				; 0000014eH
	mov	rcx, rax
	call	QWORD PTR __imp_SendMessageW

; 381  : 		map->GetParamBlock()->GetValue(uvw_dist, t, curIndex, intvalid);

	mov	rax, QWORD PTR map$[rsp]
	mov	rax, QWORD PTR [rax]
	mov	rcx, QWORD PTR map$[rsp]
	call	QWORD PTR [rax+136]
	mov	QWORD PTR tv321[rsp], rax
	mov	rax, QWORD PTR tv321[rsp]
	mov	rax, QWORD PTR [rax]
	mov	DWORD PTR [rsp+40], 0
	lea	rcx, OFFSET FLAT:?intvalid@@3VInterval@@A
	mov	QWORD PTR [rsp+32], rcx
	lea	r9, QWORD PTR curIndex$2[rsp]
	mov	r8d, DWORD PTR t$[rsp]
	mov	dx, 12
	mov	rcx, QWORD PTR tv321[rsp]
	call	QWORD PTR [rax+1704]

; 382  : 		SendMessage(GetDlgItem(hWnd, IDC_DIST_UVW), CB_SETCURSEL, (WPARAM)curIndex, 0);

	movsxd	rax, DWORD PTR curIndex$2[rsp]
	mov	QWORD PTR tv331[rsp], rax
	mov	edx, 1007				; 000003efH
	mov	rcx, QWORD PTR hWnd$[rsp]
	call	QWORD PTR __imp_GetDlgItem
	xor	r9d, r9d
	mov	rcx, QWORD PTR tv331[rsp]
	mov	r8, rcx
	mov	edx, 334				; 0000014eH
	mov	rcx, rax
	call	QWORD PTR __imp_SendMessageW

; 383  : 		break;

	jmp	$LN2@DlgProc
$LN5@DlgProc:

; 384  : 	}
; 385  : 	case WM_SHOWWINDOW: {
; 386  : 		// Set correct dropdown value
; 387  : 		int curIndex;
; 388  : 		map->GetParamBlock()->GetValue(noise_function_type, t, curIndex, intvalid);

	mov	rax, QWORD PTR map$[rsp]
	mov	rax, QWORD PTR [rax]
	mov	rcx, QWORD PTR map$[rsp]
	call	QWORD PTR [rax+136]
	mov	QWORD PTR tv342[rsp], rax
	mov	rax, QWORD PTR tv342[rsp]
	mov	rax, QWORD PTR [rax]
	mov	DWORD PTR [rsp+40], 0
	lea	rcx, OFFSET FLAT:?intvalid@@3VInterval@@A
	mov	QWORD PTR [rsp+32], rcx
	lea	r9, QWORD PTR curIndex$3[rsp]
	mov	r8d, DWORD PTR t$[rsp]
	mov	dx, 13
	mov	rcx, QWORD PTR tv342[rsp]
	call	QWORD PTR [rax+1704]

; 389  : 		SendMessage(GetDlgItem(hWnd, IDC_NOISE_FUNCTION), CB_SETCURSEL, (WPARAM)curIndex, 0);

	movsxd	rax, DWORD PTR curIndex$3[rsp]
	mov	QWORD PTR tv352[rsp], rax
	mov	edx, 1003				; 000003ebH
	mov	rcx, QWORD PTR hWnd$[rsp]
	call	QWORD PTR __imp_GetDlgItem
	xor	r9d, r9d
	mov	rcx, QWORD PTR tv352[rsp]
	mov	r8, rcx
	mov	edx, 334				; 0000014eH
	mov	rcx, rax
	call	QWORD PTR __imp_SendMessageW

; 390  : 		map->GetParamBlock()->GetValue(worley_distance, t, curIndex, intvalid);

	mov	rax, QWORD PTR map$[rsp]
	mov	rax, QWORD PTR [rax]
	mov	rcx, QWORD PTR map$[rsp]
	call	QWORD PTR [rax+136]
	mov	QWORD PTR tv363[rsp], rax
	mov	rax, QWORD PTR tv363[rsp]
	mov	rax, QWORD PTR [rax]
	mov	DWORD PTR [rsp+40], 0
	lea	rcx, OFFSET FLAT:?intvalid@@3VInterval@@A
	mov	QWORD PTR [rsp+32], rcx
	lea	r9, QWORD PTR curIndex$3[rsp]
	mov	r8d, DWORD PTR t$[rsp]
	mov	dx, 14
	mov	rcx, QWORD PTR tv363[rsp]
	call	QWORD PTR [rax+1704]

; 391  : 		SendMessage(GetDlgItem(hWnd, IDC_WORLEY_DISTANCE), CB_SETCURSEL, (WPARAM)curIndex, 0);

	movsxd	rax, DWORD PTR curIndex$3[rsp]
	mov	QWORD PTR tv373[rsp], rax
	mov	edx, 1004				; 000003ecH
	mov	rcx, QWORD PTR hWnd$[rsp]
	call	QWORD PTR __imp_GetDlgItem
	xor	r9d, r9d
	mov	rcx, QWORD PTR tv373[rsp]
	mov	r8, rcx
	mov	edx, 334				; 0000014eH
	mov	rcx, rax
	call	QWORD PTR __imp_SendMessageW

; 392  : 		map->GetParamBlock()->GetValue(fractal_type, t, curIndex, intvalid);

	mov	rax, QWORD PTR map$[rsp]
	mov	rax, QWORD PTR [rax]
	mov	rcx, QWORD PTR map$[rsp]
	call	QWORD PTR [rax+136]
	mov	QWORD PTR tv384[rsp], rax
	mov	rax, QWORD PTR tv384[rsp]
	mov	rax, QWORD PTR [rax]
	mov	DWORD PTR [rsp+40], 0
	lea	rcx, OFFSET FLAT:?intvalid@@3VInterval@@A
	mov	QWORD PTR [rsp+32], rcx
	lea	r9, QWORD PTR curIndex$3[rsp]
	mov	r8d, DWORD PTR t$[rsp]
	xor	edx, edx
	mov	rcx, QWORD PTR tv384[rsp]
	call	QWORD PTR [rax+1704]

; 393  : 		SendMessage(GetDlgItem(hWnd, IDC_FRACTAL_TYPE), CB_SETCURSEL, (WPARAM)curIndex, 0);

	movsxd	rax, DWORD PTR curIndex$3[rsp]
	mov	QWORD PTR tv394[rsp], rax
	mov	edx, 1005				; 000003edH
	mov	rcx, QWORD PTR hWnd$[rsp]
	call	QWORD PTR __imp_GetDlgItem
	xor	r9d, r9d
	mov	rcx, QWORD PTR tv394[rsp]
	mov	r8, rcx
	mov	edx, 334				; 0000014eH
	mov	rcx, rax
	call	QWORD PTR __imp_SendMessageW

; 394  : 		map->GetParamBlock()->GetValue(uvw_dist, t, curIndex, intvalid);

	mov	rax, QWORD PTR map$[rsp]
	mov	rax, QWORD PTR [rax]
	mov	rcx, QWORD PTR map$[rsp]
	call	QWORD PTR [rax+136]
	mov	QWORD PTR tv405[rsp], rax
	mov	rax, QWORD PTR tv405[rsp]
	mov	rax, QWORD PTR [rax]
	mov	DWORD PTR [rsp+40], 0
	lea	rcx, OFFSET FLAT:?intvalid@@3VInterval@@A
	mov	QWORD PTR [rsp+32], rcx
	lea	r9, QWORD PTR curIndex$3[rsp]
	mov	r8d, DWORD PTR t$[rsp]
	mov	dx, 12
	mov	rcx, QWORD PTR tv405[rsp]
	call	QWORD PTR [rax+1704]

; 395  : 		SendMessage(GetDlgItem(hWnd, IDC_DIST_UVW), CB_SETCURSEL, (WPARAM)curIndex, 0);

	movsxd	rax, DWORD PTR curIndex$3[rsp]
	mov	QWORD PTR tv415[rsp], rax
	mov	edx, 1007				; 000003efH
	mov	rcx, QWORD PTR hWnd$[rsp]
	call	QWORD PTR __imp_GetDlgItem
	xor	r9d, r9d
	mov	rcx, QWORD PTR tv415[rsp]
	mov	r8, rcx
	mov	edx, 334				; 0000014eH
	mov	rcx, rax
	call	QWORD PTR __imp_SendMessageW
$LN2@DlgProc:

; 396  : 		break;
; 397  : 	}
; 398  : 
; 399  : 	}
; 400  : 	return FALSE;

	xor	eax, eax

; 401  : }

	mov	rcx, QWORD PTR __$ArrayPad$[rsp]
	xor	rcx, rsp
	call	__security_check_cookie
	add	rsp, 216				; 000000d8H
	ret	0
?DlgProc@BerconNoiseDlgProc@@UEAA_JHPEAVIParamMap2@@PEAUHWND__@@I_K_J@Z ENDP ; BerconNoiseDlgProc::DlgProc
_TEXT	ENDS
; Function compile flags: /Odtp
; File c:\users\james\source\repos\berconmaps\src\berconnoise.cpp
;	COMDAT ??0BerconNoiseDlgProc@@QEAA@PEAVBerconNoise@@@Z
_TEXT	SEGMENT
$T1 = 32
this$ = 64
m$ = 72
??0BerconNoiseDlgProc@@QEAA@PEAVBerconNoise@@@Z PROC	; BerconNoiseDlgProc::BerconNoiseDlgProc, COMDAT

; 325  : 	BerconNoiseDlgProc(BerconNoise *m) {berconNoise = m;}		

$LN4:
	mov	QWORD PTR [rsp+16], rdx
	mov	QWORD PTR [rsp+8], rcx
	sub	rsp, 56					; 00000038H
	mov	QWORD PTR $T1[rsp], -2
	mov	rcx, QWORD PTR this$[rsp]
	call	??0ParamMap2UserDlgProc@@QEAA@XZ
	npad	1
	mov	rax, QWORD PTR this$[rsp]
	lea	rcx, OFFSET FLAT:??_7BerconNoiseDlgProc@@6B@
	mov	QWORD PTR [rax], rcx
	mov	rax, QWORD PTR this$[rsp]
	mov	rcx, QWORD PTR m$[rsp]
	mov	QWORD PTR [rax+8], rcx
	mov	rax, QWORD PTR this$[rsp]
	add	rsp, 56					; 00000038H
	ret	0
??0BerconNoiseDlgProc@@QEAA@PEAVBerconNoise@@@Z ENDP	; BerconNoiseDlgProc::BerconNoiseDlgProc
_TEXT	ENDS
;	COMDAT text$x
text$x	SEGMENT
$T1 = 32
this$ = 64
m$ = 72
?dtor$0@?0???0BerconNoiseDlgProc@@QEAA@PEAVBerconNoise@@@Z@4HA PROC ; `BerconNoiseDlgProc::BerconNoiseDlgProc'::`1'::dtor$0
	push	rbp
	sub	rsp, 32					; 00000020H
	mov	rbp, rdx
	mov	rcx, QWORD PTR this$[rbp]
	call	??1ParamMap2UserDlgProc@@UEAA@XZ	; ParamMap2UserDlgProc::~ParamMap2UserDlgProc
	add	rsp, 32					; 00000020H
	pop	rbp
	ret	0
?dtor$0@?0???0BerconNoiseDlgProc@@QEAA@PEAVBerconNoise@@@Z@4HA ENDP ; `BerconNoiseDlgProc::BerconNoiseDlgProc'::`1'::dtor$0
text$x	ENDS
; Function compile flags: /Odtp
;	COMDAT text$x
text$x	SEGMENT
$T1 = 32
this$ = 64
m$ = 72
?dtor$0@?0???0BerconNoiseDlgProc@@QEAA@PEAVBerconNoise@@@Z@4HA PROC ; `BerconNoiseDlgProc::BerconNoiseDlgProc'::`1'::dtor$0
	push	rbp
	sub	rsp, 32					; 00000020H
	mov	rbp, rdx
	mov	rcx, QWORD PTR this$[rbp]
	call	??1ParamMap2UserDlgProc@@UEAA@XZ	; ParamMap2UserDlgProc::~ParamMap2UserDlgProc
	add	rsp, 32					; 00000020H
	pop	rbp
	ret	0
?dtor$0@?0???0BerconNoiseDlgProc@@QEAA@PEAVBerconNoise@@@Z@4HA ENDP ; `BerconNoiseDlgProc::BerconNoiseDlgProc'::`1'::dtor$0
text$x	ENDS
; Function compile flags: /Odtp
; File c:\users\james\source\repos\berconmaps\src\berconnoise.cpp
;	COMDAT ??1BerconNoiseDlgProc@@UEAA@XZ
_TEXT	SEGMENT
$T1 = 32
this$ = 64
??1BerconNoiseDlgProc@@UEAA@XZ PROC			; BerconNoiseDlgProc::~BerconNoiseDlgProc, COMDAT

; 323  : 	virtual ~BerconNoiseDlgProc() {}

$LN4:
	mov	QWORD PTR [rsp+8], rcx
	sub	rsp, 56					; 00000038H
	mov	QWORD PTR $T1[rsp], -2
	mov	rax, QWORD PTR this$[rsp]
	lea	rcx, OFFSET FLAT:??_7BerconNoiseDlgProc@@6B@
	mov	QWORD PTR [rax], rcx
	mov	rcx, QWORD PTR this$[rsp]
	call	??1ParamMap2UserDlgProc@@UEAA@XZ	; ParamMap2UserDlgProc::~ParamMap2UserDlgProc
	npad	1
	add	rsp, 56					; 00000038H
	ret	0
??1BerconNoiseDlgProc@@UEAA@XZ ENDP			; BerconNoiseDlgProc::~BerconNoiseDlgProc
_TEXT	ENDS
;	COMDAT text$x
text$x	SEGMENT
$T1 = 32
this$ = 64
?dtor$0@?0???1BerconNoiseDlgProc@@UEAA@XZ@4HA PROC	; `BerconNoiseDlgProc::~BerconNoiseDlgProc'::`1'::dtor$0
	push	rbp
	sub	rsp, 32					; 00000020H
	mov	rbp, rdx
	mov	rcx, QWORD PTR this$[rbp]
	call	??1ParamMap2UserDlgProc@@UEAA@XZ	; ParamMap2UserDlgProc::~ParamMap2UserDlgProc
	add	rsp, 32					; 00000020H
	pop	rbp
	ret	0
?dtor$0@?0???1BerconNoiseDlgProc@@UEAA@XZ@4HA ENDP	; `BerconNoiseDlgProc::~BerconNoiseDlgProc'::`1'::dtor$0
text$x	ENDS
; Function compile flags: /Odtp
;	COMDAT text$x
text$x	SEGMENT
$T1 = 32
this$ = 64
?dtor$0@?0???1BerconNoiseDlgProc@@UEAA@XZ@4HA PROC	; `BerconNoiseDlgProc::~BerconNoiseDlgProc'::`1'::dtor$0
	push	rbp
	sub	rsp, 32					; 00000020H
	mov	rbp, rdx
	mov	rcx, QWORD PTR this$[rbp]
	call	??1ParamMap2UserDlgProc@@UEAA@XZ	; ParamMap2UserDlgProc::~ParamMap2UserDlgProc
	add	rsp, 32					; 00000020H
	pop	rbp
	ret	0
?dtor$0@?0???1BerconNoiseDlgProc@@UEAA@XZ@4HA ENDP	; `BerconNoiseDlgProc::~BerconNoiseDlgProc'::`1'::dtor$0
text$x	ENDS
; Function compile flags: /Odtp
;	COMDAT ??_GBerconCurveDlgProcNOISE@@UEAAPEAXI@Z
_TEXT	SEGMENT
this$ = 48
__flags$ = 56
??_GBerconCurveDlgProcNOISE@@UEAAPEAXI@Z PROC		; BerconCurveDlgProcNOISE::`scalar deleting destructor', COMDAT
$LN7:
	mov	DWORD PTR [rsp+16], edx
	mov	QWORD PTR [rsp+8], rcx
	sub	rsp, 40					; 00000028H
	mov	rcx, QWORD PTR this$[rsp]
	call	??1BerconCurveDlgProcNOISE@@UEAA@XZ	; BerconCurveDlgProcNOISE::~BerconCurveDlgProcNOISE
	mov	eax, DWORD PTR __flags$[rsp]
	and	eax, 1
	test	eax, eax
	je	SHORT $LN2@scalar
	mov	eax, DWORD PTR __flags$[rsp]
	and	eax, 4
	test	eax, eax
	jne	SHORT $LN3@scalar
	mov	rcx, QWORD PTR this$[rsp]
	call	QWORD PTR __imp_??3MaxHeapOperators@@SAXPEAX@Z
	jmp	SHORT $LN5@scalar
	jmp	SHORT $LN4@scalar
$LN3@scalar:
	mov	edx, 16
	mov	rcx, QWORD PTR this$[rsp]
	call	?__global_delete@@YAXPEAX_K@Z		; __global_delete
$LN5@scalar:
$LN4@scalar:
$LN2@scalar:
	mov	rax, QWORD PTR this$[rsp]
	add	rsp, 40					; 00000028H
	ret	0
??_GBerconCurveDlgProcNOISE@@UEAAPEAXI@Z ENDP		; BerconCurveDlgProcNOISE::`scalar deleting destructor'
_TEXT	ENDS
; Function compile flags: /Odtp
;	COMDAT ?__autoclassinit2@BerconCurveDlgProcNOISE@@QEAAX_K@Z
_TEXT	SEGMENT
this$ = 16
classSize$ = 24
?__autoclassinit2@BerconCurveDlgProcNOISE@@QEAAX_K@Z PROC ; BerconCurveDlgProcNOISE::__autoclassinit2, COMDAT
$LN3:
	mov	QWORD PTR [rsp+16], rdx
	mov	QWORD PTR [rsp+8], rcx
	push	rdi
	mov	rdi, QWORD PTR this$[rsp]
	xor	eax, eax
	mov	rcx, QWORD PTR classSize$[rsp]
	rep stosb
	pop	rdi
	ret	0
?__autoclassinit2@BerconCurveDlgProcNOISE@@QEAAX_K@Z ENDP ; BerconCurveDlgProcNOISE::__autoclassinit2
_TEXT	ENDS
; Function compile flags: /Odtp
; File c:\users\james\source\repos\berconmaps\src\berconnoise.cpp
;	COMDAT ?SetThing@BerconCurveDlgProcNOISE@@UEAAXPEAVReferenceTarget@@@Z
_TEXT	SEGMENT
this$ = 48
m$ = 56
?SetThing@BerconCurveDlgProcNOISE@@UEAAXPEAVReferenceTarget@@@Z PROC ; BerconCurveDlgProcNOISE::SetThing, COMDAT

; 313  : 		void SetThing(ReferenceTarget *m) { 

$LN3:
	mov	QWORD PTR [rsp+16], rdx
	mov	QWORD PTR [rsp+8], rcx
	sub	rsp, 40					; 00000028H

; 314  : 			CurveCtrl::disable(berconNoise->curve); // Disable previously used curve

	mov	rax, QWORD PTR this$[rsp]
	mov	rax, QWORD PTR [rax+8]
	mov	rcx, QWORD PTR [rax+792]
	call	?disable@CurveCtrl@@SAXPEAVICurveCtl@@@Z ; CurveCtrl::disable

; 315  : 			berconNoise = (BerconNoise*)m;

	mov	rax, QWORD PTR this$[rsp]
	mov	rcx, QWORD PTR m$[rsp]
	mov	QWORD PTR [rax+8], rcx

; 316  : 		}

	add	rsp, 40					; 00000028H
	ret	0
?SetThing@BerconCurveDlgProcNOISE@@UEAAXPEAVReferenceTarget@@@Z ENDP ; BerconCurveDlgProcNOISE::SetThing
_TEXT	ENDS
; Function compile flags: /Odtp
; File c:\users\james\source\repos\berconmaps\src\berconnoise.cpp
;	COMDAT ?DeleteThis@BerconCurveDlgProcNOISE@@UEAAXXZ
_TEXT	SEGMENT
$T1 = 32
$T2 = 40
tv74 = 48
this$ = 80
?DeleteThis@BerconCurveDlgProcNOISE@@UEAAXXZ PROC	; BerconCurveDlgProcNOISE::DeleteThis, COMDAT

; 312  : 		void DeleteThis() {delete this;}

$LN5:
	mov	QWORD PTR [rsp+8], rcx
	sub	rsp, 72					; 00000048H
	mov	rax, QWORD PTR this$[rsp]
	mov	QWORD PTR $T2[rsp], rax
	mov	rax, QWORD PTR $T2[rsp]
	mov	QWORD PTR $T1[rsp], rax
	cmp	QWORD PTR $T1[rsp], 0
	je	SHORT $LN3@DeleteThis
	mov	rax, QWORD PTR $T1[rsp]
	mov	rax, QWORD PTR [rax]
	mov	edx, 1
	mov	rcx, QWORD PTR $T1[rsp]
	call	QWORD PTR [rax]
	mov	QWORD PTR tv74[rsp], rax
	jmp	SHORT $LN4@DeleteThis
$LN3@DeleteThis:
	mov	QWORD PTR tv74[rsp], 0
$LN4@DeleteThis:
	add	rsp, 72					; 00000048H
	ret	0
?DeleteThis@BerconCurveDlgProcNOISE@@UEAAXXZ ENDP	; BerconCurveDlgProcNOISE::DeleteThis
_TEXT	ENDS
; Function compile flags: /Odtp
; File c:\users\james\source\repos\berconmaps\src\berconnoise.cpp
;	COMDAT ?DlgProc@BerconCurveDlgProcNOISE@@UEAA_JHPEAVIParamMap2@@PEAUHWND__@@I_K_J@Z
_TEXT	SEGMENT
tv91 = 32
tv73 = 40
this$ = 64
t$ = 72
map$ = 80
hWnd$ = 88
msg$ = 96
wParam$ = 104
lParam$ = 112
?DlgProc@BerconCurveDlgProcNOISE@@UEAA_JHPEAVIParamMap2@@PEAUHWND__@@I_K_J@Z PROC ; BerconCurveDlgProcNOISE::DlgProc, COMDAT

; 298  : 		INT_PTR DlgProc(TimeValue t,IParamMap2 *map,HWND hWnd,UINT msg,WPARAM wParam,LPARAM lParam) {

$LN8:
	mov	QWORD PTR [rsp+32], r9
	mov	QWORD PTR [rsp+24], r8
	mov	DWORD PTR [rsp+16], edx
	mov	QWORD PTR [rsp+8], rcx
	sub	rsp, 56					; 00000038H

; 299  : 			if (berconNoise->curve->GetHWND() != GetDlgItem(hWnd, IDC_CURVE))

	mov	rax, QWORD PTR this$[rsp]
	mov	rax, QWORD PTR [rax+8]
	mov	rax, QWORD PTR [rax+792]
	mov	rcx, QWORD PTR this$[rsp]
	mov	rcx, QWORD PTR [rcx+8]
	mov	rcx, QWORD PTR [rcx+792]
	mov	rax, QWORD PTR [rax]
	call	QWORD PTR [rax+1360]
	mov	QWORD PTR tv73[rsp], rax
	mov	edx, 1008				; 000003f0H
	mov	rcx, QWORD PTR hWnd$[rsp]
	call	QWORD PTR __imp_GetDlgItem
	mov	rcx, QWORD PTR tv73[rsp]
	cmp	rcx, rax
	je	SHORT $LN4@DlgProc

; 300  : 				CurveCtrl::update(berconNoise->curve, GetDlgItem(hWnd, IDC_CURVE), static_cast<ReferenceMaker*>(berconNoise)); // Force update curve

	mov	edx, 1008				; 000003f0H
	mov	rcx, QWORD PTR hWnd$[rsp]
	call	QWORD PTR __imp_GetDlgItem
	mov	rcx, QWORD PTR this$[rsp]
	mov	rcx, QWORD PTR [rcx+8]
	mov	rdx, QWORD PTR this$[rsp]
	mov	r8, QWORD PTR [rdx+8]
	mov	rdx, rax
	mov	rcx, QWORD PTR [rcx+792]
	call	?update@CurveCtrl@@SAXPEAVICurveCtl@@PEAUHWND__@@PEAVReferenceMaker@@@Z ; CurveCtrl::update
$LN4@DlgProc:

; 301  : 			switch (msg) {

	mov	eax, DWORD PTR msg$[rsp]
	mov	DWORD PTR tv91[rsp], eax
	cmp	DWORD PTR tv91[rsp], 2
	je	SHORT $LN6@DlgProc
	cmp	DWORD PTR tv91[rsp], 24
	je	SHORT $LN5@DlgProc
	cmp	DWORD PTR tv91[rsp], 272		; 00000110H
	je	SHORT $LN5@DlgProc
	jmp	SHORT $LN2@DlgProc
$LN5@DlgProc:

; 302  : 				case WM_INITDIALOG:
; 303  : 				case WM_SHOWWINDOW:
; 304  : 					CurveCtrl::update(berconNoise->curve, GetDlgItem(hWnd, IDC_CURVE), static_cast<ReferenceMaker*>(berconNoise));					

	mov	edx, 1008				; 000003f0H
	mov	rcx, QWORD PTR hWnd$[rsp]
	call	QWORD PTR __imp_GetDlgItem
	mov	rcx, QWORD PTR this$[rsp]
	mov	rcx, QWORD PTR [rcx+8]
	mov	rdx, QWORD PTR this$[rsp]
	mov	r8, QWORD PTR [rdx+8]
	mov	rdx, rax
	mov	rcx, QWORD PTR [rcx+792]
	call	?update@CurveCtrl@@SAXPEAVICurveCtl@@PEAUHWND__@@PEAVReferenceMaker@@@Z ; CurveCtrl::update

; 305  : 					break;

	jmp	SHORT $LN2@DlgProc
$LN6@DlgProc:

; 306  : 				case WM_DESTROY:
; 307  : 					CurveCtrl::disable(berconNoise->curve);

	mov	rax, QWORD PTR this$[rsp]
	mov	rax, QWORD PTR [rax+8]
	mov	rcx, QWORD PTR [rax+792]
	call	?disable@CurveCtrl@@SAXPEAVICurveCtl@@@Z ; CurveCtrl::disable
$LN2@DlgProc:

; 308  : 					break;
; 309  : 			}
; 310  : 			return FALSE;

	xor	eax, eax

; 311  : 		}

	add	rsp, 56					; 00000038H
	ret	0
?DlgProc@BerconCurveDlgProcNOISE@@UEAA_JHPEAVIParamMap2@@PEAUHWND__@@I_K_J@Z ENDP ; BerconCurveDlgProcNOISE::DlgProc
_TEXT	ENDS
; Function compile flags: /Odtp
; File c:\users\james\source\repos\berconmaps\src\berconnoise.cpp
;	COMDAT ??0BerconCurveDlgProcNOISE@@QEAA@PEAVBerconNoise@@@Z
_TEXT	SEGMENT
$T1 = 32
this$ = 64
m$ = 72
??0BerconCurveDlgProcNOISE@@QEAA@PEAVBerconNoise@@@Z PROC ; BerconCurveDlgProcNOISE::BerconCurveDlgProcNOISE, COMDAT

; 297  : 		BerconCurveDlgProcNOISE(BerconNoise *m) {berconNoise = m;}		

$LN4:
	mov	QWORD PTR [rsp+16], rdx
	mov	QWORD PTR [rsp+8], rcx
	sub	rsp, 56					; 00000038H
	mov	QWORD PTR $T1[rsp], -2
	mov	rcx, QWORD PTR this$[rsp]
	call	??0ParamMap2UserDlgProc@@QEAA@XZ
	npad	1
	mov	rax, QWORD PTR this$[rsp]
	lea	rcx, OFFSET FLAT:??_7BerconCurveDlgProcNOISE@@6B@
	mov	QWORD PTR [rax], rcx
	mov	rax, QWORD PTR this$[rsp]
	mov	rcx, QWORD PTR m$[rsp]
	mov	QWORD PTR [rax+8], rcx
	mov	rax, QWORD PTR this$[rsp]
	add	rsp, 56					; 00000038H
	ret	0
??0BerconCurveDlgProcNOISE@@QEAA@PEAVBerconNoise@@@Z ENDP ; BerconCurveDlgProcNOISE::BerconCurveDlgProcNOISE
_TEXT	ENDS
;	COMDAT text$x
text$x	SEGMENT
$T1 = 32
this$ = 64
m$ = 72
?dtor$0@?0???0BerconCurveDlgProcNOISE@@QEAA@PEAVBerconNoise@@@Z@4HA PROC ; `BerconCurveDlgProcNOISE::BerconCurveDlgProcNOISE'::`1'::dtor$0
	push	rbp
	sub	rsp, 32					; 00000020H
	mov	rbp, rdx
	mov	rcx, QWORD PTR this$[rbp]
	call	??1ParamMap2UserDlgProc@@UEAA@XZ	; ParamMap2UserDlgProc::~ParamMap2UserDlgProc
	add	rsp, 32					; 00000020H
	pop	rbp
	ret	0
?dtor$0@?0???0BerconCurveDlgProcNOISE@@QEAA@PEAVBerconNoise@@@Z@4HA ENDP ; `BerconCurveDlgProcNOISE::BerconCurveDlgProcNOISE'::`1'::dtor$0
text$x	ENDS
; Function compile flags: /Odtp
;	COMDAT text$x
text$x	SEGMENT
$T1 = 32
this$ = 64
m$ = 72
?dtor$0@?0???0BerconCurveDlgProcNOISE@@QEAA@PEAVBerconNoise@@@Z@4HA PROC ; `BerconCurveDlgProcNOISE::BerconCurveDlgProcNOISE'::`1'::dtor$0
	push	rbp
	sub	rsp, 32					; 00000020H
	mov	rbp, rdx
	mov	rcx, QWORD PTR this$[rbp]
	call	??1ParamMap2UserDlgProc@@UEAA@XZ	; ParamMap2UserDlgProc::~ParamMap2UserDlgProc
	add	rsp, 32					; 00000020H
	pop	rbp
	ret	0
?dtor$0@?0???0BerconCurveDlgProcNOISE@@QEAA@PEAVBerconNoise@@@Z@4HA ENDP ; `BerconCurveDlgProcNOISE::BerconCurveDlgProcNOISE'::`1'::dtor$0
text$x	ENDS
; Function compile flags: /Odtp
; File c:\users\james\source\repos\berconmaps\src\berconnoise.cpp
;	COMDAT ??1BerconCurveDlgProcNOISE@@UEAA@XZ
_TEXT	SEGMENT
$T1 = 32
this$ = 64
??1BerconCurveDlgProcNOISE@@UEAA@XZ PROC		; BerconCurveDlgProcNOISE::~BerconCurveDlgProcNOISE, COMDAT

; 295  : 	virtual ~BerconCurveDlgProcNOISE() {}

$LN4:
	mov	QWORD PTR [rsp+8], rcx
	sub	rsp, 56					; 00000038H
	mov	QWORD PTR $T1[rsp], -2
	mov	rax, QWORD PTR this$[rsp]
	lea	rcx, OFFSET FLAT:??_7BerconCurveDlgProcNOISE@@6B@
	mov	QWORD PTR [rax], rcx
	mov	rcx, QWORD PTR this$[rsp]
	call	??1ParamMap2UserDlgProc@@UEAA@XZ	; ParamMap2UserDlgProc::~ParamMap2UserDlgProc
	npad	1
	add	rsp, 56					; 00000038H
	ret	0
??1BerconCurveDlgProcNOISE@@UEAA@XZ ENDP		; BerconCurveDlgProcNOISE::~BerconCurveDlgProcNOISE
_TEXT	ENDS
;	COMDAT text$x
text$x	SEGMENT
$T1 = 32
this$ = 64
?dtor$0@?0???1BerconCurveDlgProcNOISE@@UEAA@XZ@4HA PROC	; `BerconCurveDlgProcNOISE::~BerconCurveDlgProcNOISE'::`1'::dtor$0
	push	rbp
	sub	rsp, 32					; 00000020H
	mov	rbp, rdx
	mov	rcx, QWORD PTR this$[rbp]
	call	??1ParamMap2UserDlgProc@@UEAA@XZ	; ParamMap2UserDlgProc::~ParamMap2UserDlgProc
	add	rsp, 32					; 00000020H
	pop	rbp
	ret	0
?dtor$0@?0???1BerconCurveDlgProcNOISE@@UEAA@XZ@4HA ENDP	; `BerconCurveDlgProcNOISE::~BerconCurveDlgProcNOISE'::`1'::dtor$0
text$x	ENDS
; Function compile flags: /Odtp
;	COMDAT text$x
text$x	SEGMENT
$T1 = 32
this$ = 64
?dtor$0@?0???1BerconCurveDlgProcNOISE@@UEAA@XZ@4HA PROC	; `BerconCurveDlgProcNOISE::~BerconCurveDlgProcNOISE'::`1'::dtor$0
	push	rbp
	sub	rsp, 32					; 00000020H
	mov	rbp, rdx
	mov	rcx, QWORD PTR this$[rbp]
	call	??1ParamMap2UserDlgProc@@UEAA@XZ	; ParamMap2UserDlgProc::~ParamMap2UserDlgProc
	add	rsp, 32					; 00000020H
	pop	rbp
	ret	0
?dtor$0@?0???1BerconCurveDlgProcNOISE@@UEAA@XZ@4HA ENDP	; `BerconCurveDlgProcNOISE::~BerconCurveDlgProcNOISE'::`1'::dtor$0
text$x	ENDS
; Function compile flags: /Odtp
;	COMDAT ??__FBerconMap_param_blk@@YAXXZ
text$yd	SEGMENT
??__FBerconMap_param_blk@@YAXXZ PROC			; `dynamic atexit destructor for 'BerconMap_param_blk'', COMDAT
	sub	rsp, 40					; 00000028H
	lea	rcx, OFFSET FLAT:?BerconMap_param_blk@@3VParamBlockDesc2@@A
	call	QWORD PTR __imp_??1ParamBlockDesc2@@UEAA@XZ
	add	rsp, 40					; 00000028H
	ret	0
??__FBerconMap_param_blk@@YAXXZ ENDP			; `dynamic atexit destructor for 'BerconMap_param_blk''
text$yd	ENDS
; Function compile flags: /Odtp
; File c:\users\james\source\repos\berconmaps\src\berconnoise.cpp
;	COMDAT ??__EBerconMap_param_blk@@YAXXZ
text$di	SEGMENT
??__EBerconMap_param_blk@@YAXXZ PROC			; `dynamic initializer for 'BerconMap_param_blk'', COMDAT

; 290  : );

	sub	rsp, 2808				; 00000af8H

; 270  : static ParamBlockDesc2 BerconMap_param_blk ( BerconMap_params, _T("params"),  0, &BerconNoiseDesc, 

	mov	edx, 128				; 00000080H
	lea	rcx, OFFSET FLAT:?BerconMap_param_blk@@3VParamBlockDesc2@@A
	call	?__autoclassinit2@ParamBlockDesc2@@QEAAX_K@Z
	mov	DWORD PTR [rsp+2784], -1073740800	; ffffffffc0000400H
	mov	DWORD PTR [rsp+2776], -1073740800	; ffffffffc0000400H
	mov	DWORD PTR [rsp+2768], 1653		; 00000675H
	mov	DWORD PTR [rsp+2760], 2
	mov	DWORD PTR [rsp+2752], -1073741821	; ffffffffc0000003H
	mov	DWORD PTR [rsp+2744], 1
	mov	DWORD PTR [rsp+2736], -1073741824	; ffffffffc0000000H
	mov	DWORD PTR [rsp+2728], 102		; 00000066H
	mov	QWORD PTR [rsp+2720], 0
	mov	DWORD PTR [rsp+2712], 4
	lea	rax, OFFSET FLAT:$SG211850
	mov	QWORD PTR [rsp+2704], rax
	mov	DWORD PTR [rsp+2696], 27
	mov	DWORD PTR [rsp+2688], -1073740800	; ffffffffc0000400H
	mov	DWORD PTR [rsp+2680], 1046		; 00000416H
	mov	DWORD PTR [rsp+2672], 8
	mov	DWORD PTR [rsp+2664], -1073741821	; ffffffffc0000003H
	mov	DWORD PTR [rsp+2656], 17
	mov	DWORD PTR [rsp+2648], -1073741816	; ffffffffc0000008H
	mov	DWORD PTR [rsp+2640], 19
	mov	DWORD PTR [rsp+2632], -1073741817	; ffffffffc0000007H
	mov	DWORD PTR [rsp+2624], 86		; 00000056H
	mov	DWORD PTR [rsp+2616], 512		; 00000200H
	mov	DWORD PTR [rsp+2608], 15
	lea	rax, OFFSET FLAT:$SG211851
	mov	QWORD PTR [rsp+2600], rax
	mov	DWORD PTR [rsp+2592], 13
	mov	DWORD PTR [rsp+2584], -1073740800	; ffffffffc0000400H
	mov	DWORD PTR [rsp+2576], 1652		; 00000674H
	mov	DWORD PTR [rsp+2568], 2
	mov	DWORD PTR [rsp+2560], -1073741821	; ffffffffc0000003H
	mov	DWORD PTR [rsp+2552], 1
	mov	DWORD PTR [rsp+2544], -1073741824	; ffffffffc0000000H
	mov	DWORD PTR [rsp+2536], 101		; 00000065H
	mov	QWORD PTR [rsp+2528], 0
	mov	DWORD PTR [rsp+2520], 4
	lea	rax, OFFSET FLAT:$SG211852
	mov	QWORD PTR [rsp+2512], rax
	mov	DWORD PTR [rsp+2504], 26
	mov	DWORD PTR [rsp+2496], -1073740800	; ffffffffc0000400H
	mov	DWORD PTR [rsp+2488], 1045		; 00000415H
	mov	DWORD PTR [rsp+2480], 8
	mov	DWORD PTR [rsp+2472], -1073741821	; ffffffffc0000003H
	mov	DWORD PTR [rsp+2464], 16
	mov	DWORD PTR [rsp+2456], -1073741816	; ffffffffc0000008H
	mov	DWORD PTR [rsp+2448], 18
	mov	DWORD PTR [rsp+2440], -1073741817	; ffffffffc0000007H
	mov	DWORD PTR [rsp+2432], 85		; 00000055H
	mov	DWORD PTR [rsp+2424], 512		; 00000200H
	mov	DWORD PTR [rsp+2416], 15
	lea	rax, OFFSET FLAT:$SG211853
	mov	QWORD PTR [rsp+2408], rax
	mov	DWORD PTR [rsp+2400], 12
	mov	DWORD PTR [rsp+2392], -1073740800	; ffffffffc0000400H
	mov	DWORD PTR [rsp+2384], 1651		; 00000673H
	mov	DWORD PTR [rsp+2376], 2
	mov	DWORD PTR [rsp+2368], -1073741821	; ffffffffc0000003H
	mov	DWORD PTR [rsp+2360], 1
	mov	DWORD PTR [rsp+2352], -1073741824	; ffffffffc0000000H
	mov	DWORD PTR [rsp+2344], 100		; 00000064H
	mov	QWORD PTR [rsp+2336], 0
	mov	DWORD PTR [rsp+2328], 4
	lea	rax, OFFSET FLAT:$SG211854
	mov	QWORD PTR [rsp+2320], rax
	mov	DWORD PTR [rsp+2312], 25
	mov	DWORD PTR [rsp+2304], -1073740800	; ffffffffc0000400H
	mov	DWORD PTR [rsp+2296], 1044		; 00000414H
	mov	DWORD PTR [rsp+2288], 8
	mov	DWORD PTR [rsp+2280], -1073741821	; ffffffffc0000003H
	mov	DWORD PTR [rsp+2272], 15
	mov	DWORD PTR [rsp+2264], -1073741816	; ffffffffc0000008H
	mov	DWORD PTR [rsp+2256], 17
	mov	DWORD PTR [rsp+2248], -1073741817	; ffffffffc0000007H
	mov	DWORD PTR [rsp+2240], 84		; 00000054H
	mov	DWORD PTR [rsp+2232], 512		; 00000200H
	mov	DWORD PTR [rsp+2224], 15
	lea	rax, OFFSET FLAT:$SG211855
	mov	QWORD PTR [rsp+2216], rax
	mov	DWORD PTR [rsp+2208], 11
	mov	DWORD PTR [rsp+2200], -1073740800	; ffffffffc0000400H
	mov	DWORD PTR [rsp+2192], 1650		; 00000672H
	mov	DWORD PTR [rsp+2184], 2
	mov	DWORD PTR [rsp+2176], -1073741821	; ffffffffc0000003H
	mov	DWORD PTR [rsp+2168], 1
	mov	DWORD PTR [rsp+2160], -1073741824	; ffffffffc0000000H
	mov	DWORD PTR [rsp+2152], 99		; 00000063H
	mov	QWORD PTR [rsp+2144], 0
	mov	DWORD PTR [rsp+2136], 4
	lea	rax, OFFSET FLAT:$SG211856
	mov	QWORD PTR [rsp+2128], rax
