 BerconMaps

 Timestamp is 5aa99c48 (Wed Mar 14 18:03:52 2018)

 Preferred load address is 0000000180000000

 Start         Length     Name                   Class
 0001:00000000 00009210H .text$di                CODE
 0001:00009210 0003f840H .text$mn                CODE
 0001:00048a50 00000020H .text$mn$00             CODE
 0001:00048a70 00001110H .text$x                 CODE
 0001:00049b80 00000295H .text$yd                CODE
 0002:00000000 00000898H .idata$5                DATA
 0002:00000898 00000010H .00cfg                  DATA
 0002:000008a8 00000008H .CRT$XCA                DATA
 0002:000008b0 00000208H .CRT$XCU                DATA
 0002:00000ab8 00000008H .CRT$XCZ                DATA
 0002:00000ac0 00000008H .CRT$XIA                DATA
 0002:00000ac8 00000008H .CRT$XIC                DATA
 0002:00000ad0 00000008H .CRT$XIZ                DATA
 0002:00000ad8 00000008H .CRT$XLA                DATA
 0002:00000ae0 00000008H .CRT$XLZ                DATA
 0002:00000ae8 00000008H .CRT$XPA                DATA
 0002:00000af0 00000008H .CRT$XPZ                DATA
 0002:00000af8 00000008H .CRT$XTA                DATA
 0002:00000b00 00000010H .CRT$XTZ                DATA
 0002:00000b10 00007e78H .rdata                  DATA
 0002:00008988 00000028H .rdata$T                DATA
 0002:000089b0 00002114H .rdata$r                DATA
 0002:0000aac4 000003c4H .rdata$zzzdbg           DATA
 0002:0000ae88 00000008H .rtc$IAA                DATA
 0002:0000ae90 00000008H .rtc$IZZ                DATA
 0002:0000ae98 00000008H .rtc$TAA                DATA
 0002:0000aea0 00000010H .rtc$TZZ                DATA
 0002:0000aeb0 00003010H .xdata                  DATA
 0002:0000dec0 000001e0H .xdata$x                DATA
 0002:0000e0a0 000000ccH .edata                  DATA
 0002:0000e16c 000000b4H .idata$2                DATA
 0002:0000e220 00000018H .idata$3                DATA
 0002:0000e238 00000898H .idata$4                DATA
 0002:0000ead0 00002eb8H .idata$6                DATA
 0003:00000000 000004f0H .data                   DATA
 0003:000004f0 00000a60H .data$r                 DATA
 0003:00000f50 00001408H .bss                    DATA
 0004:00000000 00003180H .pdata                  DATA
 0005:00000000 00000034H .gfids$y                DATA
 0006:00000000 00000004H .tls                    DATA
 0006:00000004 00000004H .tls$                   DATA
 0006:00000008 00000001H .tls$ZZZ                DATA
 0007:00000000 00000910H .rsrc$01                DATA
 0007:00000910 00019ae8H .rsrc$02                DATA

  Address         Publics by Value              Rva+Base               Lib:Object

 0000:00000000       __guard_longjmp_count      0000000000000000     <absolute>
 0000:00000000       __guard_longjmp_table      0000000000000000     <absolute>
 0000:00000000       __guard_fids_count         0000000000000000     <absolute>
 0000:00000000       __guard_iat_count          0000000000000000     <absolute>
 0000:00000000       __guard_iat_table          0000000000000000     <absolute>
 0000:00000000       ___safe_se_handler_table   0000000000000000     <absolute>
 0000:00000000       __dynamic_value_reloc_table 0000000000000000     <absolute>
 0000:00000000       ___safe_se_handler_count   0000000000000000     <absolute>
 0000:00000000       __guard_fids_table         0000000000000000     <absolute>
 0000:00000100       __guard_flags              0000000000000100     <absolute>
 0000:00000000       __ImageBase                0000000180000000     <linker-defined>
 0001:00009210       ??0AssetId@AssetManagement@MaxSDK@@QEAA@XZ 000000018000a210 f i DllEntry.obj
 0001:00009240       ??0Class_ID@@QEAA@KK@Z     000000018000a240 f i DllEntry.obj
 0001:00009270       ??_H@YAXPEAX_K1P6APEAX0@Z@Z 000000018000a270 f i DllEntry.obj
 0001:000092d0       ?GetString@@YAPEA_WH@Z     000000018000a2d0 f   DllEntry.obj
 0001:00009330       ?LibClassDesc@@YAPEAVClassDesc@@H@Z 000000018000a330 f   DllEntry.obj
 0001:000093a0       ?LibDescription@@YAPEB_WXZ 000000018000a3a0 f   DllEntry.obj
 0001:000093c0       ?LibNumberClasses@@YAHXZ   000000018000a3c0 f   DllEntry.obj
 0001:000093d0       ?LibVersion@@YAKXZ         000000018000a3d0 f   DllEntry.obj
 0001:000093e0       DllMain                    000000018000a3e0 f   DllEntry.obj
 0001:00009430       ??0Matrix3@@QEAA@XZ        000000018000a430 f i BerconCommon.obj
 0001:00009450       ??AMatrix3@@QEBAAEBVPoint3@@H@Z 000000018000a450 f i BerconCommon.obj
 0001:00009480       ??D@YA?AVPoint3@@AEBV0@M@Z 000000018000a480 f i BerconCommon.obj
 0001:000094f0       ?EnableStuff@BerconXYZ@@AEAAXPEAVIParamBlock2@@H@Z 000000018000a4f0 f   BerconCommon.obj
 0001:000098e0       ?GetRow@Matrix3@@QEBA?AVPoint3@@H@Z 000000018000a8e0 f i BerconCommon.obj
 0001:00009920       ?SetEmpty@Interval@@QEAAXXZ 000000018000a920 f i BerconCommon.obj
 0001:00009940       ?get@BerconXYZ@@AEAAHAEAVShadeContext@@AEAVPoint3@@11VMatrix3@@PEAH@Z 000000018000a940 f   BerconCommon.obj
 0001:0000a180       ?get@BerconXYZ@@AEAAHAEAVShadeContext@@AEAVPoint3@@VMatrix3@@PEAH@Z 000000018000b180 f   BerconCommon.obj
 0001:0000a660       ?get@BerconXYZ@@QEAAHAEAVShadeContext@@AEAVPoint3@@11@Z 000000018000b660 f   BerconCommon.obj
 0001:0000a750       ?get@BerconXYZ@@QEAAHAEAVShadeContext@@AEAVPoint3@@11PEAV3@@Z 000000018000b750 f   BerconCommon.obj
 0001:0000ad20       ?get@BerconXYZ@@QEAAHAEAVShadeContext@@AEAVPoint3@@@Z 000000018000bd20 f   BerconCommon.obj
 0001:0000ade0       ?get@BerconXYZ@@QEAAHAEAVShadeContext@@AEAVPoint3@@PEAV3@@Z 000000018000bde0 f   BerconCommon.obj
 0001:0000b370       ?getBasis@BerconXYZ@@AEAAXVMatrix3@@PEAVPoint3@@@Z 000000018000c370 f   BerconCommon.obj
 0001:0000b5b0       ?isRealworld@BerconXYZ@@QEAAHXZ 000000018000c5b0 f i BerconCommon.obj
 0001:0000b5f0       ?random@BerconXYZ@@AEAA?AVMatrix3@@AEAVShadeContext@@PEAV2@@Z 000000018000c5f0 f   BerconCommon.obj
 0001:0000bb60       ?reset@BerconXYZ@@QEAAXPEAVIParamBlock2@@AEAVInterval@@HHHH@Z 000000018000cb60 f   BerconCommon.obj
 0001:0000c050       ?seedRandomGen@BerconXYZ@@AEAAXAEAVShadeContext@@@Z 000000018000d050 f   BerconCommon.obj
 0001:0000c720       ?update@BerconXYZ@@QEAAXPEAVIParamBlock2@@HAEAVInterval@@@Z 000000018000d720 f   BerconCommon.obj
 0001:0000d220       ?update@BerconXYZ@@QEAAXXZ 000000018000e220 f   BerconCommon.obj
 0001:0000d4f0       ??0?$Tab@PEAVBaseInterface@@@@QEAA@XZ 000000018000e4f0 f i BerconDistortion.obj
 0001:0000d4f0       ??0_Container_base12@std@@QEAA@XZ 000000018000e4f0 f i BerconTile.obj
 0001:0000d510       ??0AColor@@QEAA@AEBV0@@Z   000000018000e510 f i BerconDistortion.obj
 0001:0000d570       ??0AColor@@QEAA@HHHH@Z     000000018000e570 f i BerconDistortion.obj
 0001:0000d5d0       ??0AColor@@QEAA@MMMM@Z     000000018000e5d0 f i BerconDistortion.obj
 0001:0000d630       ??0?$allocator@M@std@@QEAA@XZ 000000018000e630 f i BerconTile.obj
 0001:0000d630       ??0_Bxty@?$_String_val@U?$_Simple_types@_W@std@@@std@@QEAA@XZ 000000018000e630 f i BerconTile.obj
 0001:0000d630       ??$_Unchecked@PEAM@std@@YAPEAMPEAM@Z 000000018000e630 f i tile.obj
 0001:0000d630       ??$_Unfancy@_W@std@@YAPEA_WPEA_W@Z 000000018000e630 f i BerconTile.obj
 0001:0000d630       ??$forward@AEAU?$_Wrap_alloc@V?$allocator@V?$basic_string@_WU?$char_traits@_W@std@@V?$allocator@_W@2@@std@@@std@@@std@@@std@@YAAEAU?$_Wrap_alloc@V?$allocator@V?$basic_string@_WU?$char_traits@_W@std@@V?$allocator@_W@2@@std@@@std@@@0@AEAU10@@Z 000000018000e630 f i tile.obj
 0001:0000d630       ??$forward@U_Container_proxy@std@@@std@@YA$$QEAU_Container_proxy@0@AEAU10@@Z 000000018000e630 f i BerconTile.obj
 0001:0000d630       ??$_Unfancy@V?$basic_string@_WU?$char_traits@_W@std@@V?$allocator@_W@2@@std@@@std@@YAPEAV?$basic_string@_WU?$char_traits@_W@std@@V?$allocator@_W@2@@0@PEAV10@@Z 000000018000e630 f i tile.obj
 0001:0000d630       ?_Get_second@?$_Compressed_pair@U?$_Wrap_alloc@V?$allocator@_W@std@@@std@@V?$_String_val@U?$_Simple_types@_W@std@@@2@$00@std@@QEBAAEBV?$_String_val@U?$_Simple_types@_W@std@@@2@XZ 000000018000e630 f i BerconTile.obj
 0001:0000d630       ??$forward@V?$vector@MV?$allocator@M@std@@@std@@@std@@YA$$QEAV?$vector@MV?$allocator@M@std@@@0@AEAV10@@Z 000000018000e630 f i tile.obj
 0001:0000d630       ??$addressof@PEA_W@std@@YAPEAPEA_WAEAPEA_W@Z 000000018000e630 f i BerconTile.obj
 0001:0000d630       ??$forward@AEAU?$_Wrap_alloc@V?$allocator@VTileRow@@@std@@@std@@@std@@YAAEAU?$_Wrap_alloc@V?$allocator@VTileRow@@@std@@@0@AEAU10@@Z 000000018000e630 f i BerconTile.obj
 0001:0000d630       ??0Color@@QEAA@XZ          000000018000e630 f i BerconDistortion.obj
 0001:0000d630       ??$addressof@$$CBM@std@@YAPEBMAEBM@Z 000000018000e630 f i tile.obj
 0001:0000d630       ??$addressof@V?$basic_string@_WU?$char_traits@_W@std@@V?$allocator@_W@2@@std@@@std@@YAPEAV?$basic_string@_WU?$char_traits@_W@std@@V?$allocator@_W@2@@0@AEAV10@@Z 000000018000e630 f i tile.obj
 0001:0000d630       ?_Get_first@?$_Compressed_pair@U?$_Wrap_alloc@V?$allocator@_W@std@@@std@@V?$_String_val@U?$_Simple_types@_W@std@@@2@$00@std@@QEBAAEBU?$_Wrap_alloc@V?$allocator@_W@std@@@2@XZ 000000018000e630 f i BerconTile.obj
 0001:0000d630       ?_Get_first@?$_Compressed_pair@U?$_Wrap_alloc@V?$allocator@_W@std@@@std@@V?$_String_val@U?$_Simple_types@_W@std@@@2@$00@std@@QEAAAEAU?$_Wrap_alloc@V?$allocator@_W@std@@@2@XZ 000000018000e630 f i BerconTile.obj
 0001:0000d630       ??$_Unfancy@U_Container_proxy@std@@@std@@YAPEAU_Container_proxy@0@PEAU10@@Z 000000018000e630 f i BerconTile.obj
 0001:0000d630       ?_Get_first@?$_Compressed_pair@U?$_Wrap_alloc@V?$allocator@V?$basic_string@_WU?$char_traits@_W@std@@V?$allocator@_W@2@@std@@@std@@@std@@V?$_Vector_val@U?$_Simple_types@V?$basic_string@_WU?$char_traits@_W@std@@V?$allocator@_W@2@@std@@@std@@@2@$00@std@@QEAAAEAU?$_Wrap_alloc@V?$allocator@V?$basic_string@_WU?$char_traits@_W@std@@V?$allocator@_W@2@@std@@@std@@@2@XZ 000000018000e630 f i tile.obj
 0001:0000d630       ??$forward@AEAVTileRow@@@std@@YAAEAVTileRow@@AEAV1@@Z 000000018000e630 f i tile.obj
 0001:0000d630       ??0?$allocator@VTileRow@@@std@@QEAA@XZ 000000018000e630 f i BerconTile.obj
 0001:0000d630       ?_Get_first@?$_Compressed_pair@U?$_Wrap_alloc@V?$allocator@M@std@@@std@@V?$_Vector_val@U?$_Simple_types@M@std@@@2@$00@std@@QEAAAEAU?$_Wrap_alloc@V?$allocator@M@std@@@2@XZ 000000018000e630 f i BerconTile.obj
 0001:0000d630       ??$_Unfancy@VTileRow@@@std@@YAPEAVTileRow@@PEAV1@@Z 000000018000e630 f i BerconTile.obj
 0001:0000d630       ??$move@AEAV?$basic_string@_WU?$char_traits@_W@std@@V?$allocator@_W@2@@std@@@std@@YA$$QEAV?$basic_string@_WU?$char_traits@_W@std@@V?$allocator@_W@2@@0@AEAV10@@Z 000000018000e630 f i tile.obj
 0001:0000d630       ??$forward@V?$allocator@_W@std@@@std@@YA$$QEAV?$allocator@_W@0@AEAV10@@Z 000000018000e630 f i tile.obj
 0001:0000d630       ??$forward@AEBV?$allocator@_W@std@@@std@@YAAEBV?$allocator@_W@0@AEBV10@@Z 000000018000e630 f i tile.obj
 0001:0000d630       ?_Get_second@?$_Compressed_pair@U?$_Wrap_alloc@V?$allocator@VTileRow@@@std@@@std@@V?$_Vector_val@U?$_Simple_types@VTileRow@@@std@@@2@$00@std@@QEBAAEBV?$_Vector_val@U?$_Simple_types@VTileRow@@@std@@@2@XZ 000000018000e630 f i BerconTile.obj
 0001:0000d630       ?_Get_second@?$_Compressed_pair@U?$_Wrap_alloc@V?$allocator@M@std@@@std@@V?$_Vector_val@U?$_Simple_types@M@std@@@2@$00@std@@QEBAAEBV?$_Vector_val@U?$_Simple_types@M@std@@@2@XZ 000000018000e630 f i BerconTile.obj
 0001:0000d630       ??$addressof@M@std@@YAPEAMAEAM@Z 000000018000e630 f i tile.obj
 0001:0000d630       ??$forward@AEAU?$_Wrap_alloc@V?$allocator@M@std@@@std@@@std@@YAAEAU?$_Wrap_alloc@V?$allocator@M@std@@@0@AEAU10@@Z 000000018000e630 f i BerconTile.obj
 0001:0000d630       ??$move@AEAU?$_Wrap_alloc@V?$allocator@M@std@@@std@@@std@@YA$$QEAU?$_Wrap_alloc@V?$allocator@M@std@@@0@AEAU10@@Z 000000018000e630 f i tile.obj
 0001:0000d630       ?_Get_first@?$_Compressed_pair@U?$_Wrap_alloc@V?$allocator@V?$basic_string@_WU?$char_traits@_W@std@@V?$allocator@_W@2@@std@@@std@@@std@@V?$_Vector_val@U?$_Simple_types@V?$basic_string@_WU?$char_traits@_W@std@@V?$allocator@_W@2@@std@@@std@@@2@$00@std@@QEBAAEBU?$_Wrap_alloc@V?$allocator@V?$basic_string@_WU?$char_traits@_W@std@@V?$allocator@_W@2@@std@@@std@@@2@XZ 000000018000e630 f i tile.obj
 0001:0000d630       ??$forward@AEBVTileRow@@@std@@YAAEBVTileRow@@AEBV1@@Z 000000018000e630 f i tile.obj
 0001:0000d630       ?_Get_first@?$_Compressed_pair@U?$_Wrap_alloc@V?$allocator@VTileRow@@@std@@@std@@V?$_Vector_val@U?$_Simple_types@VTileRow@@@std@@@2@$00@std@@QEBAAEBU?$_Wrap_alloc@V?$allocator@VTileRow@@@std@@@2@XZ 000000018000e630 f i tile.obj
 0001:0000d630       ?_Get_second@?$_Compressed_pair@U?$_Wrap_alloc@V?$allocator@VTileRow@@@std@@@std@@V?$_Vector_val@U?$_Simple_types@VTileRow@@@std@@@2@$00@std@@QEAAAEAV?$_Vector_val@U?$_Simple_types@VTileRow@@@std@@@2@XZ 000000018000e630 f i BerconTile.obj
 0001:0000d630       ??$addressof@$$CBVTileRow@@@std@@YAPEBVTileRow@@AEBV1@@Z 000000018000e630 f i tile.obj
 0001:0000d630       ??$forward@U?$_Wrap_alloc@V?$allocator@_W@std@@@std@@@std@@YA$$QEAU?$_Wrap_alloc@V?$allocator@_W@std@@@0@AEAU10@@Z 000000018000e630 f i tile.obj
 0001:0000d630       ??$addressof@U_Container_proxy@std@@@std@@YAPEAU_Container_proxy@0@AEAU10@@Z 000000018000e630 f i BerconTile.obj
 0001:0000d630       ??$_Unchecked@PEAVTileRow@@@std@@YAPEAVTileRow@@PEAV1@@Z 000000018000e630 f i tile.obj
 0001:0000d630       ??$forward@AEAPEA_W@std@@YAAEAPEA_WAEAPEA_W@Z 000000018000e630 f i BerconTile.obj
 0001:0000d630       ?_Get_first@?$_Compressed_pair@U?$_Wrap_alloc@V?$allocator@VTileRow@@@std@@@std@@V?$_Vector_val@U?$_Simple_types@VTileRow@@@std@@@2@$00@std@@QEAAAEAU?$_Wrap_alloc@V?$allocator@VTileRow@@@std@@@2@XZ 000000018000e630 f i BerconTile.obj
 0001:0000d630       ?_Get_second@?$_Compressed_pair@U?$_Wrap_alloc@V?$allocator@_W@std@@@std@@V?$_String_val@U?$_Simple_types@_W@std@@@2@$00@std@@QEAAAEAV?$_String_val@U?$_Simple_types@_W@std@@@2@XZ 000000018000e630 f i BerconTile.obj
 0001:0000d630       ?_Get_second@?$_Compressed_pair@U?$_Wrap_alloc@V?$allocator@V?$basic_string@_WU?$char_traits@_W@std@@V?$allocator@_W@2@@std@@@std@@@std@@V?$_Vector_val@U?$_Simple_types@V?$basic_string@_WU?$char_traits@_W@std@@V?$allocator@_W@2@@std@@@std@@@2@$00@std@@QEBAAEBV?$_Vector_val@U?$_Simple_types@V?$basic_string@_WU?$char_traits@_W@std@@V?$allocator@_W@2@@std@@@std@@@2@XZ 000000018000e630 f i tile.obj
 0001:0000d630       ?_Get_first@?$_Compressed_pair@U?$_Wrap_alloc@V?$allocator@M@std@@@std@@V?$_Vector_val@U?$_Simple_types@M@std@@@2@$00@std@@QEBAAEBU?$_Wrap_alloc@V?$allocator@M@std@@@2@XZ 000000018000e630 f i tile.obj
 0001:0000d630       ?_Get_second@?$_Compressed_pair@U?$_Wrap_alloc@V?$allocator@M@std@@@std@@V?$_Vector_val@U?$_Simple_types@M@std@@@2@$00@std@@QEAAAEAV?$_Vector_val@U?$_Simple_types@M@std@@@2@XZ 000000018000e630 f i BerconTile.obj
 0001:0000d630       ?_Get_second@?$_Compressed_pair@U?$_Wrap_alloc@V?$allocator@V?$basic_string@_WU?$char_traits@_W@std@@V?$allocator@_W@2@@std@@@std@@@std@@V?$_Vector_val@U?$_Simple_types@V?$basic_string@_WU?$char_traits@_W@std@@V?$allocator@_W@2@@std@@@std@@@2@$00@std@@QEAAAEAV?$_Vector_val@U?$_Simple_types@V?$basic_string@_WU?$char_traits@_W@std@@V?$allocator@_W@2@@std@@@std@@@2@XZ 000000018000e630 f i tile.obj
 0001:0000d630       ??$_Unchecked@PEAV?$basic_string@_WU?$char_traits@_W@std@@V?$allocator@_W@2@@std@@@std@@YAPEAV?$basic_string@_WU?$char_traits@_W@std@@V?$allocator@_W@2@@0@PEAV10@@Z 000000018000e630 f i tile.obj
 0001:0000d630       ??$move@AEAU?$_Wrap_alloc@V?$allocator@_W@std@@@std@@@std@@YA$$QEAU?$_Wrap_alloc@V?$allocator@_W@std@@@0@AEAU10@@Z 000000018000e630 f i tile.obj
 0001:0000d630       ??$forward@AEBM@std@@YAAEBMAEBM@Z 000000018000e630 f i tile.obj
 0001:0000d630       ??$move@AEAVTileRow@@@std@@YA$$QEAVTileRow@@AEAV1@@Z 000000018000e630 f i tile.obj
 0001:0000d630       ??0AColor@@QEAA@XZ         000000018000e630 f i BerconDistortion.obj
 0001:0000d630       ??$forward@V?$allocator@M@std@@@std@@YA$$QEAV?$allocator@M@0@AEAV10@@Z 000000018000e630 f i tile.obj
 0001:0000d630       ??0?$allocator@_W@std@@QEAA@XZ 000000018000e630 f i BerconTile.obj
 0001:0000d630       ??$forward@AEAM@std@@YAAEAMAEAM@Z 000000018000e630 f i tile.obj
 0001:0000d630       ??$forward@VTileRow@@@std@@YA$$QEAVTileRow@@AEAV1@@Z 000000018000e630 f i tile.obj
 0001:0000d630       ??0?$allocator@V?$basic_string@_WU?$char_traits@_W@std@@V?$allocator@_W@2@@std@@@std@@QEAA@XZ 000000018000e630 f i tile.obj
 0001:0000d630       ??$forward@M@std@@YA$$QEAMAEAM@Z 000000018000e630 f i tile.obj
 0001:0000d630       ??$forward@V?$basic_string@_WU?$char_traits@_W@std@@V?$allocator@_W@2@@std@@@std@@YA$$QEAV?$basic_string@_WU?$char_traits@_W@std@@V?$allocator@_W@2@@0@AEAV10@@Z 000000018000e630 f i tile.obj
 0001:0000d630       ??$forward@AEAU?$_Wrap_alloc@V?$allocator@_W@std@@@std@@@std@@YAAEAU?$_Wrap_alloc@V?$allocator@_W@std@@@0@AEAU10@@Z 000000018000e630 f i BerconTile.obj
 0001:0000d630       ??$forward@U?$_Wrap_alloc@V?$allocator@M@std@@@std@@@std@@YA$$QEAU?$_Wrap_alloc@V?$allocator@M@std@@@0@AEAU10@@Z 000000018000e630 f i tile.obj
 0001:0000d630       ??$_Unfancy@M@std@@YAPEAMPEAM@Z 000000018000e630 f i tile.obj
 0001:0000d640       ??0BaseInterfaceServer@@QEAA@XZ 000000018000e640 f i BerconDistortion.obj
 0001:0000d690       ??0BerconDistortion@@QEAA@XZ 000000018000e690 f   BerconDistortion.obj
 0001:0000d790       ??0BerconDistortionClassDesc@@QEAA@XZ 000000018000e790 f i BerconDistortion.obj
 0001:0000d7d0       ??0BerconSC@@QEAA@QEAVShadeContext@@@Z 000000018000e7d0 f i BerconDistortion.obj
 0001:0000d970       ??0BerconXYZ@@QEAA@XZ      000000018000e970 f i BerconDistortion.obj
 0001:0000da10       ??0BerconXYZDlgProc@@QEAA@PEAVReferenceTarget@@@Z 000000018000ea10 f i BerconDistortion.obj
 0001:0000da60       ??0Class_ID@@QEAA@XZ       000000018000ea60 f i BerconDistortion.obj
 0001:0000da90       ??0InterfaceServer@@QEAA@XZ 000000018000ea90 f i BerconDistortion.obj
 0001:0000dab0       ??0Interface_ID@@QEAA@AEBV0@@Z 000000018000eab0 f i BerconDistortion.obj
 0001:0000dae0       ??0Interval@@QEAA@XZ       000000018000eae0 f i BerconDistortion.obj
 0001:0000db00       ??0ParamMap2UserDlgProc@@QEAA@XZ 000000018000eb00 f i BerconDistortion.obj
 0001:0000db20       ??0ShadeContext@@QEAA@XZ   000000018000eb20 f i BerconDistortion.obj
 0001:0000dbd0       ??0ShadeOutput@@QEAA@XZ    000000018000ebd0 f i BerconDistortion.obj
 0001:0000dc70       ??0TabOutOfRangeException@Util@MaxSDK@@QEAA@AEBV012@@Z 000000018000ec70 f i BerconDistortion.obj
 0001:0000dcc0       ??0TabOutOfRangeException@Util@MaxSDK@@QEAA@PEB_W@Z 000000018000ecc0 f i BerconDistortion.obj
 0001:0000dd10       ??0XYZ_Desc@@QEAA@PEAVClassDesc2@@HHHHHHH@Z 000000018000ed10 f i BerconDistortion.obj
 0001:0000f380       ??1?$Tab@PEAVBaseInterface@@@@QEAA@XZ 0000000180010380 f i BerconDistortion.obj
 0001:0000f3b0       ??1BerconDistortion@@UEAA@XZ 00000001800103b0 f   BerconDistortion.obj
 0001:0000f400       ??1BerconDistortionClassDesc@@UEAA@XZ 0000000180010400 f i BerconDistortion.obj
 0001:0000f440       ??1BerconSC@@UEAA@XZ       0000000180010440 f i BerconDistortion.obj
 0001:0000f470       ??1BerconXYZDlgProc@@UEAA@XZ 0000000180010470 f i BerconDistortion.obj
 0001:0000f4a0       ??1ParamMap2UserDlgProc@@UEAA@XZ 00000001800104a0 f i BerconDistortion.obj
 0001:0000f4c0       ??1ShadeContext@@UEAA@XZ   00000001800104c0 f i BerconDistortion.obj
 0001:0000f500       ??1ShadeOutput@@UEAA@XZ    0000000180010500 f i BerconDistortion.obj
 0001:0000f530       ??1TabOutOfRangeException@Util@MaxSDK@@UEAA@XZ 0000000180010530 f i BerconDistortion.obj
 0001:0000f560       ??1Texmap@@UEAA@XZ         0000000180010560 f i BerconDistortion.obj
 0001:0000f590       ??1XYZ_Desc@@UEAA@XZ       0000000180010590 f i BerconDistortion.obj
 0001:0000f5c0       ??4ShadeOutput@@QEAAAEAV0@AEBV0@@Z 00000001800105c0 f i BerconDistortion.obj
 0001:0000f6b0       ??8Class_ID@@QEBA_NAEBV0@@Z 00000001800106b0 f i BerconDistortion.obj
 0001:0000f700       ??A?$Tab@PEAVFPInterface@@@@QEBAAEAPEAVFPInterface@@_J@Z 0000000180010700 f i BerconDistortion.obj
 0001:0000f770       ??_4Interval@@QEAAAEAV0@V0@@Z 0000000180010770 f i BerconDistortion.obj
 0001:0000f7a8       ??_EBerconDistortion@@WEA@EAAPEAXI@Z 00000001800107a8 f i BerconDistortion.obj
 0001:0000f7c0       ??_GBaseInterfaceServer@@UEAAPEAXI@Z 00000001800107c0 f i BerconDistortion.obj
 0001:0000f7c0       ??_EBaseInterfaceServer@@UEAAPEAXI@Z 00000001800107c0 f i BerconDistortion.obj
 0001:0000f820       ??_EBerconDistortion@@UEAAPEAXI@Z 0000000180010820 f i BerconDistortion.obj
 0001:0000f820       ??_GBerconDistortion@@UEAAPEAXI@Z 0000000180010820 f i BerconDistortion.obj
 0001:0000f880       ??_GBerconDistortionClassDesc@@UEAAPEAXI@Z 0000000180010880 f i BerconDistortion.obj
 0001:0000f880       ??_EBerconDistortionClassDesc@@UEAAPEAXI@Z 0000000180010880 f i BerconDistortion.obj
 0001:0000f8e0       ??_GBerconSC@@UEAAPEAXI@Z  00000001800108e0 f i BerconDistortion.obj
 0001:0000f8e0       ??_EBerconSC@@UEAAPEAXI@Z  00000001800108e0 f i BerconDistortion.obj
 0001:0000f940       ??_GBerconXYZDlgProc@@UEAAPEAXI@Z 0000000180010940 f i BerconDistortion.obj
 0001:0000f940       ??_EBerconXYZDlgProc@@UEAAPEAXI@Z 0000000180010940 f i BerconDistortion.obj
 0001:0000f9a0       ??_GInterfaceServer@@UEAAPEAXI@Z 00000001800109a0 f i BerconDistortion.obj
 0001:0000f9a0       ??_EInterfaceServer@@UEAAPEAXI@Z 00000001800109a0 f i BerconDistortion.obj
 0001:0000fa00       ??_EParamMap2UserDlgProc@@UEAAPEAXI@Z 0000000180010a00 f i BerconDistortion.obj
 0001:0000fa00       ??_GParamMap2UserDlgProc@@UEAAPEAXI@Z 0000000180010a00 f i BerconDistortion.obj
 0001:0000fa60       ??_GShadeContext@@UEAAPEAXI@Z 0000000180010a60 f i BerconDistortion.obj
 0001:0000fa60       ??_EShadeContext@@UEAAPEAXI@Z 0000000180010a60 f i BerconDistortion.obj
 0001:0000fac0       ??_GShadeOutput@@UEAAPEAXI@Z 0000000180010ac0 f i BerconDistortion.obj
 0001:0000fac0       ??_EShadeOutput@@UEAAPEAXI@Z 0000000180010ac0 f i BerconDistortion.obj
 0001:0000fb20       ??_GTabOutOfRangeException@Util@MaxSDK@@UEAAPEAXI@Z 0000000180010b20 f i BerconDistortion.obj
 0001:0000fb20       ??_ETabOutOfRangeException@Util@MaxSDK@@UEAAPEAXI@Z 0000000180010b20 f i BerconDistortion.obj
 0001:0000fb80       ??_EXYZ_Desc@@UEAAPEAXI@Z  0000000180010b80 f i BerconDistortion.obj
 0001:0000fb80       ??_GXYZ_Desc@@UEAAPEAXI@Z  0000000180010b80 f i BerconDistortion.obj
 0001:0000fbe0       ?ActivateTexDisplay@BerconDistortion@@UEAAXH@Z 0000000180010be0 f i BerconDistortion.obj
 0001:0000fc10       ?AdjustTangents@Animatable@@UEAAXVTrackHitRecord@@PEAVParamDimensionBase@@AEAVBox2@@MHMHHHK@Z 0000000180010c10 f i BerconDistortion.obj
 0001:0000fc30       ?AdjustTangents@Animatable@@UEAAXVTrackHitRecord@@PEAVParamDimensionBase@@MMK@Z 0000000180010c30 f i BerconDistortion.obj
 0001:0000fc50       ?Antialias@BerconSC@@UEAAHXZ 0000000180010c50 f i BerconDistortion.obj
 0001:0000fc80       ?CopyTrack@Animatable@@UEAAPEAVTrackClipObject@@VInterval@@K@Z 0000000180010c80 f i BerconDistortion.obj
 0001:0000fc80       ?AssignController@Animatable@@UEAAHPEAV1@H@Z 0000000180010c80 f i BerconDistortion.obj
 0001:0000fc80       ?CanCopyTrack@Animatable@@UEAAHVInterval@@K@Z 0000000180010c80 f i BerconDistortion.obj
 0001:0000fca0       ?BarycentricCoords@BerconSC@@UEAA?AVPoint3@@XZ 0000000180010ca0 f i BerconDistortion.obj
 0001:0000fce0       ?BarycentricCoords@ShadeContext@@UEAA?AVPoint3@@XZ 0000000180010ce0 f i BerconDistortion.obj
 0001:0000fd10       ?EndEditParams@Animatable@@UEAAXPEAVIObjParam@@KPEAV1@@Z 0000000180010d10 f i BerconDistortion.obj
 0001:0000fd10       ?BeginEditParams@Animatable@@UEAAXPEAVIObjParam@@KPEAV1@@Z 0000000180010d10 f i BerconDistortion.obj
 0001:0000fd30       ?BitMask@BitArray@@AEBA_KH@Z 0000000180010d30 f i BerconDistortion.obj
 0001:0000fd80       ?GetTransparencyHint@MtlBase@@UEAAHHAEAVInterval@@@Z 0000000180010d80 f i BerconDistortion.obj
 0001:0000fd80       ?BuildMaps@MtlBase@@UEAAHHAEAVRenderMapsContext@@@Z 0000000180010d80 f i BerconDistortion.obj
 0001:0000fda0       ?BumpBasisVectors@BerconSC@@UEAAHQEAVPoint3@@HH@Z 0000000180010da0 f i BerconDistortion.obj
 0001:0000fdf0       ?BumpBasisVectors@ShadeContext@@UEAAHQEAVPoint3@@HH@Z 0000000180010df0 f i BerconDistortion.obj
 0001:0000fe10       ?Node@ShadeContext@@UEAAPEAVINode@@XZ 0000000180010e10 f i BerconDistortion.obj
 0001:0000fe10       ?GetTheXYZGen@BerconNoise@@UEAAPEAVXYZGen@@XZ 0000000180010e10 f i BerconNoise.obj
 0001:0000fe10       ?GetTheUVGen@Texmap@@UEAAPEAVUVGen@@XZ 0000000180010e10 f i BerconDistortion.obj
 0001:0000fe10       ?SupportTimeOperations@Animatable@@UEAAHXZ 0000000180010e10 f i BerconDistortion.obj
 0001:0000fe10       ?IsMultiMtl@MtlBase@@UEAAHXZ 0000000180010e10 f i BerconDistortion.obj
 0001:0000fe10       ?IsManipulator@ClassDesc@@UEAAHXZ 0000000180010e10 f i BerconDistortion.obj
 0001:0000fe10       ?IsTextureSuperSampleOn@ShadeContext@@UEAAHXZ 0000000180010e10 f i BerconDistortion.obj
 0001:0000fe10       ?BypassPropertyLevel@Animatable@@UEAAHXZ 0000000180010e10 f i BerconDistortion.obj
 0001:0000fe10       ?TrackParamsType@Animatable@@UEAAHXZ 0000000180010e10 f i BerconDistortion.obj
 0001:0000fe10       ?DebugFile@ShadeContext@@UEAAPEAU_iobuf@@XZ 0000000180010e10 f i BerconDistortion.obj
 0001:0000fe10       ?InvisibleProperty@Animatable@@UEAAHXZ 0000000180010e10 f i BerconDistortion.obj
 0001:0000fe10       ?NumChildren@Animatable@@UEAAHXZ 0000000180010e10 f i BerconDistortion.obj
 0001:0000fe10       ?IsCurveSelected@Animatable@@UEAAHXZ 0000000180010e10 f i BerconDistortion.obj
 0001:0000fe10       ?GetTheXYZGen@Texmap@@UEAAPEAVXYZGen@@XZ 0000000180010e10 f i BerconDistortion.obj
 0001:0000fe10       ?BypassTreeView@Animatable@@UEAAHXZ 0000000180010e10 f i BerconDistortion.obj
 0001:0000fe10       ?GetUVWSource@Texmap@@UEAAHXZ 0000000180010e10 f i BerconDistortion.obj
 0001:0000fe10       ?HasClassParams@ClassDesc@@UEAAHXZ 0000000180010e10 f i BerconDistortion.obj
 0001:0000fe10       ?NumSelKeys@Animatable@@UEAAHXZ 0000000180010e10 f i BerconDistortion.obj
 0001:0000fe10       ?IsHighDynamicRange@Texmap@@UEBAHXZ 0000000180010e10 f i BerconDistortion.obj
 0001:0000fe10       ?NumActionTables@ClassDesc@@UEAAHXZ 0000000180010e10 f i BerconDistortion.obj
 0001:0000fe10       ?ProjType@ShadeContext@@UEAAHXZ 0000000180010e10 f i BerconDistortion.obj
 0001:0000fe10       ?IsSuperSampleOn@ShadeContext@@UEAAHXZ 0000000180010e10 f i BerconDistortion.obj
 0001:0000fe10       ?SetKeyBufferPresent@Animatable@@UEAAHXZ 0000000180010e10 f i BerconDistortion.obj
 0001:0000fe10       ?GetEvalObject@ShadeContext@@UEAAPEAVObject@@XZ 0000000180010e10 f i BerconDistortion.obj
 0001:0000fe10       ?GetNSuperSample@ShadeContext@@UEAAHXZ 0000000180010e10 f i BerconDistortion.obj
 0001:0000fe10       ?SupportsMultiMapsInViewport@MtlBase@@UEAAHXZ 0000000180010e10 f i BerconDistortion.obj
 0001:0000fe10       ?HandleOwnViewPerturb@Texmap@@UEAAHXZ 0000000180010e10 f i BerconDistortion.obj
 0001:0000fe10       ?Antialias@ShadeContext@@UEAAHXZ 0000000180010e10 f i BerconDistortion.obj
 0001:0000fe10       ?NeedsToSave@ClassDesc@@UEAAHXZ 0000000180010e10 f i BerconDistortion.obj
 0001:0000fe20       ?BypassTrackBar@Animatable@@UEAAHXZ 0000000180010e20 f i BerconDistortion.obj
 0001:0000fe50       ?CamFarRange@BerconSC@@UEAAMXZ 0000000180010e50 f i BerconDistortion.obj
 0001:0000fe80       ?CamNearRange@ShadeContext@@UEAAMXZ 0000000180010e80 f i BerconDistortion.obj
 0001:0000fe80       ?Curve@ShadeContext@@UEAAMXZ 0000000180010e80 f i BerconDistortion.obj
 0001:0000fe80       ?CamFarRange@ShadeContext@@UEAAMXZ 0000000180010e80 f i BerconDistortion.obj
 0001:0000fe80       ?RayConeAngle@ShadeContext@@UEAAMXZ 0000000180010e80 f i BerconDistortion.obj
 0001:0000fe90       ?CamNearRange@BerconSC@@UEAAMXZ 0000000180010e90 f i BerconDistortion.obj
 0001:0000fec0       ?CamPos@BerconSC@@UEAA?AVPoint3@@XZ 0000000180010ec0 f i BerconDistortion.obj
 0001:0000ff00       ?GetTrackVSpace@Animatable@@UEAAHH@Z 0000000180010f00 f i BerconDistortion.obj
 0001:0000ff00       ?CanAssignController@Animatable@@UEAAHH@Z 0000000180010f00 f i BerconDistortion.obj
 0001:0000ff00       ?CanTransferReference@ReferenceMaker@@UEAAHH@Z 0000000180010f00 f i BerconDistortion.obj
 0001:0000ff00       ?SubTexmapOn@ISubMap@@UEAAHH@Z 0000000180010f00 f i BerconDistortion.obj
 0001:0000ff00       ?LoadMapFiles@Texmap@@UEAAHH@Z 0000000180010f00 f i BerconDistortion.obj
 0001:0000ff10       ?CopySubTrack@Animatable@@UEAAPEAVTrackClipObject@@HVInterval@@K@Z 0000000180010f10 f i BerconDistortion.obj
 0001:0000ff10       ?CanCopySubTrack@Animatable@@UEAAHHVInterval@@K@Z 0000000180010f10 f i BerconDistortion.obj
 0001:0000ff30       ?SelectSubAnim@Animatable@@UEAAHH@Z 0000000180010f30 f i BerconDistortion.obj
 0001:0000ff30       ?CanDeleteSubAnim@Animatable@@UEAAHH@Z 0000000180010f30 f i BerconDistortion.obj
 0001:0000ff30       ?GetActionTable@ClassDesc@@UEAAPEAVActionTable@@H@Z 0000000180010f30 f i BerconDistortion.obj
 0001:0000ff30       ?ChildAnim@Animatable@@UEAAPEAV1@H@Z 0000000180010f30 f i BerconDistortion.obj
 0001:0000ff30       ?IsSubCurveSelected@Animatable@@UEAAHH@Z 0000000180010f30 f i BerconDistortion.obj
 0001:0000ff30       ?GetInterface@ResourceMakerCallback@@UEAAPEAXK@Z 0000000180010f30 f i BerconGradient.obj
 0001:0000ff30       ?IsKeySelected@Animatable@@UEAAHH@Z 0000000180010f30 f i BerconDistortion.obj
 0001:0000ff30       ?RenderEnd@Animatable@@UEAAHH@Z 0000000180010f30 f i BerconDistortion.obj
 0001:0000ff30       ?GetKeyTime@Animatable@@UEAAHH@Z 0000000180010f30 f i BerconDistortion.obj
 0001:0000ff40       ?ClassID@BerconDistortion@@UEAA?AVClass_ID@@XZ 0000000180010f40 f i BerconDistortion.obj
 0001:0000ff40       ?ClassID@BerconDistortionClassDesc@@UEAA?AVClass_ID@@XZ 0000000180010f40 f i BerconDistortion.obj
 0001:0000ff70       ?ClassID@BerconSC@@UEAA?AVClass_ID@@XZ 0000000180010f70 f i BerconDistortion.obj
 0001:0000ffa0       ?ClassID@ShadeContext@@UEAA?AVClass_ID@@XZ 0000000180010fa0 f i BerconDistortion.obj
 0001:0000ffd0       ?ClassName@BerconDistortionClassDesc@@UEAAPEB_WXZ 0000000180010fd0 f i BerconDistortion.obj
 0001:0000fff0       ?ClearInterfaces@ClassDesc@@UEAAXXZ 0000000180010ff0 f i BerconDistortion.obj
 0001:00010010       ?Clone@BerconDistortion@@UEAAPEAVReferenceTarget@@AEAVRemapDir@@@Z 0000000180011010 f   BerconDistortion.obj
 0001:000101d0       ?CopyKeysFromTime@Animatable@@UEAAXHHK@Z 00000001800111d0 f i BerconDistortion.obj
 0001:000101f0       ?Count@?$Tab@PEAVFPInterface@@@@QEBAHXZ 00000001800111f0 f i BerconDistortion.obj
 0001:00010210       ?Create@BerconDistortionClassDesc@@UEAAPEAXH@Z 0000000180011210 f i BerconDistortion.obj
 0001:00010280       ?ShouldPersistWeakRef@ReferenceMaker@@UEAAHPEAVReferenceTarget@@@Z 0000000180011280 f i BerconDistortion.obj
 0001:00010280       ?CanManipulate@ClassDesc@@UEAAHPEAVReferenceTarget@@@Z 0000000180011280 f i BerconDistortion.obj
 0001:00010280       ?EndCreate@ClassDesc@@UEAAHPEAVInterface@@@Z 0000000180011280 f i BerconDistortion.obj
 0001:00010280       ?GetUserDlgProc@ClassDesc@@UEAAPEAVParamMap2UserDlgProc@@PEAVParamBlockDesc2@@@Z 0000000180011280 f i BerconDistortion.obj
 0001:00010280       ?CanManipulateNode@ClassDesc@@UEAAHPEAVINode@@@Z 0000000180011280 f i BerconDistortion.obj
 0001:00010280       ?GetParamMap@ClassDesc@@UEAAPEAVIParamMap2@@PEAVParamBlockDesc2@@@Z 0000000180011280 f i BerconDistortion.obj
 0001:00010280       ?Load@ClassDesc@@UEAA?AW4IOResult@@PEAVILoad@@@Z 0000000180011280 f i BerconDistortion.obj
 0001:00010280       ?BeginCreate@ClassDesc@@UEAAHPEAVInterface@@@Z 0000000180011280 f i BerconDistortion.obj
 0001:00010280       ?SetDlgThing@BerconDistortion@@UEAAHPEAVParamDlg@@@Z 0000000180011280 f i BerconDistortion.obj
 0001:00010280       ?Save@ClassDesc@@UEAA?AW4IOResult@@PEAVISave@@@Z 0000000180011280 f i BerconDistortion.obj
 0001:00010280       ?CreateManipulator@ClassDesc@@UEAAPEAVManipulator@@PEAVINode@@@Z 0000000180011280 f i BerconDistortion.obj
 0001:00010290       ?CreateParamDlg@BerconDistortion@@UEAAPEAVParamDlg@@PEAUHWND__@@PEAVIMtlParams@@@Z 0000000180011290 f   BerconDistortion.obj
 0001:00010340       ?CreateQtWidget@ClassDesc2@@UEAAPEAVQMaxParamBlockWidget@MaxSDK@@AEAVReferenceMaker@@AEAVIParamBlock2@@FAEAVWStr@@AEAH3@Z 0000000180011340 f i BerconDistortion.obj
 0001:00010360       ?CurTime@BerconSC@@UEAAHXZ 0000000180011360 f i BerconDistortion.obj
 0001:00010390       ?Curve@BerconSC@@UEAAMXZ   0000000180011390 f i BerconDistortion.obj
 0001:000103c0       ?DP@BerconSC@@UEAA?AVPoint3@@XZ 00000001800113c0 f i BerconDistortion.obj
 0001:00010400       ?DP@BerconSC@@UEAAXAEAVPoint3@@0@Z 0000000180011400 f i BerconDistortion.obj
 0001:00010450       ?DPObj@BerconSC@@UEAA?AVPoint3@@XZ 0000000180011450 f i BerconDistortion.obj
 0001:00010490       ?DPObjRelBox@BerconSC@@UEAA?AVPoint3@@XZ 0000000180011490 f i BerconDistortion.obj
 0001:000104d0       ?DPdUVW@BerconSC@@UEAAXQEAVPoint3@@H@Z 00000001800114d0 f i BerconDistortion.obj
 0001:00010520       ?DUVW@BerconSC@@UEAA?AVPoint3@@H@Z 0000000180011520 f i BerconDistortion.obj
 0001:00010570       ?DebugFile@BerconSC@@UEAAPEAU_iobuf@@XZ 0000000180011570 f i BerconDistortion.obj
 0001:000105a0       ?DeleteSubAnim@Animatable@@UEAAXH@Z 00000001800115a0 f i BerconDistortion.obj
 0001:000105a0       ?SelectCurve@Animatable@@UEAAXH@Z 00000001800115a0 f i BerconDistortion.obj
 0001:000105a0       ?Update@ParamMap2UserDlgProc@@UEAAXH@Z 00000001800115a0 f i BerconDistortion.obj
 0001:000105a0       ?Enable@IGradient@@UEAAXH@Z 00000001800115a0 f i BerconGradient.obj
 0001:000105a0       ?DeleteKeys@Animatable@@UEAAXK@Z 00000001800115a0 f i BerconDistortion.obj
 0001:000105a0       ?CommitSetKeyBuffer@Animatable@@UEAAXH@Z 00000001800115a0 f i BerconDistortion.obj
 0001:000105a0       ?Enable2@IGradient@@UEAAXH@Z 00000001800115a0 f i BerconGradient.obj
 0001:000105a0       ?DeleteKeyAtTime@Animatable@@UEAAXH@Z 00000001800115a0 f i BerconDistortion.obj
 0001:000105a0       ?CloneSelectedKeys@Animatable@@UEAAXH@Z 00000001800115a0 f i BerconDistortion.obj
 0001:000105a0       ?DeleteKeyByIndex@Animatable@@UEAAXH@Z 00000001800115a0 f i BerconDistortion.obj
 0001:000105b0       ?DeleteThis@BerconTile@@UEAAXXZ 00000001800115b0 f i BerconTile.obj
 0001:000105b0       ?DeleteThis@BerconWoodDlgProc@@UEAAXXZ 00000001800115b0 f i BerconWood.obj
 0001:000105b0       ?DeleteThis@BerconNoise@@UEAAXXZ 00000001800115b0 f i BerconNoise.obj
 0001:000105b0       ?DeleteThis@BerconNoiseDlgProc@@UEAAXXZ 00000001800115b0 f i BerconNoise.obj
 0001:000105b0       ?DeleteMe@IGradient@@QEAAXXZ 00000001800115b0 f i BerconGradient.obj
 0001:000105b0       ?DeleteThis@BerconCurveDlgProcGRADIENT@@UEAAXXZ 00000001800115b0 f i BerconGradient.obj
 0001:000105b0       ?DeleteThis@BerconGradient@@UEAAXXZ 00000001800115b0 f i BerconGradient.obj
 0001:000105b0       ?DeleteThis@BerconCurveDlgProcNOISE@@UEAAXXZ 00000001800115b0 f i BerconNoise.obj
 0001:000105b0       ?DeleteThis@BerconGradientDlgProc@@UEAAXXZ 00000001800115b0 f i BerconGradient.obj
 0001:000105b0       ?DeleteThis@BerconDistortion@@UEAAXXZ 00000001800115b0 f i BerconDistortion.obj
 0001:000105b0       ?DeleteThis@BerconWood@@UEAAXXZ 00000001800115b0 f i BerconWood.obj
 0001:000105b0       ?DeleteThis@BerconTileDlgProc@@UEAAXXZ 00000001800115b0 f i BerconTile.obj
 0001:000105b0       ?DeleteThis@BerconCurveDlgProc@@UEAAXXZ 00000001800115b0 f i BerconWood.obj
 0001:000105b0       ?DeleteThis@BerconXYZDlgProc@@UEAAXXZ 00000001800115b0 f i BerconDistortion.obj
 0001:00010600       ?DiffuseIllum@BerconSC@@UEAA?AVColor@@XZ 0000000180011600 f i BerconDistortion.obj
 0001:00010640       ?DiscardTexHandle@BerconDistortion@@QEAAXXZ 0000000180011640 f i BerconDistortion.obj
 0001:00010690       ?DlgProc@BerconXYZDlgProc@@UEAA_JHPEAVIParamMap2@@PEAUHWND__@@I_K_J@Z 0000000180011690 f i BerconDistortion.obj
 0001:00010c80       ?DrawRepresentation@ClassDesc@@UEAA_NKPEAUHDC__@@AEAVBox2@@@Z 0000000180011c80 f i BerconDistortion.obj
 0001:00010ca0       ?EvalColor@BerconDistortion@@UEAA?AVAColor@@AEAVShadeContext@@@Z 0000000180011ca0 f   BerconDistortion.obj
 0001:00010e90       ?EvalEnvironMap@BerconSC@@UEAA?AVAColor@@PEAVTexmap@@VPoint3@@@Z 0000000180011e90 f i BerconDistortion.obj
 0001:00010f20       ?EvalGlobalEnvironMap@BerconSC@@UEAA?AVAColor@@VPoint3@@@Z 0000000180011f20 f i BerconDistortion.obj
 0001:00010fa0       ?EvalGlobalEnvironMap@ShadeContext@@UEAA?AVAColor@@VPoint3@@@Z 0000000180011fa0 f i BerconDistortion.obj
 0001:00010fe0       ?EvalMono@BerconDistortion@@UEAAMAEAVShadeContext@@@Z 0000000180011fe0 f   BerconDistortion.obj
 0001:000111b0       ?EvalNormalPerturb@BerconDistortion@@UEAA?AVPoint3@@AEAVShadeContext@@@Z 00000001800121b0 f   BerconDistortion.obj
 0001:000113a0       ?Execute@BerconSC@@UEAA_JH_K00@Z 00000001800123a0 f i BerconDistortion.obj
 0001:00011400       ?FaceNumber@BerconSC@@UEAAHXZ 0000000180012400 f i BerconDistortion.obj
 0001:00011430       ??$destroy@PEA_W@?$allocator@_W@std@@QEAAXPEAPEA_W@Z 0000000180012430 f i BerconTile.obj
 0001:00011430       ?SetParamBlock@ParamMap2UserDlgProc@@UEAAXPEAVIParamBlock2@@@Z 0000000180012430 f i BerconDistortion.obj
 0001:00011430       ??$destroy@U_Container_proxy@std@@@?$allocator@U_Container_proxy@std@@@std@@QEAAXPEAU_Container_proxy@1@@Z 0000000180012430 f i BerconTile.obj
 0001:00011430       ??3@YAXPEAX0@Z             0000000180012430 f i tile.obj
 0001:00011430       ?__global_delete@@YAXPEAX_K@Z 0000000180012430 f i DllEntry.obj
 0001:00011430       ?FlagKey@Animatable@@UEAAXVTrackHitRecord@@@Z 0000000180012430 f i BerconDistortion.obj
 0001:00011430       ?__empty_global_delete@@YAXPEAX_K@Z 0000000180012430 f i DllEntry.obj
 0001:00011430       ?EditClassParams@ClassDesc@@UEAAXPEAUHWND__@@@Z 0000000180012430 f i BerconDistortion.obj
 0001:00011430       ?SetNormal@ShadeContext@@UEAAXVPoint3@@@Z 0000000180012430 f i BerconDistortion.obj
 0001:00011430       ?SetThing@ParamMap2UserDlgProc@@UEAAXPEAVReferenceTarget@@@Z 0000000180012430 f i BerconDistortion.obj
 0001:00011430       ?TossCache@ShadeContext@@UEAAXPEAVTexmap@@@Z 0000000180012430 f i BerconDistortion.obj
 0001:00011430       ?RefAddedUndoRedo@ReferenceTarget@@UEAAXPEAVReferenceMaker@@@Z 0000000180012430 f i BerconDistortion.obj
 0001:00011440       ?GNormal@BerconSC@@UEAA?AVPoint3@@XZ 0000000180012440 f i BerconDistortion.obj
 0001:00011480       ?GetActiveTexHandle@BerconDistortion@@UEAA_KHAEAVTexHandleMaker@@@Z 0000000180012480 f   BerconDistortion.obj
 0001:00011590       ?GetBGColor@BerconSC@@UEAAXAEAVColor@@0H@Z 0000000180012590 f i BerconDistortion.obj
 0001:000115e0       ?GetBerconDistortionDesc@@YAPEAVClassDesc2@@XZ 00000001800125e0 f   BerconDistortion.obj
 0001:000115f0       ?GetCache@BerconSC@@UEAAHPEAVTexmap@@AEAM@Z 00000001800125f0 f i BerconDistortion.obj
 0001:00011640       ?GetCache@BerconSC@@UEAAHPEAVTexmap@@AEAVAColor@@@Z 0000000180012640 f i BerconDistortion.obj
 0001:00011690       ?GetCache@BerconSC@@UEAAHPEAVTexmap@@AEAVPoint3@@@Z 0000000180012690 f i BerconDistortion.obj
 0001:000116e0       ?GetCache@ShadeContext@@UEAAHPEAVTexmap@@AEAM@Z 00000001800126e0 f i BerconDistortion.obj
 0001:000116e0       ?SetCustomImageList@ResourceMakerCallback@@UEAAHAEAPEAU_IMAGELIST@@PEAVICurveCtl@@@Z 00000001800126e0 f i BerconGradient.obj
 0001:000116e0       ?GetCache@ShadeContext@@UEAAHPEAVTexmap@@AEAVPoint3@@@Z 00000001800126e0 f i BerconDistortion.obj
 0001:000116e0       ?CreateManipulator@ClassDesc@@UEAAPEAVManipulator@@PEAVReferenceTarget@@PEAVINode@@@Z 00000001800126e0 f i BerconDistortion.obj
 0001:000116e0       ?GetCache@ShadeContext@@UEAAHPEAVTexmap@@AEAVAColor@@@Z 00000001800126e0 f i BerconDistortion.obj
 0001:00011700       ?GetClassName@BerconDistortion@@UEAAXAEAVWStr@@@Z 0000000180012700 f i BerconDistortion.obj
 0001:00011730       ?GetEvalObject@BerconSC@@UEAAPEAVObject@@XZ 0000000180012730 f i BerconDistortion.obj
 0001:00011760       ?SetSelKeyCoordsExpr@Animatable@@UEAAHPEAVParamDimension@@PEB_W1K@Z 0000000180012760 f i BerconDistortion.obj
 0001:00011760       ?PaintFCurves@Animatable@@UEAAHPEAVParamDimensionBase@@PEAUHDC__@@AEAVBox2@@2MHMHK@Z 0000000180012760 f i BerconDistortion.obj
 0001:00011760       ?GetFCurveExtents@Animatable@@UEAAHPEAVParamDimensionBase@@AEAM1K@Z 0000000180012760 f i BerconDistortion.obj
 0001:00011780       ?GetIOR@BerconSC@@UEAAMXZ  0000000180012780 f i BerconDistortion.obj
 0001:000117b0       ?GetInterface@MtlBase@@UEAAPEAVBaseInterface@@VInterface_ID@@@Z 00000001800127b0 f i BerconDistortion.obj
 0001:000117f0       ?GetInterfaceAt@ClassDesc@@UEAAPEAVFPInterface@@H@Z 00000001800127f0 f i BerconDistortion.obj
 0001:00011820       ?GetKeyIndex@Animatable@@UEAAHH@Z 0000000180012820 f i BerconDistortion.obj
 0001:00011830       ?CanPasteTrack@Animatable@@UEAAHPEAVTrackClipObject@@VInterval@@K@Z 0000000180012830 f i BerconDistortion.obj
 0001:00011830       ?GetKeySelState@Animatable@@UEAAHAEAVBitArray@@VInterval@@K@Z 0000000180012830 f i BerconDistortion.obj
 0001:00011830       ?NotifyDependents@ReferenceMaker@@EEAA?AW4RefResult@@AEBVInterval@@_KIKHPEAVReferenceTarget@@@Z 0000000180012830 f i BerconDistortion.obj
 0001:00011830       ?GetKeyTimes@Animatable@@UEAAHAEAV?$Tab@H@@VInterval@@K@Z 0000000180012830 f i BerconDistortion.obj
 0001:00011850       ?GetMacroRecorderName@Animatable@@UEAA_N_NAEAVWStr@@@Z 0000000180012850 f i BerconDistortion.obj
 0001:00011870       ?GetNSuperSample@BerconSC@@UEAAHXZ 0000000180012870 f i BerconDistortion.obj
 0001:000118a0       ?GetNextKeyTime@Animatable@@UEAAHHKAEAH@Z 00000001800128a0 f i BerconDistortion.obj
 0001:000118c0       ?GetParamBlock@BerconDistortion@@UEAAPEAVIParamBlock2@@H@Z 00000001800128c0 f i BerconDistortion.obj
 0001:00011900       ?GetParamBlockByID@BerconDistortion@@UEAAPEAVIParamBlock2@@F@Z 0000000180012900 f i BerconDistortion.obj
 0001:00011970       ?GetParamDimension@Animatable@@UEAAPEAVParamDimension@@H@Z 0000000180012970 f i BerconDistortion.obj
 0001:00011990       ?GetRefTarget@MtlBase@@UEAAPEAVReferenceTarget@@XZ 0000000180012990 f i BerconDistortion.obj
 0001:000119a0       ?GetRenderElement@BerconSC@@UEAAPEAVIRenderElement@@H@Z 00000001800129a0 f i BerconDistortion.obj
 0001:000119e0       ?GetRenderElement@RenderGlobalContext@@QEAAPEAVIRenderElement@@H@Z 00000001800129e0 f i BerconDistortion.obj
 0001:00011a40       ?GetRenderElement@ShadeContext@@UEAAPEAVIRenderElement@@H@Z 0000000180012a40 f i BerconDistortion.obj
 0001:00011a90       ?GetSampleSizeScale@BerconSC@@UEAAMXZ 0000000180012a90 f i BerconDistortion.obj
 0001:00011ac0       ?GetIOR@ShadeContext@@UEAAMXZ 0000000180012ac0 f i BerconDistortion.obj
 0001:00011ac0       ?GetSampleSizeScale@ShadeContext@@UEAAMXZ 0000000180012ac0 f i BerconDistortion.obj
 0001:00011ad0       ?GetSelKeyCoords@Animatable@@UEAAHAEAHAEAMK@Z 0000000180012ad0 f i BerconDistortion.obj
 0001:00011af0       ?GetSubAnimCurveColor@Animatable@@UEAAKH@Z 0000000180012af0 f i BerconDistortion.obj
 0001:00011b00       ?GetToolTip@ResourceMakerCallback@@UEAAHHAEAVWStr@@PEAVICurveCtl@@@Z 0000000180012b00 f i BerconGradient.obj
 0001:00011b00       ?Execute@ICustomControl@@UEAA_JH_K00@Z 0000000180012b00 f i BerconGradient.obj
 0001:00011b00       ?Execute@IGradient@@UEAA_JH_K00@Z 0000000180012b00 f i BerconGradient.obj
 0001:00011b00       ?CanPasteSubTrack@Animatable@@UEAAHHPEAVTrackClipObject@@VInterval@@K@Z 0000000180012b00 f i BerconDistortion.obj
 0001:00011b00       ?GetSubFCurveExtents@Animatable@@UEAAHHPEAVParamDimensionBase@@AEAM1K@Z 0000000180012b00 f i BerconDistortion.obj
 0001:00011b00       ?PaintSubFCurves@Animatable@@UEAAHHPEAVParamDimensionBase@@PEAUHDC__@@AEAVBox2@@2MHMHK@Z 0000000180012b00 f i BerconDistortion.obj
 0001:00011b00       ?Execute@ShadeContext@@UEAA_JH_K00@Z 0000000180012b00 f i BerconDistortion.obj
 0001:00011b00       ?Execute@ClassDesc@@UEAA_JH_K00@Z 0000000180012b00 f i BerconDistortion.obj
 0001:00011b20       ?GetSubTexmap@BerconDistortion@@UEAAPEAVTexmap@@H@Z 0000000180012b20 f i BerconDistortion.obj
 0001:00011b40       ?GetSubTexmapSlotName@BerconDistortion@@UEAA?AVWStr@@H@Z 0000000180012b40 f   BerconDistortion.obj
 0001:00011c30       ?GetTextureTiling@Texmap@@UEAAHXZ 0000000180012c30 f i BerconDistortion.obj
 0001:00011c30       ?NumSubTexmaps@BerconDistortion@@UEAAHXZ 0000000180012c30 f i BerconDistortion.obj
 0001:00011c30       ?NumParamBlocks@BerconTile@@UEAAHXZ 0000000180012c30 f i BerconTile.obj
 0001:00011c30       ?NumParamBlocks@BerconGradient@@UEAAHXZ 0000000180012c30 f i BerconGradient.obj
 0001:00011c40       ?GetUVTransform@Texmap@@UEAAXAEAVMatrix3@@@Z 0000000180012c40 f i BerconDistortion.obj
 0001:00011c60       ?HitTestFCurves@Animatable@@UEAAHPEAVParamDimensionBase@@AEAV?$Tab@VTrackHitRecord@@@@AEAVBox2@@2MHMHK@Z 0000000180012c60 f i BerconDistortion.obj
 0001:00011c80       ?HitTestSubFCurves@Animatable@@UEAAHHPEAVParamDimensionBase@@AEAV?$Tab@VTrackHitRecord@@@@AEAVBox2@@2MHMHK@Z 0000000180012c80 f i BerconDistortion.obj
 0001:00011ca0       ?InMtlEditor@BerconSC@@UEAAHXZ 0000000180012ca0 f i BerconDistortion.obj
 0001:00011cd0       ?InitSlotType@Texmap@@UEAAXH@Z 0000000180012cd0 f i BerconDistortion.obj
 0001:00011cf0       ?InitialRollupPageState@ClassDesc@@UEAAKXZ 0000000180012cf0 f i BerconDistortion.obj
 0001:00011d00       ?InsertTime@Animatable@@UEAAXHH@Z 0000000180012d00 f i BerconDistortion.obj
 0001:00011d00       ?SelectSubCurve@Animatable@@UEAAXHH@Z 0000000180012d00 f i BerconDistortion.obj
 0001:00011d00       ?SelectKeyByIndex@Animatable@@UEAAXHH@Z 0000000180012d00 f i BerconDistortion.obj
 0001:00011d00       ?AddNewKey@Animatable@@UEAAXHK@Z 0000000180012d00 f i BerconDistortion.obj
 0001:00011d10       ?InternalName@BerconDistortionClassDesc@@UEAAPEB_WXZ 0000000180012d10 f i BerconDistortion.obj
 0001:00011d20       ?RenderBegin@Animatable@@UEAAHHK@Z 0000000180012d20 f i BerconDistortion.obj
 0001:00011d20       ?IsKeyAtTime@Animatable@@UEAAHHK@Z 0000000180012d20 f i BerconDistortion.obj
 0001:00011d40       ?IsLocalOutputMeaningful@Texmap@@UEAA_NAEAVShadeContext@@@Z 0000000180012d40 f i BerconDistortion.obj
 0001:00011d50       ?IsParamBlockDesc2Used@Animatable@@UEAA_NPEAVParamBlockDesc2@@@Z 0000000180012d50 f i BerconDistortion.obj
 0001:00011d60       ?IsRealDependency@ReferenceMaker@@UEAAHPEAVReferenceTarget@@@Z 0000000180012d60 f i BerconDistortion.obj
 0001:00011d60       ?OkToCreate@ClassDesc@@UEAAHPEAVInterface@@@Z 0000000180012d60 f i BerconDistortion.obj
 0001:00011d70       ?IsSubClassOf@Animatable@@UEAAHVClass_ID@@@Z 0000000180012d70 f i BerconDistortion.obj
 0001:00011db0       ?IsSuperSampleOn@BerconSC@@UEAAHXZ 0000000180012db0 f i BerconDistortion.obj
 0001:00011de0       ?IsTextureSuperSampleOn@BerconSC@@UEAAHXZ 0000000180012de0 f i BerconDistortion.obj
 0001:00011e10       ?Light@BerconSC@@UEAAPEAVLightDesc@@H@Z 0000000180012e10 f i BerconDistortion.obj
 0001:00011e50       ?LocalRequirements@BerconDistortion@@UEAAKH@Z 0000000180012e50 f i BerconDistortion.obj
 0001:00011e80       ?MapSlotType@Texmap@@UEAAHH@Z 0000000180012e80 f i BerconDistortion.obj
 0001:00011ea0       ?MappingsRequired@BerconDistortion@@UEAAXHAEAVBitArray@@0@Z 0000000180012ea0 f i BerconDistortion.obj
 0001:00011ee0       ?MoveKeys@Animatable@@UEAAXPEAVParamDimensionBase@@MK@Z 0000000180012ee0 f i BerconDistortion.obj
 0001:00011f00       ?NRenderElements@BerconSC@@UEAAHXZ 0000000180012f00 f i BerconDistortion.obj
 0001:00011f30       ?NRenderElements@RenderGlobalContext@@QEAAHXZ 0000000180012f30 f i BerconDistortion.obj
 0001:00011f80       ?NRenderElements@ShadeContext@@UEAAHXZ 0000000180012f80 f i BerconDistortion.obj
 0001:00011fc0       ?Node@BerconSC@@UEAAPEAVINode@@XZ 0000000180012fc0 f i BerconDistortion.obj
 0001:00011ff0       ?NodeID@BerconSC@@UEAAHXZ  0000000180012ff0 f i BerconDistortion.obj
 0001:00012020       ?Normal@BerconSC@@UEAA?AVPoint3@@XZ 0000000180013020 f i BerconDistortion.obj
 0001:00012060       ?NotifyForeground@ReferenceTarget@@UEAAXH@Z 0000000180013060 f i BerconDistortion.obj
 0001:000120e0       ?NotifyRefChanged@BerconDistortion@@UEAA?AW4RefResult@@AEBVInterval@@PEAVReferenceTarget@@AEA_KIH@Z 00000001800130e0 f   BerconDistortion.obj
 0001:00012190       ?NumInterfaces@ClassDesc@@UEAAHXZ 0000000180013190 f i BerconDistortion.obj
 0001:000121b0       ?NodeID@ShadeContext@@UEAAHXZ 00000001800131b0 f i BerconDistortion.obj
 0001:000121b0       ?GetFlagKeyIndex@Animatable@@UEAAHXZ 00000001800131b0 f i BerconDistortion.obj
 0001:000121b0       ?NumKeys@Animatable@@UEAAHXZ 00000001800131b0 f i BerconDistortion.obj
 0001:000121c0       ?NumParamBlocks@BerconDistortion@@UEAAHXZ 00000001800131c0 f i BerconDistortion.obj
 0001:000121d0       ?NumSubs@BerconDistortion@@UEAAHXZ 00000001800131d0 f i BerconDistortion.obj
 0001:000121d0       ?NumRefs@BerconDistortion@@UEAAHXZ 00000001800131d0 f i BerconDistortion.obj
 0001:000121e0       ?ObjectBox@BerconSC@@UEAA?AVBox3@@XZ 00000001800131e0 f i BerconDistortion.obj
 0001:00012220       ?OrigNormal@BerconSC@@UEAA?AVPoint3@@XZ 0000000180013220 f i BerconDistortion.obj
 0001:00012260       ?OrigNormal@ShadeContext@@UEAA?AVPoint3@@XZ 0000000180013260 f i BerconDistortion.obj
 0001:00012290       ?OrigView@BerconSC@@UEAA?AVPoint3@@XZ 0000000180013290 f i BerconDistortion.obj
 0001:000122d0       ?OrigView@ShadeContext@@UEAA?AVPoint3@@XZ 00000001800132d0 f i BerconDistortion.obj
 0001:00012300       ?P@BerconSC@@UEAA?AVPoint3@@XZ 0000000180013300 f i BerconDistortion.obj
 0001:00012390       ?PObj@BerconSC@@UEAA?AVPoint3@@XZ 0000000180013390 f i BerconDistortion.obj
 0001:00012420       ?PObjRelBox@BerconSC@@UEAA?AVPoint3@@XZ 0000000180013420 f i BerconDistortion.obj
 0001:00012460       ?PaintSubTrack@Animatable@@UEAAHHPEAVParamDimensionBase@@PEAUHDC__@@AEAVBox2@@2MHK@Z 0000000180013460 f i BerconDistortion.obj
 0001:00012480       ?PaintTrack@Animatable@@UEAAHPEAVParamDimensionBase@@PEAUHDC__@@AEAVBox2@@2MHK@Z 0000000180013480 f i BerconDistortion.obj
 0001:00012480       ?HitTestTrack@Animatable@@UEAAHAEAV?$Tab@VTrackHitRecord@@@@AEAVBox2@@1MHK@Z 0000000180013480 f i BerconDistortion.obj
 0001:000124a0       ?SetupGfxMultiMaps@MtlBase@@UEAAXHPEAVMaterial@@AEAVMtlMakerCallback@@@Z 00000001800134a0 f i BerconDistortion.obj
 0001:000124a0       ?EditTrackParams@Animatable@@UEAAXHPEAVParamDimensionBase@@PEB_WPEAUHWND__@@PEAVIObjParam@@K@Z 00000001800134a0 f i BerconDistortion.obj
 0001:000124a0       ?LocalMappingsRequired@MtlBase@@UEAAXHAEAVBitArray@@0@Z 00000001800134a0 f i BerconDistortion.obj
 0001:000124a0       ?PasteSubTrack@Animatable@@UEAAXHPEAVTrackClipObject@@VInterval@@K@Z 00000001800134a0 f i BerconDistortion.obj
 0001:000124c0       ?PasteTrack@Animatable@@UEAAXPEAVTrackClipObject@@VInterval@@K@Z 00000001800134c0 f i BerconDistortion.obj
 0001:000124e0       ?PointFrom@BerconSC@@UEAA?AVPoint3@@AEBV2@W4RefFrame@@@Z 00000001800134e0 f i BerconDistortion.obj
 0001:00012540       ?PointTo@BerconSC@@UEAA?AVPoint3@@AEBV2@W4RefFrame@@@Z 0000000180013540 f i BerconDistortion.obj
 0001:000125a0       ?ProjType@BerconSC@@UEAAHXZ 00000001800135a0 f i BerconDistortion.obj
 0001:000125d0       ?PutCache@BerconSC@@UEAAXPEAVTexmap@@AEBVAColor@@@Z 00000001800135d0 f i BerconDistortion.obj
 0001:00012620       ?PutCache@BerconSC@@UEAAXPEAVTexmap@@AEBVPoint3@@@Z 0000000180013620 f i BerconDistortion.obj
 0001:00012670       ?PutCache@BerconSC@@UEAAXPEAVTexmap@@M@Z 0000000180013670 f i BerconDistortion.obj
 0001:000126c0       ?PutCache@ShadeContext@@UEAAXPEAVTexmap@@AEBVAColor@@@Z 00000001800136c0 f i BerconDistortion.obj
 0001:000126c0       ?PutCache@ShadeContext@@UEAAXPEAVTexmap@@AEBVPoint3@@@Z 00000001800136c0 f i BerconDistortion.obj
 0001:000126c0       ?DP@ShadeContext@@UEAAXAEAVPoint3@@0@Z 00000001800136c0 f i BerconDistortion.obj
 0001:000126d0       ?ScaleTime@Animatable@@UEAAXVInterval@@M@Z 00000001800136d0 f i BerconDistortion.obj
 0001:000126d0       ?PutCache@ShadeContext@@UEAAXPEAVTexmap@@M@Z 00000001800136d0 f i BerconDistortion.obj
 0001:000126f0       ?RayConeAngle@BerconSC@@UEAAMXZ 00000001800136f0 f i BerconDistortion.obj
 0001:00012720       ?RayDiam@BerconSC@@UEAAMXZ 0000000180013720 f i BerconDistortion.obj
 0001:00012750       ?RayDiam@ShadeContext@@UEAAMXZ 0000000180013750 f i BerconDistortion.obj
 0001:00012780       ?ReflectVector@BerconSC@@UEAA?AVPoint3@@XZ 0000000180013780 f i BerconDistortion.obj
 0001:000127c0       ?RefractVector@BerconSC@@UEAA?AVPoint3@@M@Z 00000001800137c0 f i BerconDistortion.obj
 0001:00012810       ?Reset@BerconDistortion@@UEAAXXZ 0000000180013810 f   BerconDistortion.obj
 0001:000128b0       ?ScaleKeyValues@Animatable@@UEAAXPEAVParamDimensionBase@@MMK@Z 00000001800138b0 f i BerconDistortion.obj
 0001:000128d0       ?ScreenCoord@BerconSC@@UEAA?AVIPoint2@@XZ 00000001800138d0 f i BerconDistortion.obj
 0001:00012910       ?ScreenUV@BerconSC@@UEAAXAEAVPoint2@@0@Z 0000000180013910 f i BerconDistortion.obj
 0001:00012990       ?SelectKeys@Animatable@@UEAAXAEAV?$Tab@VTrackHitRecord@@@@K@Z 0000000180013990 f i BerconDistortion.obj
 0001:00012990       ?GetSystemNodes@Animatable@@UEAAXAEAVINodeTab@@W4SysNodeContext@@@Z 0000000180013990 f i BerconDistortion.obj
 0001:00012990       ?ReverseTime@Animatable@@UEAAXVInterval@@K@Z 0000000180013990 f i BerconDistortion.obj
 0001:00012990       ?DeleteTime@Animatable@@UEAAXVInterval@@K@Z 0000000180013990 f i BerconDistortion.obj
 0001:00012990       ?EditTimeRange@Animatable@@UEAAXVInterval@@K@Z 0000000180013990 f i BerconDistortion.obj
 0001:000129a0       ?SelectSubKeys@Animatable@@UEAAXHAEAV?$Tab@VTrackHitRecord@@@@K@Z 00000001800139a0 f i BerconDistortion.obj
 0001:000129c0       ?Set@BitArray@@QEAAXH@Z    00000001800139c0 f i BerconDistortion.obj
 0001:00012a80       ?SetGBufferID@BerconSC@@UEAAXH@Z 0000000180013a80 f i BerconDistortion.obj
 0001:00012ac0       ?SetGBufferID@ShadeContext@@UEAAXH@Z 0000000180013ac0 f i BerconDistortion.obj
 0001:00012ae0       ?SetIOR@BerconSC@@UEAAXM@Z 0000000180013ae0 f i BerconDistortion.obj
 0001:00012b20       ?SetIOR@ShadeContext@@UEAAXM@Z 0000000180013b20 f i BerconDistortion.obj
 0001:00012b30       ?SetInfinite@Interval@@QEAAXXZ 0000000180013b30 f i BerconDistortion.obj
 0001:00012b50       ?SetNormal@BerconSC@@UEAAXVPoint3@@@Z 0000000180013b50 f i BerconDistortion.obj
 0001:00012bc0       ?SetOutputLevel@Texmap@@UEAAXHM@Z 0000000180013bc0 f i BerconDistortion.obj
 0001:00012bd0       ?SetReference@BerconDistortion@@UEAAXHPEAVReferenceTarget@@@Z 0000000180013bd0 f   BerconDistortion.obj
 0001:00012c40       ?SetSelKeyCoords@Animatable@@UEAAXHMK@Z 0000000180013c40 f i BerconDistortion.obj
 0001:00012c60       ?SetSubTexmap@BerconDistortion@@UEAAXHPEAVTexmap@@@Z 0000000180013c60 f   BerconDistortion.obj
 0001:00012d30       ?SetThing@BerconXYZDlgProc@@UEAAXPEAVReferenceTarget@@@Z 0000000180013d30 f i BerconDistortion.obj
 0001:00012d50       ?SetUserDlgProc@ClassDesc2@@UEAA_NPEAVParamBlockDesc2@@PEAVParamMap2UserDlgProc@@@Z 0000000180013d50 f i BerconDistortion.obj
 0001:00012d80       ?SetUserDlgProc@ParamBlockDesc2@@QEAAXPEAVParamMap2UserDlgProc@@@Z 0000000180013d80 f i BerconDistortion.obj
 0001:00012db0       ?SetView@BerconSC@@UEAAXVPoint3@@@Z 0000000180013db0 f i BerconDistortion.obj
 0001:00012e20       ?GetReference@BerconDistortion@@UEAAPEAVReferenceTarget@@H@Z 0000000180013e20 f   BerconDistortion.obj
 0001:00012e20       ?SubAnim@BerconDistortion@@UEAAPEAVAnimatable@@H@Z 0000000180013e20 f   BerconDistortion.obj
 0001:00012e80       ?SubAnimName@BerconDistortion@@UEAA?AVWStr@@H@Z 0000000180013e80 f   BerconDistortion.obj
 0001:00012f50       ?SubClassID@ClassDesc@@UEAA?AVClass_ID@@XZ 0000000180013f50 f i BerconDistortion.obj
 0001:00012f80       ?SurfacePtScreen@BerconSC@@UEAA?AVPoint2@@XZ 0000000180013f80 f i BerconDistortion.obj
 0001:00012fc0       ?SurfacePtScreen@ShadeContext@@UEAA?AVPoint2@@XZ 0000000180013fc0 f i BerconDistortion.obj
 0001:00012ff0       ?TossCache@BerconSC@@UEAAXPEAVTexmap@@@Z 0000000180013ff0 f i BerconDistortion.obj
 0001:00013030       ?TrackViewWinProc@Animatable@@UEAA_JPEAUHWND__@@I_K_J@Z 0000000180014030 f i BerconDistortion.obj
 0001:00013050       ?UVW@BerconSC@@UEAA?AVPoint3@@H@Z 0000000180014050 f i BerconDistortion.obj
 0001:000131c0       ?UVWNormal@BerconSC@@UEAA?AVPoint3@@H@Z 00000001800141c0 f i BerconDistortion.obj
 0001:00013210       ?UVWNormal@ShadeContext@@UEAA?AVPoint3@@H@Z 0000000180014210 f i BerconDistortion.obj
 0001:00013250       ?Update@BerconDistortion@@UEAAXHAEAVInterval@@@Z 0000000180014250 f   BerconDistortion.obj
 0001:000134a0       ?Update@ParamMap2UserDlgProc@@UEAAXHAEAVInterval@@PEAVIParamMap2@@@Z 00000001800144a0 f i BerconDistortion.obj
 0001:000134d0       ?UseLocalBits@BitArray@@AEBA_NXZ 00000001800144d0 f i BerconDistortion.obj
 0001:00013500       ?UseOnlyInternalNameForMAXScriptExposure@ClassDesc@@UEAA_NXZ 0000000180014500 f i BerconDistortion.obj
 0001:00013510       ?V@BerconSC@@UEAA?AVPoint3@@XZ 0000000180014510 f i BerconDistortion.obj
 0001:00013550       ?Validity@BerconDistortion@@UEAA?AVInterval@@H@Z 0000000180014550 f   BerconDistortion.obj
 0001:000135d0       ?VectorFrom@BerconSC@@UEAA?AVPoint3@@AEBV2@W4RefFrame@@@Z 00000001800145d0 f i BerconDistortion.obj
 0001:00013630       ?VectorFromNoScale@BerconSC@@UEAA?AVPoint3@@AEBV2@W4RefFrame@@@Z 0000000180014630 f i BerconDistortion.obj
 0001:00013690       ?VectorTo@BerconSC@@UEAA?AVPoint3@@AEBV2@W4RefFrame@@@Z 0000000180014690 f i BerconDistortion.obj
 0001:000136f0       ?VectorToNoScale@BerconSC@@UEAA?AVPoint3@@AEBV2@W4RefFrame@@@Z 00000001800146f0 f i BerconDistortion.obj
 0001:00013750       ?What@TabOutOfRangeException@Util@MaxSDK@@UEBAPEB_WXZ 0000000180014750 f i BerconDistortion.obj
 0001:00013790       ?ZeroCount@?$Tab@PEAVFPInterface@@@@QEAAXXZ 0000000180014790 f i BerconDistortion.obj
 0001:000137b0       ?__autoclassinit2@BerconTileDlgProc@@QEAAX_K@Z 00000001800147b0 f i BerconTile.obj
 0001:000137b0       ?__autoclassinit2@TileParam@@QEAAX_K@Z 00000001800147b0 f i BerconTile.obj
 0001:000137b0       ?__autoclassinit2@BerconWood@@QEAAX_K@Z 00000001800147b0 f i BerconWood.obj
 0001:000137b0       ?__autoclassinit2@?$vector@V?$basic_string@_WU?$char_traits@_W@std@@V?$allocator@_W@2@@std@@V?$allocator@V?$basic_string@_WU?$char_traits@_W@std@@V?$allocator@_W@2@@std@@@2@@std@@QEAAX_K@Z 00000001800147b0 f i tile.obj
 0001:000137b0       ?__autoclassinit2@BerconDistortionClassDesc@@QEAAX_K@Z 00000001800147b0 f i BerconDistortion.obj
 0001:000137b0       ?__autoclassinit2@BitArray@@QEAAX_K@Z 00000001800147b0 f i curvectrl.obj
 0001:000137b0       ?__autoclassinit2@BerconNoiseClassDesc@@QEAAX_K@Z 00000001800147b0 f i BerconNoise.obj
 0001:000137b0       ?__autoclassinit2@BerconWoodDlgProc@@QEAAX_K@Z 00000001800147b0 f i BerconWood.obj
 0001:000137b0       ?__autoclassinit2@BerconGradientDlgProc@@QEAAX_K@Z 00000001800147b0 f i BerconGradient.obj
 0001:000137b0       ?__autoclassinit2@BerconGradient@@QEAAX_K@Z 00000001800147b0 f i BerconGradient.obj
 0001:000137b0       ?__autoclassinit2@GradientRamp@@QEAAX_K@Z 00000001800147b0 f i BerconGradient.obj
 0001:000137b0       ?__autoclassinit2@BerconXYZDlgProc@@QEAAX_K@Z 00000001800147b0 f i BerconDistortion.obj
 0001:000137b0       ?__autoclassinit2@BerconNoiseDlgProc@@QEAAX_K@Z 00000001800147b0 f i BerconNoise.obj
 0001:000137b0       ?__autoclassinit2@BerconSC@@QEAAX_K@Z 00000001800147b0 f i BerconTile.obj
 0001:000137b0       ?__autoclassinit2@BerconGradientClassDesc@@QEAAX_K@Z 00000001800147b0 f i BerconGradient.obj
 0001:000137b0       ?__autoclassinit2@TileRow@@QEAAX_K@Z 00000001800147b0 f i tile.obj
 0001:000137b0       ?__autoclassinit2@IGradient@@QEAAX_K@Z 00000001800147b0 f i BerconGradient.obj
 0001:000137b0       ?__autoclassinit2@BerconWoodClassDesc@@QEAAX_K@Z 00000001800147b0 f i BerconWood.obj
 0001:000137b0       ?__autoclassinit2@BerconTile@@QEAAX_K@Z 00000001800147b0 f i BerconTile.obj
 0001:000137b0       ?__autoclassinit2@BerconCurveDlgProc@@QEAAX_K@Z 00000001800147b0 f i BerconWood.obj
 0001:000137b0       ?__autoclassinit2@BerconDistortion@@QEAAX_K@Z 00000001800147b0 f i BerconDistortion.obj
 0001:000137b0       ?__autoclassinit2@ParamBlockDesc2@@QEAAX_K@Z 00000001800147b0 f i BerconDistortion.obj
 0001:000137b0       ?__autoclassinit2@XYZ_Desc@@QEAAX_K@Z 00000001800147b0 f i BerconDistortion.obj
 0001:000137b0       ?__autoclassinit2@BerconTileClassDesc@@QEAAX_K@Z 00000001800147b0 f i BerconTile.obj
 0001:000137b0       ?__autoclassinit2@BerconCurveDlgProcNOISE@@QEAAX_K@Z 00000001800147b0 f i BerconNoise.obj
 0001:000137b0       ?__autoclassinit2@BerconNoise@@QEAAX_K@Z 00000001800147b0 f i BerconNoise.obj
 0001:000137b0       ?__autoclassinit2@?$basic_stringstream@_WU?$char_traits@_W@std@@V?$allocator@_W@2@@std@@QEAAX_K@Z 00000001800147b0 f i tile.obj
 0001:000137b0       ?__autoclassinit2@BerconCurveDlgProcGRADIENT@@QEAAX_K@Z 00000001800147b0 f i BerconGradient.obj
 0001:000137d0       ?chan@BerconXYZ@@QEAAHXZ   00000001800147d0 f i BerconDistortion.obj
 0001:000137e0       ?getDistVector@BerconDistortion@@QEAA?AVPoint3@@AEAVShadeContext@@@Z 00000001800147e0 f   BerconDistortion.obj
 0001:00013950       ?map@BerconXYZ@@QEAAXHAEAVBitArray@@0@Z 0000000180014950 f i BerconDistortion.obj
 0001:000139a0       ?req@BerconXYZ@@QEAAKXZ    00000001800149a0 f i BerconDistortion.obj
 0001:000139d0       ?setParams@BerconSC@@QEAAXVPoint3@@HH@Z 00000001800149d0 f i BerconDistortion.obj
 0001:00013a20       ?type@BerconXYZ@@QEAAHXZ   0000000180014a20 f i BerconDistortion.obj
 0001:00013a30       ??$DLSetWindowLongPtr@H@@YAHPEAUHWND__@@HH@Z 0000000180014a30 f i BerconGradient.obj
 0001:00013a60       ??$DLSetWindowLongPtr@PEAVIGradient@@@@YAPEAVIGradient@@PEAUHWND__@@PEAV0@H@Z 0000000180014a60 f i BerconGradient.obj
 0001:00013a90       ??0BerconCurveDlgProcGRADIENT@@QEAA@PEAVBerconGradient@@@Z 0000000180014a90 f i BerconGradient.obj
 0001:00013ae0       ??0BerconGradient@@QEAA@XZ 0000000180014ae0 f   BerconGradient.obj
 0001:00013d10       ??0BerconGradientClassDesc@@QEAA@XZ 0000000180014d10 f i BerconGradient.obj
 0001:00013d50       ??0BerconGradientDlgProc@@QEAA@PEAVBerconGradient@@@Z 0000000180014d50 f i BerconGradient.obj
 0001:00013db0       ??0Color@@QEAA@MMM@Z       0000000180014db0 f i BerconGradient.obj
 0001:00013e00       ??0Color@@QEAA@NNN@Z       0000000180014e00 f i BerconGradient.obj
 0001:00013e50       ??0GradientMap@@QEAA@XZ    0000000180014e50 f i BerconGradient.obj
 0001:00013e70       ??0GradientRamp@@QEAA@PEAVGradientMap@@@Z 0000000180014e70 f i BerconGradient.obj
 0001:00013f10       ??0ICustomControl@@QEAA@XZ 0000000180014f10 f i BerconGradient.obj
 0001:00013f50       ??0IGradient@@QEAA@PEAUHWND__@@PEAVGradientRamp@@@Z 0000000180014f50 f i BerconGradient.obj
 0001:00013ff0       ??0ResourceMakerCallback@@QEAA@XZ 0000000180014ff0 f i BerconGradient.obj
 0001:00014010       ??1BerconCurveDlgProcGRADIENT@@UEAA@XZ 0000000180015010 f i BerconGradient.obj
 0001:00014040       ??1BerconGradient@@UEAA@XZ 0000000180015040 f   BerconGradient.obj
 0001:00014110       ??1BerconGradientClassDesc@@UEAA@XZ 0000000180015110 f i BerconGradient.obj
 0001:00014150       ??1BerconGradientDlgProc@@UEAA@XZ 0000000180015150 f i BerconGradient.obj
 0001:00014180       ??1GradientRamp@@QEAA@XZ   0000000180015180 f i BerconGradient.obj
 0001:000141f0       ??1ICustomControl@@UEAA@XZ 00000001800151f0 f i BerconGradient.obj
 0001:00014220       ??1IGradient@@UEAA@XZ      0000000180015220 f i BerconGradient.obj
 0001:000142a0       ??4CurvePoint@@QEAAAEAV0@AEBV0@@Z 00000001800152a0 f i BerconGradient.obj
 0001:000142f4       ??_EBerconGradient@@WEA@EAAPEAXI@Z 00000001800152f4 f i BerconGradient.obj
 0001:00014300       ??_GBerconCurveDlgProcGRADIENT@@UEAAPEAXI@Z 0000000180015300 f i BerconGradient.obj
 0001:00014300       ??_EBerconCurveDlgProcGRADIENT@@UEAAPEAXI@Z 0000000180015300 f i BerconGradient.obj
 0001:00014360       ??_GBerconGradient@@UEAAPEAXI@Z 0000000180015360 f i BerconGradient.obj
 0001:00014360       ??_EBerconGradient@@UEAAPEAXI@Z 0000000180015360 f i BerconGradient.obj
 0001:000143c0       ??_EBerconGradientClassDesc@@UEAAPEAXI@Z 00000001800153c0 f i BerconGradient.obj
 0001:000143c0       ??_GBerconGradientClassDesc@@UEAAPEAXI@Z 00000001800153c0 f i BerconGradient.obj
 0001:00014420       ??_GBerconGradientDlgProc@@UEAAPEAXI@Z 0000000180015420 f i BerconGradient.obj
 0001:00014420       ??_EBerconGradientDlgProc@@UEAAPEAXI@Z 0000000180015420 f i BerconGradient.obj
 0001:00014480       ??_GGradientRamp@@QEAAPEAXI@Z 0000000180015480 f i BerconGradient.obj
 0001:000144c0       ??_EICustomControl@@UEAAPEAXI@Z 00000001800154c0 f i BerconGradient.obj
 0001:000144c0       ??_GICustomControl@@UEAAPEAXI@Z 00000001800154c0 f i BerconGradient.obj
 0001:00014520       ??_GIGradient@@UEAAPEAXI@Z 0000000180015520 f i BerconGradient.obj
 0001:00014520       ??_EIGradient@@UEAAPEAXI@Z 0000000180015520 f i BerconGradient.obj
 0001:00014580       ?ActivateTexDisplay@BerconGradient@@UEAAXH@Z 0000000180015580 f i BerconGradient.obj
 0001:000145b0       ?ClassID@BerconGradientClassDesc@@UEAA?AVClass_ID@@XZ 00000001800155b0 f i BerconGradient.obj
 0001:000145b0       ?ClassID@BerconGradient@@UEAA?AVClass_ID@@XZ 00000001800155b0 f i BerconGradient.obj
 0001:000145e0       ?ClassName@BerconGradientClassDesc@@UEAAPEB_WXZ 00000001800155e0 f i BerconGradient.obj
 0001:00014600       ?Clone@BerconGradient@@UEAAPEAVReferenceTarget@@AEAVRemapDir@@@Z 0000000180015600 f   BerconGradient.obj
 0001:000148d0       ?Create@BerconGradientClassDesc@@UEAAPEAXH@Z 00000001800158d0 f i BerconGradient.obj
 0001:00014940       ?CreateParamDlg@BerconGradient@@UEAAPEAVParamDlg@@PEAUHWND__@@PEAVIMtlParams@@@Z 0000000180015940 f   BerconGradient.obj
 0001:00014b30       ?DiscardTexHandle@BerconGradient@@QEAAXXZ 0000000180015b30 f i BerconGradient.obj
 0001:00014b80       ?DlgProc@BerconCurveDlgProcGRADIENT@@UEAA_JHPEAVIParamMap2@@PEAUHWND__@@I_K_J@Z 0000000180015b80 f i BerconGradient.obj
 0001:00014c90       ?DlgProc@BerconGradientDlgProc@@UEAA_JHPEAVIParamMap2@@PEAUHWND__@@I_K_J@Z 0000000180015c90 f   BerconGradient.obj
 0001:00015d60       ?DotProd@@YAMAEBVPoint3@@0@Z 0000000180016d60 f i BerconGradient.obj
 0001:00015db0       ?EnableStuff@BerconGradient@@QEAAXXZ 0000000180016db0 f   BerconGradient.obj
 0001:000164d0       ?EvalColor@BerconGradient@@UEAA?AVAColor@@AEAVShadeContext@@@Z 00000001800174d0 f   BerconGradient.obj
 0001:00016980       ?EvalNormalPerturb@BerconGradient@@UEAA?AVPoint3@@AEAVShadeContext@@@Z 0000000180017980 f   BerconGradient.obj
 0001:00017340       ?GetActiveTexHandle@BerconGradient@@UEAA_KHAEAVTexHandleMaker@@@Z 0000000180018340 f   BerconGradient.obj
 0001:00017450       ?GetBerconGradientDesc@@YAPEAVClassDesc2@@XZ 0000000180018450 f   BerconGradient.obj
 0001:00017460       ?GetClassName@BerconGradient@@UEAAXAEAVWStr@@@Z 0000000180018460 f i BerconGradient.obj
 0001:00017490       ?GetHwnd@IGradient@@UEAAPEAUHWND__@@XZ 0000000180018490 f i BerconGradient.obj
 0001:000174a0       ?GetParamBlock@BerconGradient@@UEAAPEAVIParamBlock2@@H@Z 00000001800184a0 f i BerconGradient.obj
 0001:00017500       ?GetParamBlockByID@BerconGradient@@UEAAPEAVIParamBlock2@@F@Z 0000000180018500 f i BerconGradient.obj
 0001:000175c0       ?GetReference@BerconGradient@@UEAAPEAVReferenceTarget@@H@Z 00000001800185c0 f   BerconGradient.obj
 0001:000176d0       ?GetSubTexmap@BerconGradient@@UEAAPEAVTexmap@@H@Z 00000001800186d0 f   BerconGradient.obj
 0001:00017750       ?GetSubTexmapSlotName@BerconGradient@@UEAA?AVWStr@@H@Z 0000000180018750 f   BerconGradient.obj
 0001:00017870       ?GetToolTip@BerconNoise@@UEAAHHAEAVWStr@@PEAVICurveCtl@@@Z 0000000180018870 f i BerconNoise.obj
 0001:00017870       ?GetToolTip@BerconWood@@UEAAHHAEAVWStr@@PEAVICurveCtl@@@Z 0000000180018870 f i BerconWood.obj
 0001:00017870       ?GetToolTip@BerconGradient@@UEAAHHAEAVWStr@@PEAVICurveCtl@@@Z 0000000180018870 f i BerconGradient.obj
 0001:00017890       ?GetTrans@Matrix3@@QEBAAEBVPoint3@@XZ 0000000180018890 f i BerconGradient.obj
 0001:000178b0       ?HInstance@BerconWoodClassDesc@@UEAAPEAUHINSTANCE__@@XZ 00000001800188b0 f i BerconWood.obj
 0001:000178b0       ?HInstance@BerconTileClassDesc@@UEAAPEAUHINSTANCE__@@XZ 00000001800188b0 f i BerconTile.obj
 0001:000178b0       ?HInstance@BerconGradientClassDesc@@UEAAPEAUHINSTANCE__@@XZ 00000001800188b0 f i BerconGradient.obj
 0001:000178b0       ?HInstance@BerconDistortionClassDesc@@UEAAPEAUHINSTANCE__@@XZ 00000001800188b0 f i BerconDistortion.obj
 0001:000178b0       ?HInstance@BerconNoiseClassDesc@@UEAAPEAUHINSTANCE__@@XZ 00000001800188b0 f i BerconNoise.obj
 0001:000178c0       ?InternalName@BerconGradientClassDesc@@UEAAPEB_WXZ 00000001800188c0 f i BerconGradient.obj
 0001:000178d0       ?LocalRequirements@BerconGradient@@UEAAKH@Z 00000001800188d0 f i BerconGradient.obj
 0001:00017900       ?MappingsRequired@BerconGradient@@UEAAXHAEAVBitArray@@0@Z 0000000180018900 f i BerconGradient.obj
 0001:00017940       ?NewCurveCreatedCallback@BerconGradient@@UEAAXHPEAVICurveCtl@@@Z 0000000180018940 f i BerconGradient.obj
 0001:00017940       ?NewCurveCreatedCallback@BerconWood@@UEAAXHPEAVICurveCtl@@@Z 0000000180018940 f i BerconWood.obj
 0001:00017b30       ?NewCurveCreatedCallback@ResourceMakerCallback@@UEAAXHPEAVICurveCtl@@@Z 0000000180018b30 f i BerconGradient.obj
 0001:00017b30       ?NotifyTarget@ReferenceTarget@@UEAAXHPEAVReferenceMaker@@@Z 0000000180018b30 f i BerconDistortion.obj
 0001:00017b30       ?ResetCallback@ResourceMakerCallback@@UEAAXHPEAVICurveCtl@@@Z 0000000180018b30 f i BerconGradient.obj
 0001:00017b40       ?NotifyRefChanged@BerconGradient@@UEAA?AW4RefResult@@AEBVInterval@@PEAVReferenceTarget@@AEA_KIH@Z 0000000180018b40 f   BerconGradient.obj
 0001:00017cc0       ?NumSubTexmaps@BerconGradient@@UEAAHXZ 0000000180018cc0 f i BerconGradient.obj
 0001:00017cf0       ?NumSubs@BerconGradient@@UEAAHXZ 0000000180018cf0 f i BerconGradient.obj
 0001:00017cf0       ?NumRefs@BerconGradient@@UEAAHXZ 0000000180018cf0 f i BerconGradient.obj
 0001:00017d20       ?RenderBegin@BerconGradient@@UEAAHHK@Z 0000000180018d20 f i BerconGradient.obj
 0001:00017d50       ?RenderEnd@BerconGradient@@UEAAHH@Z 0000000180018d50 f i BerconGradient.obj
 0001:00017d70       ?Reset@BerconGradient@@UEAAXXZ 0000000180018d70 f   BerconGradient.obj
 0001:00018310       ?ResetCallback@BerconWood@@UEAAXHPEAVICurveCtl@@@Z 0000000180019310 f i BerconWood.obj
 0001:00018310       ?ResetCallback@BerconGradient@@UEAAXHPEAVICurveCtl@@@Z 0000000180019310 f i BerconGradient.obj
 0001:000183a0       ?SetCustomImageList@BerconGradient@@UEAAHAEAPEAU_IMAGELIST@@PEAVICurveCtl@@@Z 00000001800193a0 f i BerconGradient.obj
 0001:000183a0       ?SetCustomImageList@BerconNoise@@UEAAHAEAPEAU_IMAGELIST@@PEAVICurveCtl@@@Z 00000001800193a0 f i BerconNoise.obj
 0001:000183a0       ?SetCustomImageList@BerconWood@@UEAAHAEAPEAU_IMAGELIST@@PEAVICurveCtl@@@Z 00000001800193a0 f i BerconWood.obj
 0001:000183c0       ?SetDlgThing@BerconGradient@@UEAAHPEAVParamDlg@@@Z 00000001800193c0 f   BerconGradient.obj
 0001:00018410       ?SetReference@BerconGradient@@UEAAXHPEAVReferenceTarget@@@Z 0000000180019410 f   BerconGradient.obj
 0001:00018590       ?SetSubTexmap@BerconGradient@@UEAAXHPEAVTexmap@@@Z 0000000180019590 f   BerconGradient.obj
 0001:00018660       ?SetThing@BerconCurveDlgProcGRADIENT@@UEAAXPEAVReferenceTarget@@@Z 0000000180019660 f i BerconGradient.obj
 0001:000186a0       ?SetThing@BerconGradientDlgProc@@UEAAXPEAVReferenceTarget@@@Z 00000001800196a0 f i BerconGradient.obj
 0001:000187a0       ?SetTooltip@IGradient@@UEAAX_NPEB_W@Z 00000001800197a0 f i BerconGradient.obj
 0001:000187b0       ?SubAnim@BerconGradient@@UEAAPEAVAnimatable@@H@Z 00000001800197b0 f   BerconGradient.obj
 0001:000188d0       ?SubAnimName@BerconGradient@@UEAA?AVWStr@@H@Z 00000001800198d0 f   BerconGradient.obj
 0001:00018a50       ?Update@BerconGradient@@UEAAXHAEAVInterval@@@Z 0000000180019a50 f   BerconGradient.obj
 0001:00019ce0       ?Validity@BerconGradient@@UEAA?AVInterval@@H@Z 000000018001ace0 f   BerconGradient.obj
 0001:00019d60       ?acos@@YAMM@Z              000000018001ad60 f i BerconGradient.obj
 0001:00019d90       ?countKeys@BerconGradient@@QEAAHXZ 000000018001ad90 f   BerconGradient.obj
 0001:00019e90       ?fabs@@YAMM@Z              000000018001ae90 f i BerconGradient.obj
 0001:00019ec0       ?getGradientValue@BerconGradient@@QEAAMAEAVShadeContext@@@Z 000000018001aec0 f   BerconGradient.obj
 0001:0001a450       ?getGradientValueDist@BerconGradient@@QEAAMAEAVShadeContext@@@Z 000000018001b450 f   BerconGradient.obj
 0001:0001ab00       ?getGradientValueNormal@BerconGradient@@QEAAMAEAVShadeContext@@@Z 000000018001bb00 f   BerconGradient.obj
 0001:0001b240       ?getGradientValueUVW@BerconGradient@@QEAAMVPoint3@@@Z 000000018001c240 f   BerconGradient.obj
 0001:0001b950       ?getKeyTex@BerconGradient@@QEAAPEAVTexmap@@XZ 000000018001c950 f   BerconGradient.obj
 0001:0001b980       ?gradAddKey@BerconGradient@@UEAAXM@Z 000000018001c980 f   BerconGradient.obj
 0001:0001bb50       ?gradDelKey@BerconGradient@@UEAAXH@Z 000000018001cb50 f   BerconGradient.obj
 0001:0001bce0       ?gradMoveKey@BerconGradient@@UEAAXHM@Z 000000018001cce0 f   BerconGradient.obj
 0001:0001be30       ?gradReset@BerconGradient@@UEAAXXZ 000000018001ce30 f i BerconGradient.obj
 0001:0001be60       ?gradSelKey@BerconGradient@@UEAAXXZ 000000018001ce60 f   BerconGradient.obj
 0001:0001bf70       ?keyColorChanged@BerconGradient@@QEAAXVAColor@@@Z 000000018001cf70 f   BerconGradient.obj
 0001:0001c120       ?keyNumChanged@BerconGradient@@QEAAXH@Z 000000018001d120 f   BerconGradient.obj
 0001:0001c280       ?keyPosChanged@BerconGradient@@QEAAXM@Z 000000018001d280 f   BerconGradient.obj
 0001:0001c430       ?limitRange@BerconGradient@@QEAAHAEAM@Z 000000018001d430 f   BerconGradient.obj
 0001:0001c5d0       ?numKeys@GradientRamp@@QEAAHXZ 000000018001d5d0 f i BerconGradient.obj
 0001:0001c5e0       ?resetKeys@BerconGradient@@QEAAXXZ 000000018001d5e0 f   BerconGradient.obj
 0001:0001c790       ?seedRandomGen@BerconGradient@@QEAAXAEAVShadeContext@@@Z 000000018001d790 f   BerconGradient.obj
 0001:0001ca00       ?setGradient@IGradient@@QEAAXPEAVGradientRamp@@@Z 000000018001da00 f i BerconGradient.obj
 0001:0001ca20       ?setKeyTex@BerconGradient@@QEAAXPEAVTexmap@@@Z 000000018001da20 f   BerconGradient.obj
 0001:0001cb20       ?sqrt@@YAMM@Z              000000018001db20 f i BerconGradient.obj
 0001:0001cb50       fabsf                      000000018001db50 f i BerconGradient.obj
 0001:0001cb70       ??0AColor@@QEAA@AEBVColor@@M@Z 000000018001db70 f i BerconNoise.obj
 0001:0001cbd0       ??0BerconCurveDlgProcNOISE@@QEAA@PEAVBerconNoise@@@Z 000000018001dbd0 f i BerconNoise.obj
 0001:0001cc20       ??0BerconNoise@@QEAA@XZ    000000018001dc20 f   BerconNoise.obj
 0001:0001cdb0       ??0BerconNoiseClassDesc@@QEAA@XZ 000000018001ddb0 f i BerconNoise.obj
 0001:0001cdf0       ??0BerconNoiseDlgProc@@QEAA@PEAVBerconNoise@@@Z 000000018001ddf0 f i BerconNoise.obj
 0001:0001ce40       ??0Color@@QEAA@HHH@Z       000000018001de40 f i BerconNoise.obj
 0001:0001ce90       ??1BerconCurveDlgProcNOISE@@UEAA@XZ 000000018001de90 f i BerconNoise.obj
 0001:0001ced0       ??1BerconNoise@@UEAA@XZ    000000018001ded0 f   BerconNoise.obj
 0001:0001cf30       ??1BerconNoiseClassDesc@@UEAA@XZ 000000018001df30 f i BerconNoise.obj
 0001:0001cf70       ??1BerconNoiseDlgProc@@UEAA@XZ 000000018001df70 f i BerconNoise.obj
 0001:0001cfb0       ??D@YA?AVAColor@@MAEBV0@@Z 000000018001dfb0 f i BerconNoise.obj
 0001:0001d030       ??D@YA?AVPoint3@@MAEBV0@@Z 000000018001e030 f i BerconNoise.obj
 0001:0001d0a0       ??HAColor@@QEBA?AV0@AEBV0@@Z 000000018001e0a0 f i BerconNoise.obj
 0001:0001d130       ??_EBerconNoise@@WEA@EAAPEAXI@Z 000000018001e130 f i BerconNoise.obj
 0001:0001d140       ??_GBerconCurveDlgProcNOISE@@UEAAPEAXI@Z 000000018001e140 f i BerconNoise.obj
 0001:0001d140       ??_EBerconCurveDlgProcNOISE@@UEAAPEAXI@Z 000000018001e140 f i BerconNoise.obj
 0001:0001d1a0       ??_EBerconNoise@@UEAAPEAXI@Z 000000018001e1a0 f i BerconNoise.obj
 0001:0001d1a0       ??_GBerconNoise@@UEAAPEAXI@Z 000000018001e1a0 f i BerconNoise.obj
 0001:0001d200       ??_EBerconNoiseClassDesc@@UEAAPEAXI@Z 000000018001e200 f i BerconNoise.obj
 0001:0001d200       ??_GBerconNoiseClassDesc@@UEAAPEAXI@Z 000000018001e200 f i BerconNoise.obj
 0001:0001d260       ??_GBerconNoiseDlgProc@@UEAAPEAXI@Z 000000018001e260 f i BerconNoise.obj
 0001:0001d260       ??_EBerconNoiseDlgProc@@UEAAPEAXI@Z 000000018001e260 f i BerconNoise.obj
 0001:0001d2c0       ?ActivateTexDisplay@BerconNoise@@UEAAXH@Z 000000018001e2c0 f i BerconNoise.obj
 0001:0001d2f0       ?Category@BerconWoodClassDesc@@UEAAPEB_WXZ 000000018001e2f0 f i BerconWood.obj
 0001:0001d2f0       ?Category@BerconDistortionClassDesc@@UEAAPEB_WXZ 000000018001e2f0 f i BerconDistortion.obj
 0001:0001d2f0       ?Category@BerconGradientClassDesc@@UEAAPEB_WXZ 000000018001e2f0 f i BerconGradient.obj
 0001:0001d2f0       ?Category@BerconNoiseClassDesc@@UEAAPEB_WXZ 000000018001e2f0 f i BerconNoise.obj
 0001:0001d2f0       ?Category@BerconTileClassDesc@@UEAAPEB_WXZ 000000018001e2f0 f i BerconTile.obj
 0001:0001d300       ?ClassID@BerconNoise@@UEAA?AVClass_ID@@XZ 000000018001e300 f i BerconNoise.obj
 0001:0001d300       ?ClassID@BerconNoiseClassDesc@@UEAA?AVClass_ID@@XZ 000000018001e300 f i BerconNoise.obj
 0001:0001d330       ?ClassName@BerconNoiseClassDesc@@UEAAPEB_WXZ 000000018001e330 f i BerconNoise.obj
 0001:0001d350       ?Clone@BerconNoise@@UEAAPEAVReferenceTarget@@AEAVRemapDir@@@Z 000000018001e350 f   BerconNoise.obj
 0001:0001d610       ?Create@BerconNoiseClassDesc@@UEAAPEAXH@Z 000000018001e610 f i BerconNoise.obj
 0001:0001d680       ?CreateParamDlg@BerconNoise@@UEAAPEAVParamDlg@@PEAUHWND__@@PEAVIMtlParams@@@Z 000000018001e680 f   BerconNoise.obj
 0001:0001d870       ?DiscardTexHandle@BerconNoise@@QEAAXXZ 000000018001e870 f i BerconNoise.obj
 0001:0001d8c0       ?DlgProc@BerconCurveDlgProcNOISE@@UEAA_JHPEAVIParamMap2@@PEAUHWND__@@I_K_J@Z 000000018001e8c0 f i BerconNoise.obj
 0001:0001d9d0       ?DlgProc@BerconNoiseDlgProc@@UEAA_JHPEAVIParamMap2@@PEAUHWND__@@I_K_J@Z 000000018001e9d0 f   BerconNoise.obj
 0001:0001e260       ?EnableStuff@BerconNoise@@QEAAXXZ 000000018001f260 f   BerconNoise.obj
 0001:0001e7d0       ?EvalColor@BerconNoise@@UEAA?AVAColor@@AEAVShadeContext@@@Z 000000018001f7d0 f   BerconNoise.obj
 0001:0001ef70       ?EvalNormalPerturb@BerconNoise@@UEAA?AVPoint3@@AEAVShadeContext@@@Z 000000018001ff70 f   BerconNoise.obj
 0001:0001fc20       ?EvalParameters@BerconNoise@@QEAA?AVNoiseParams@@PEAVShadeContext@@@Z 0000000180020c20 f   BerconNoise.obj
 0001:00020730       ?GetActiveTexHandle@BerconNoise@@UEAA_KHAEAVTexHandleMaker@@@Z 0000000180021730 f   BerconNoise.obj
 0001:00020840       ?GetBerconNoiseDesc@@YAPEAVClassDesc2@@XZ 0000000180021840 f   BerconNoise.obj
 0001:00020850       ?GetClassName@BerconNoise@@UEAAXAEAVWStr@@@Z 0000000180021850 f i BerconNoise.obj
 0001:00020880       ?GetParamBlock@BerconNoise@@UEAAPEAVIParamBlock2@@H@Z 0000000180021880 f i BerconNoise.obj
 0001:00020900       ?GetParamBlockByID@BerconNoise@@UEAAPEAVIParamBlock2@@F@Z 0000000180021900 f i BerconNoise.obj
 0001:00020a00       ?GetReference@BerconNoise@@UEAAPEAVReferenceTarget@@H@Z 0000000180021a00 f   BerconNoise.obj
 0001:00020ae0       ?GetSubTexmap@BerconNoise@@UEAAPEAVTexmap@@H@Z 0000000180021ae0 f i BerconNoise.obj
 0001:00020b00       ?GetSubTexmapSlotName@BerconNoise@@UEAA?AVWStr@@H@Z 0000000180021b00 f   BerconNoise.obj
 0001:00020f00       ?InternalName@BerconNoiseClassDesc@@UEAAPEB_WXZ 0000000180021f00 f i BerconNoise.obj
 0001:00020f10       ?LocalRequirements@BerconNoise@@UEAAKH@Z 0000000180021f10 f i BerconNoise.obj
 0001:00020f40       ?MappingsRequired@BerconNoise@@UEAAXHAEAVBitArray@@0@Z 0000000180021f40 f i BerconNoise.obj
 0001:00020f80       ?NewCurveCreatedCallback@BerconNoise@@UEAAXHPEAVICurveCtl@@@Z 0000000180021f80 f i BerconNoise.obj
 0001:00021170       ?NotifyRefChanged@BerconNoise@@UEAA?AW4RefResult@@AEBVInterval@@PEAVReferenceTarget@@AEA_KIH@Z 0000000180022170 f   BerconNoise.obj
 0001:000212f0       ?NumSubs@BerconNoise@@UEAAHXZ 00000001800222f0 f i BerconNoise.obj
 0001:000212f0       ?NumRefs@BerconNoise@@UEAAHXZ 00000001800222f0 f i BerconNoise.obj
 0001:00021300       ?NumSubTexmaps@BerconNoise@@UEAAHXZ 0000000180022300 f i BerconNoise.obj
 0001:00021310       ?Reset@BerconNoise@@UEAAXXZ 0000000180022310 f   BerconNoise.obj
 0001:00021bb0       ?ResetCallback@BerconNoise@@UEAAXHPEAVICurveCtl@@@Z 0000000180022bb0 f i BerconNoise.obj
 0001:00021c30       ?SetDlgThing@BerconNoise@@UEAAHPEAVParamDlg@@@Z 0000000180022c30 f   BerconNoise.obj
 0001:00021c80       ?SetReference@BerconNoise@@UEAAXHPEAVReferenceTarget@@@Z 0000000180022c80 f   BerconNoise.obj
 0001:00021d90       ?SetSubTexmap@BerconNoise@@UEAAXHPEAVTexmap@@@Z 0000000180022d90 f   BerconNoise.obj
 0001:00021ee0       ?SetThing@BerconCurveDlgProcNOISE@@UEAAXPEAVReferenceTarget@@@Z 0000000180022ee0 f i BerconNoise.obj
 0001:00021f20       ?SetThing@BerconNoiseDlgProc@@UEAAXPEAVReferenceTarget@@@Z 0000000180022f20 f i BerconNoise.obj
 0001:00021f50       ?SubAnim@BerconNoise@@UEAAPEAVAnimatable@@H@Z 0000000180022f50 f   BerconNoise.obj
 0001:00022030       ?SubAnimName@BerconNoise@@UEAA?AVWStr@@H@Z 0000000180023030 f   BerconNoise.obj
 0001:00022200       ?SuperClassID@BerconTile@@UEAAKXZ 0000000180023200 f i BerconTile.obj
 0001:00022200       ?SuperClassID@BerconWood@@UEAAKXZ 0000000180023200 f i BerconWood.obj
 0001:00022200       ?SuperClassID@BerconDistortion@@UEAAKXZ 0000000180023200 f i BerconDistortion.obj
 0001:00022200       ?SuperClassID@BerconGradientClassDesc@@UEAAKXZ 0000000180023200 f i BerconGradient.obj
 0001:00022200       ?SuperClassID@BerconDistortionClassDesc@@UEAAKXZ 0000000180023200 f i BerconDistortion.obj
 0001:00022200       ?SuperClassID@BerconWoodClassDesc@@UEAAKXZ 0000000180023200 f i BerconWood.obj
 0001:00022200       ?SuperClassID@BerconNoise@@UEAAKXZ 0000000180023200 f i BerconNoise.obj
 0001:00022200       ?SuperClassID@BerconTileClassDesc@@UEAAKXZ 0000000180023200 f i BerconTile.obj
 0001:00022200       ?SuperClassID@BerconNoiseClassDesc@@UEAAKXZ 0000000180023200 f i BerconNoise.obj
 0001:00022200       ?SuperClassID@BerconGradient@@UEAAKXZ 0000000180023200 f i BerconGradient.obj
 0001:00022210       ?Update@BerconNoise@@UEAAXHAEAVInterval@@@Z 0000000180023210 f   BerconNoise.obj
 0001:00023290       ?Validity@BerconNoise@@UEAA?AVInterval@@H@Z 0000000180024290 f   BerconNoise.obj
 0001:00023310       ?applyDistortion@BerconNoise@@QEAAXAEAVShadeContext@@AEAVPoint3@@@Z 0000000180024310 f   BerconNoise.obj
 0001:00023490       ??$?0$$V@?$_Compressed_pair@U?$_Wrap_alloc@V?$allocator@M@std@@@std@@V?$_Vector_val@U?$_Simple_types@M@std@@@2@$00@std@@QEAA@U_Zero_then_variadic_args_t@1@@Z 0000000180024490 f i BerconTile.obj
 0001:000234d0       ??$?0$$V@?$_Compressed_pair@U?$_Wrap_alloc@V?$allocator@VTileRow@@@std@@@std@@V?$_Vector_val@U?$_Simple_types@VTileRow@@@std@@@2@$00@std@@QEAA@U_Zero_then_variadic_args_t@1@@Z 00000001800244d0 f i BerconTile.obj
 0001:00023510       ??$?0$$V@?$_Compressed_pair@U?$_Wrap_alloc@V?$allocator@_W@std@@@std@@V?$_String_val@U?$_Simple_types@_W@std@@@2@$00@std@@QEAA@U_Zero_then_variadic_args_t@1@@Z 0000000180024510 f i BerconTile.obj
 0001:00023550       ??0?$allocator@M@std@@QEAA@AEBV01@@Z 0000000180024550 f i tile.obj
 0001:00023550       ??$?0VTileRow@@@?$allocator@U_Container_proxy@std@@@std@@QEAA@AEBV?$allocator@VTileRow@@@1@@Z 0000000180024550 f i BerconTile.obj
 0001:00023550       ??$?0M@?$allocator@U_Container_proxy@std@@@std@@QEAA@AEBV?$allocator@M@1@@Z 0000000180024550 f i BerconTile.obj
 0001:00023550       ??$?0V?$basic_string@_WU?$char_traits@_W@std@@V?$allocator@_W@2@@std@@@?$allocator@U_Container_proxy@std@@@std@@QEAA@AEBV?$allocator@V?$basic_string@_WU?$char_traits@_W@std@@V?$allocator@_W@2@@std@@@1@@Z 0000000180024550 f i tile.obj
 0001:00023550       ??0?$allocator@_W@std@@QEAA@AEBV01@@Z 0000000180024550 f i tile.obj
 0001:00023550       ??$?0U?$integral_constant@_N$00@std@@@_Any_tag@std@@QEAA@$$QEAU?$integral_constant@_N$00@1@@Z 0000000180024550 f i tile.obj
 0001:00023550       ??$?0_W@?$allocator@U_Container_proxy@std@@@std@@QEAA@AEBV?$allocator@_W@1@@Z 0000000180024550 f i BerconTile.obj
 0001:00023560       ??$_Debug_pointer@$$CB_W@std@@YAXPEB_W0I@Z 0000000180024560 f i BerconTile.obj
 0001:000235a0       ??$_Debug_pointer_if@$$CB_W@std@@YAX_NPEB_W1I@Z 00000001800245a0 f i BerconTile.obj
 0001:000235f0       ??$_Destroy_range1@V?$allocator@M@std@@PEAM@std@@YAXPEAM0AEAU?$_Wrap_alloc@V?$allocator@M@std@@@0@U?$integral_constant@_N$00@0@@Z 00000001800245f0 f i BerconTile.obj
 0001:00023610       ??$_Destroy_range1@V?$allocator@VTileRow@@@std@@PEAVTileRow@@@std@@YAXPEAVTileRow@@0AEAU?$_Wrap_alloc@V?$allocator@VTileRow@@@std@@@0@U?$integral_constant@_N$0A@@0@@Z 0000000180024610 f i BerconTile.obj
 0001:00023670       ??$_Destroy_range@V?$allocator@M@std@@PEAM@std@@YAXPEAM0AEAU?$_Wrap_alloc@V?$allocator@M@std@@@0@@Z 0000000180024670 f i BerconTile.obj
 0001:000236b0       ??$_Destroy_range@V?$allocator@VTileRow@@@std@@PEAVTileRow@@@std@@YAXPEAVTileRow@@0AEAU?$_Wrap_alloc@V?$allocator@VTileRow@@@std@@@0@@Z 00000001800246b0 f i BerconTile.obj
 0001:000236f0       ??$construct@PEA_WAEAPEA_W@?$_Wrap_alloc@V?$allocator@_W@std@@@std@@QEAAXPEAPEA_WAEAPEA_W@Z 00000001800246f0 f i BerconTile.obj
 0001:00023730       ??$construct@PEA_WAEAPEA_W@?$allocator@_W@std@@QEAAXPEAPEA_WAEAPEA_W@Z 0000000180024730 f i BerconTile.obj
 0001:00023790       ??$construct@PEA_WAEAPEA_W@?$allocator_traits@V?$allocator@_W@std@@@std@@SAXAEAV?$allocator@_W@1@PEAPEA_WAEAPEA_W@Z 0000000180024790 f i BerconTile.obj
 0001:000237d0       ??$construct@U_Container_proxy@std@@U12@@?$_Wrap_alloc@V?$allocator@U_Container_proxy@std@@@std@@@std@@QEAAXPEAU_Container_proxy@1@$$QEAU21@@Z 00000001800247d0 f i BerconTile.obj
 0001:00023810       ??$construct@U_Container_proxy@std@@U12@@?$allocator@U_Container_proxy@std@@@std@@QEAAXPEAU_Container_proxy@1@$$QEAU21@@Z 0000000180024810 f i BerconTile.obj
 0001:00023880       ??$construct@U_Container_proxy@std@@U12@@?$allocator_traits@V?$allocator@U_Container_proxy@std@@@std@@@std@@SAXAEAV?$allocator@U_Container_proxy@std@@@1@PEAU_Container_proxy@1@$$QEAU31@@Z 0000000180024880 f i BerconTile.obj
 0001:000238c0       ??$destroy@U_Container_proxy@std@@@?$_Wrap_alloc@V?$allocator@U_Container_proxy@std@@@std@@@std@@QEAAXPEAU_Container_proxy@1@@Z 00000001800248c0 f i BerconTile.obj
 0001:000238c0       ??$destroy@PEA_W@?$_Wrap_alloc@V?$allocator@_W@std@@@std@@QEAAXPEAPEA_W@Z 00000001800248c0 f i BerconTile.obj
 0001:000238f0       ??$destroy@U_Container_proxy@std@@@?$allocator_traits@V?$allocator@U_Container_proxy@std@@@std@@@std@@SAXAEAV?$allocator@U_Container_proxy@std@@@1@PEAU_Container_proxy@1@@Z 00000001800248f0 f i BerconTile.obj
 0001:000238f0       ??$destroy@PEA_W@?$allocator_traits@V?$allocator@_W@std@@@std@@SAXAEAV?$allocator@_W@1@PEAPEA_W@Z 00000001800248f0 f i BerconTile.obj
 0001:00023920       ??$destroy@VTileRow@@@?$_Wrap_alloc@V?$allocator@VTileRow@@@std@@@std@@QEAAXPEAVTileRow@@@Z 0000000180024920 f i BerconTile.obj
 0001:00023950       ??$destroy@VTileRow@@@?$allocator@VTileRow@@@std@@QEAAXPEAVTileRow@@@Z 0000000180024950 f i BerconTile.obj
 0001:00023970       ??$destroy@VTileRow@@@?$allocator_traits@V?$allocator@VTileRow@@@std@@@std@@SAXAEAV?$allocator@VTileRow@@@1@PEAVTileRow@@@Z 0000000180024970 f i BerconTile.obj
 0001:000239a0       ??0?$_String_alloc@U?$_String_base_types@_WV?$allocator@_W@std@@@std@@@std@@QEAA@XZ 00000001800249a0 f i BerconTile.obj
 0001:000239e0       ??0?$_String_val@U?$_Simple_types@_W@std@@@std@@QEAA@XZ 00000001800249e0 f i BerconTile.obj
 0001:00023a40       ??0?$_Vector_alloc@U?$_Vec_base_types@MV?$allocator@M@std@@@std@@@std@@QEAA@XZ 0000000180024a40 f i BerconTile.obj
 0001:00023a80       ??0?$_Vector_alloc@U?$_Vec_base_types@VTileRow@@V?$allocator@VTileRow@@@std@@@std@@@std@@QEAA@XZ 0000000180024a80 f i BerconTile.obj
 0001:00023ac0       ??0?$_Vector_val@U?$_Simple_types@M@std@@@std@@QEAA@XZ 0000000180024ac0 f i BerconTile.obj
 0001:00023b10       ??0?$_Vector_val@U?$_Simple_types@VTileRow@@@std@@@std@@QEAA@XZ 0000000180024b10 f i BerconTile.obj
 0001:00023b60       ??0?$_Wrap_alloc@V?$allocator@_W@std@@@std@@QEAA@XZ 0000000180024b60 f i BerconTile.obj
 0001:00023b60       ??0?$_Wrap_alloc@V?$allocator@V?$basic_string@_WU?$char_traits@_W@std@@V?$allocator@_W@2@@std@@@std@@@std@@QEAA@XZ 0000000180024b60 f i tile.obj
 0001:00023b60       ??0?$_Wrap_alloc@V?$allocator@VTileRow@@@std@@@std@@QEAA@XZ 0000000180024b60 f i BerconTile.obj
 0001:00023b60       ??0?$_Wrap_alloc@V?$allocator@M@std@@@std@@QEAA@XZ 0000000180024b60 f i BerconTile.obj
 0001:00023b80       ??0?$basic_string@_WU?$char_traits@_W@std@@V?$allocator@_W@2@@std@@QEAA@PEB_W@Z 0000000180024b80 f i BerconTile.obj
 0001:00023bd0       ??0?$vector@MV?$allocator@M@std@@@std@@QEAA@XZ 0000000180024bd0 f i BerconTile.obj
 0001:00023c00       ??0?$vector@VTileRow@@V?$allocator@VTileRow@@@std@@@std@@QEAA@XZ 0000000180024c00 f i BerconTile.obj
 0001:00023c30       ??0BerconTile@@QEAA@XZ     0000000180024c30 f   BerconTile.obj
 0001:00023de0       ??0BerconTileClassDesc@@QEAA@XZ 0000000180024de0 f i BerconTile.obj
 0001:00023e20       ??0BerconTileDlgProc@@QEAA@PEAVBerconTile@@@Z 0000000180024e20 f i BerconTile.obj
 0001:00023e70       ??0TileParam@@QEAA@XZ      0000000180024e70 f i BerconTile.obj
 0001:00023e90       ??0TilePattern@@QEAA@XZ    0000000180024e90 f i BerconTile.obj
 0001:00023ee0       ??1?$_Compressed_pair@U?$_Wrap_alloc@V?$allocator@M@std@@@std@@V?$_Vector_val@U?$_Simple_types@M@std@@@2@$00@std@@QEAA@XZ 0000000180024ee0 f i BerconTile.obj
 0001:00023f10       ??1?$_Compressed_pair@U?$_Wrap_alloc@V?$allocator@VTileRow@@@std@@@std@@V?$_Vector_val@U?$_Simple_types@VTileRow@@@std@@@2@$00@std@@QEAA@XZ 0000000180024f10 f i BerconTile.obj
 0001:00023f40       ??1?$_Compressed_pair@U?$_Wrap_alloc@V?$allocator@_W@std@@@std@@V?$_String_val@U?$_Simple_types@_W@std@@@2@$00@std@@QEAA@XZ 0000000180024f40 f i BerconTile.obj
 0001:00023f70       ??1?$_String_alloc@U?$_String_base_types@_WV?$allocator@_W@std@@@std@@@std@@QEAA@XZ 0000000180024f70 f i BerconTile.obj
 0001:00023fa0       ??1?$_String_val@U?$_Simple_types@_W@std@@@std@@QEAA@XZ 0000000180024fa0 f i BerconTile.obj
 0001:00023fe0       ??1?$_Vector_alloc@U?$_Vec_base_types@MV?$allocator@M@std@@@std@@@std@@QEAA@XZ 0000000180024fe0 f i BerconTile.obj
 0001:00024010       ??1?$_Vector_alloc@U?$_Vec_base_types@VTileRow@@V?$allocator@VTileRow@@@std@@@std@@@std@@QEAA@XZ 0000000180025010 f i BerconTile.obj
 0001:00024040       ??1?$_Vector_val@U?$_Simple_types@M@std@@@std@@QEAA@XZ 0000000180025040 f i BerconTile.obj
 0001:00024070       ??1?$_Vector_val@U?$_Simple_types@VTileRow@@@std@@@std@@QEAA@XZ 0000000180025070 f i BerconTile.obj
 0001:000240a0       ??1?$basic_string@_WU?$char_traits@_W@std@@V?$allocator@_W@2@@std@@QEAA@XZ 00000001800250a0 f i BerconTile.obj
 0001:000240e0       ??1?$vector@MV?$allocator@M@std@@@std@@QEAA@XZ 00000001800250e0 f i BerconTile.obj
 0001:00024110       ??1?$vector@VTileRow@@V?$allocator@VTileRow@@@std@@@std@@QEAA@XZ 0000000180025110 f i BerconTile.obj
 0001:00024140       ??1BerconTile@@UEAA@XZ     0000000180025140 f   BerconTile.obj
 0001:000241c0       ??1BerconTileClassDesc@@UEAA@XZ 00000001800251c0 f i BerconTile.obj
 0001:00024200       ??1BerconTileDlgProc@@UEAA@XZ 0000000180025200 f i BerconTile.obj
 0001:00024230       ??1TilePattern@@QEAA@XZ    0000000180025230 f i BerconTile.obj
 0001:00024270       ??1TileRow@@QEAA@XZ        0000000180025270 f i BerconTile.obj
 0001:000242a0       ??1_Container_base12@std@@QEAA@XZ 00000001800252a0 f i BerconTile.obj
 0001:000242d0       ??2@YAPEAX_KPEAX@Z         00000001800252d0 f i BerconTile.obj
 0001:000242e0       ??A?$vector@MV?$allocator@M@std@@@std@@QEAAAEAM_K@Z 00000001800252e0 f i BerconTile.obj
 0001:000243b0       ??A?$vector@VTileRow@@V?$allocator@VTileRow@@@std@@@std@@QEAAAEAVTileRow@@_K@Z 00000001800253b0 f i BerconTile.obj
 0001:00024480       ??_EBerconTile@@WEA@EAAPEAXI@Z 0000000180025480 f i BerconTile.obj
 0001:00024490       ??_GBerconTile@@UEAAPEAXI@Z 0000000180025490 f i BerconTile.obj
 0001:00024490       ??_EBerconTile@@UEAAPEAXI@Z 0000000180025490 f i BerconTile.obj
 0001:000244f0       ??_EBerconTileClassDesc@@UEAAPEAXI@Z 00000001800254f0 f i BerconTile.obj
 0001:000244f0       ??_GBerconTileClassDesc@@UEAAPEAXI@Z 00000001800254f0 f i BerconTile.obj
 0001:00024550       ??_EBerconTileDlgProc@@UEAAPEAXI@Z 0000000180025550 f i BerconTile.obj
 0001:00024550       ??_GBerconTileDlgProc@@UEAAPEAXI@Z 0000000180025550 f i BerconTile.obj
 0001:000245b0       ??_GTileRow@@QEAAPEAXI@Z   00000001800255b0 f i BerconTile.obj
 0001:000245f0       ?ActivateTexDisplay@BerconTile@@UEAAXH@Z 00000001800255f0 f i BerconTile.obj
 0001:00024620       ?ClassID@BerconTileClassDesc@@UEAA?AVClass_ID@@XZ 0000000180025620 f i BerconTile.obj
 0001:00024620       ?ClassID@BerconTile@@UEAA?AVClass_ID@@XZ 0000000180025620 f i BerconTile.obj
 0001:00024650       ?ClassName@BerconTileClassDesc@@UEAAPEB_WXZ 0000000180025650 f i BerconTile.obj
 0001:00024670       ?Clone@BerconTile@@UEAAPEAVReferenceTarget@@AEAVRemapDir@@@Z 0000000180025670 f   BerconTile.obj
 0001:00024890       ?Create@BerconTileClassDesc@@UEAAPEAXH@Z 0000000180025890 f i BerconTile.obj
 0001:00024900       ?CreateParamDlg@BerconTile@@UEAAPEAVParamDlg@@PEAUHWND__@@PEAVIMtlParams@@@Z 0000000180025900 f   BerconTile.obj
 0001:00024aa0       ?DiscardTexHandle@BerconTile@@QEAAXXZ 0000000180025aa0 f i BerconTile.obj
 0001:00024af0       ?DlgProc@BerconTileDlgProc@@UEAA_JHPEAVIParamMap2@@PEAUHWND__@@I_K_J@Z 0000000180025af0 f   BerconTile.obj
 0001:00025460       ?EnableStuff@BerconTile@@QEAAXH@Z 0000000180026460 f   BerconTile.obj
 0001:00025b60       ?EvalColor@BerconTile@@UEAA?AVAColor@@AEAVShadeContext@@@Z 0000000180026b60 f   BerconTile.obj
 0001:00026260       ?EvalMono@BerconNoise@@UEAAMAEAVShadeContext@@@Z 0000000180027260 f   BerconNoise.obj
 0001:00026260       ?EvalMono@BerconTile@@UEAAMAEAVShadeContext@@@Z 0000000180027260 f   BerconTile.obj
 0001:00026260       ?EvalMono@BerconGradient@@UEAAMAEAVShadeContext@@@Z 0000000180027260 f   BerconGradient.obj
 0001:00026260       ?EvalMono@BerconWood@@UEAAMAEAVShadeContext@@@Z 0000000180027260 f   BerconWood.obj
 0001:000262a0       ?EvalNormalPerturb@BerconTile@@UEAA?AVPoint3@@AEAVShadeContext@@@Z 00000001800272a0 f   BerconTile.obj
 0001:00026e80       ?EvalParameters@BerconTile@@QEAA?AVTileParam@@AEAVShadeContext@@@Z 0000000180027e80 f   BerconTile.obj
 0001:000270d0       ?GetActiveTexHandle@BerconTile@@UEAA_KHAEAVTexHandleMaker@@@Z 00000001800280d0 f   BerconTile.obj
 0001:000271e0       ?GetBerconTileDesc@@YAPEAVClassDesc2@@XZ 00000001800281e0 f   BerconTile.obj
 0001:000271f0       ?GetClassName@BerconTile@@UEAAXAEAVWStr@@@Z 00000001800281f0 f i BerconTile.obj
 0001:00027220       ?GetParamBlock@BerconTile@@UEAAPEAVIParamBlock2@@H@Z 0000000180028220 f i BerconTile.obj
 0001:00027280       ?GetParamBlockByID@BerconTile@@UEAAPEAVIParamBlock2@@F@Z 0000000180028280 f i BerconTile.obj
 0001:00027340       ?GetSubTexmap@BerconTile@@UEAAPEAVTexmap@@H@Z 0000000180028340 f i BerconTile.obj
 0001:00027360       ?GetSubTexmapSlotName@BerconTile@@UEAA?AVWStr@@H@Z 0000000180028360 f   BerconTile.obj
 0001:00027530       ?InternalName@BerconTileClassDesc@@UEAAPEB_WXZ 0000000180028530 f i BerconTile.obj
 0001:00027540       ?IsPublic@BerconTileClassDesc@@UEAAHXZ 0000000180028540 f i BerconTile.obj
 0001:00027540       ?SupportTexDisplay@BerconWood@@UEAAHXZ 0000000180028540 f i BerconWood.obj
 0001:00027540       ?SupportTexDisplay@BerconNoise@@UEAAHXZ 0000000180028540 f i BerconNoise.obj
 0001:00027540       ?IsPublic@BerconDistortionClassDesc@@UEAAHXZ 0000000180028540 f i BerconDistortion.obj
 0001:00027540       ?SupportTexDisplay@BerconTile@@UEAAHXZ 0000000180028540 f i BerconTile.obj
 0001:00027540       ?IsPublic@BerconGradientClassDesc@@UEAAHXZ 0000000180028540 f i BerconGradient.obj
 0001:00027540       ?IsPublic@BerconNoiseClassDesc@@UEAAHXZ 0000000180028540 f i BerconNoise.obj
 0001:00027540       ?IsPublic@BerconWoodClassDesc@@UEAAHXZ 0000000180028540 f i BerconWood.obj
 0001:00027540       ?SupportTexDisplay@BerconGradient@@UEAAHXZ 0000000180028540 f i BerconGradient.obj
 0001:00027540       ?IsRefTarget@ReferenceTarget@@UEAAHXZ 0000000180028540 f i BerconDistortion.obj
 0001:00027540       ?IsEnabled@IGradient@@UEAAHXZ 0000000180028540 f i BerconGradient.obj
 0001:00027540       ?SupportTexDisplay@BerconDistortion@@UEAAHXZ 0000000180028540 f i BerconDistortion.obj
 0001:00027540       ?GetMapChannel@Texmap@@UEAAHXZ 0000000180028540 f i BerconDistortion.obj
 0001:00027540       ?IsRefMaker@ReferenceMaker@@UEAAHXZ 0000000180028540 f i BerconDistortion.obj
 0001:00027540       ?CanCopyAnim@Animatable@@UEAAHXZ 0000000180028540 f i BerconDistortion.obj
 0001:00027540       ?CanMakeUnique@Animatable@@UEAAHXZ 0000000180028540 f i BerconDistortion.obj
 0001:00027550       ?LocalRequirements@BerconTile@@UEAAKH@Z 0000000180028550 f i BerconTile.obj
 0001:00027580       ?MappingsRequired@BerconTile@@UEAAXHAEAVBitArray@@0@Z 0000000180028580 f i BerconTile.obj
 0001:000275c0       ?NotifyRefChanged@BerconTile@@UEAA?AW4RefResult@@AEBVInterval@@PEAVReferenceTarget@@AEA_KIH@Z 00000001800285c0 f   BerconTile.obj
 0001:000276e0       ?NumSubs@BerconTile@@UEAAHXZ 00000001800286e0 f i BerconTile.obj
 0001:000276e0       ?NumRefs@BerconTile@@UEAAHXZ 00000001800286e0 f i BerconTile.obj
 0001:000276f0       ?NumSubTexmaps@BerconTile@@UEAAHXZ 00000001800286f0 f i BerconTile.obj
 0001:00027700       ?Reset@BerconTile@@UEAAXXZ 0000000180028700 f   BerconTile.obj
 0001:00028290       ?SetDlgThing@BerconTile@@UEAAHPEAVParamDlg@@@Z 0000000180029290 f   BerconTile.obj
 0001:000282e0       ?SetReference@BerconTile@@UEAAXHPEAVReferenceTarget@@@Z 00000001800292e0 f   BerconTile.obj
 0001:00028380       ?SetSubTexmap@BerconTile@@UEAAXHPEAVTexmap@@@Z 0000000180029380 f   BerconTile.obj
 0001:00028500       ?SetThing@BerconTileDlgProc@@UEAAXPEAVReferenceTarget@@@Z 0000000180029500 f i BerconTile.obj
 0001:00028550       ?SubAnim@BerconTile@@UEAAPEAVAnimatable@@H@Z 0000000180029550 f   BerconTile.obj
 0001:00028550       ?GetReference@BerconTile@@UEAAPEAVReferenceTarget@@H@Z 0000000180029550 f   BerconTile.obj
 0001:000285e0       ?SubAnimName@BerconTile@@UEAA?AVWStr@@H@Z 00000001800295e0 f   BerconTile.obj
 0001:00028720       ?SubNumToRefNum@BerconWood@@UEAAHH@Z 0000000180029720 f i BerconWood.obj
 0001:00028720       ?RemapRefOnLoad@ReferenceMaker@@UEAAHH@Z 0000000180029720 f i BerconDistortion.obj
 0001:00028720       ?SubNumToRefNum@BerconGradient@@UEAAHH@Z 0000000180029720 f i BerconGradient.obj
 0001:00028720       ?SubNumToRefNum@BerconTile@@UEAAHH@Z 0000000180029720 f i BerconTile.obj
 0001:00028720       ?SubNumToRefNum@BerconNoise@@UEAAHH@Z 0000000180029720 f i BerconNoise.obj
 0001:00028720       ?SubNumToRefNum@BerconDistortion@@UEAAHH@Z 0000000180029720 f i BerconDistortion.obj
 0001:00028730       ?Update@BerconTile@@UEAAXHAEAVInterval@@@Z 0000000180029730 f   BerconTile.obj
 0001:0002a060       ?Validity@BerconTile@@UEAA?AVInterval@@H@Z 000000018002b060 f   BerconTile.obj
 0001:0002a0e0       ?_Alloc_proxy@?$_Vector_alloc@U?$_Vec_base_types@VTileRow@@V?$allocator@VTileRow@@@std@@@std@@@std@@QEAAXXZ 000000018002b0e0 f i BerconTile.obj
 0001:0002a0e0       ?_Alloc_proxy@?$_Vector_alloc@U?$_Vec_base_types@MV?$allocator@M@std@@@std@@@std@@QEAAXXZ 000000018002b0e0 f i BerconTile.obj
 0001:0002a0e0       ?_Alloc_proxy@?$_Vector_alloc@U?$_Vec_base_types@V?$basic_string@_WU?$char_traits@_W@std@@V?$allocator@_W@2@@std@@V?$allocator@V?$basic_string@_WU?$char_traits@_W@std@@V?$allocator@_W@2@@std@@@2@@std@@@std@@QEAAXXZ 000000018002b0e0 f i tile.obj
 0001:0002a0e0       ?_Alloc_proxy@?$_String_alloc@U?$_String_base_types@_WV?$allocator@_W@std@@@std@@@std@@QEAAXXZ 000000018002b0e0 f i BerconTile.obj
 0001:0002a1b0       ?_Allocate@std@@YAPEAX_K0_N@Z 000000018002b1b0 f i BerconTile.obj
 0001:0002a3c0       ?_Check_offset@?$basic_string@_WU?$char_traits@_W@std@@V?$allocator@_W@2@@std@@QEBAX_K@Z 000000018002b3c0 f i BerconTile.obj
 0001:0002a400       ?_Clamp_suffix_size@?$basic_string@_WU?$char_traits@_W@std@@V?$allocator@_W@2@@std@@QEBA_K_K0@Z 000000018002b400 f i BerconTile.obj
 0001:0002a450       ?_Copy@?$basic_string@_WU?$char_traits@_W@std@@V?$allocator@_W@2@@std@@QEAAX_K0@Z 000000018002b450 f i BerconTile.obj
 0001:0002a690       ?_Deallocate@std@@YAXPEAX_K1@Z 000000018002b690 f i BerconTile.obj
 0001:0002aa50       ?_Destroy@?$vector@MV?$allocator@M@std@@@std@@IEAAXPEAM0@Z 000000018002ba50 f i BerconTile.obj
 0001:0002aa90       ?_Destroy@?$vector@VTileRow@@V?$allocator@VTileRow@@@std@@@std@@IEAAXPEAVTileRow@@0@Z 000000018002ba90 f i BerconTile.obj
 0001:0002aad0       ?_Eos@?$basic_string@_WU?$char_traits@_W@std@@V?$allocator@_W@2@@std@@QEAAX_K@Z 000000018002bad0 f i BerconTile.obj
 0001:0002ab30       ?_Get_data@?$_Vector_alloc@U?$_Vec_base_types@MV?$allocator@M@std@@@std@@@std@@QEAAAEAV?$_Vector_val@U?$_Simple_types@M@std@@@2@XZ 000000018002bb30 f i BerconTile.obj
 0001:0002ab30       ?_Getal@?$_Vector_alloc@U?$_Vec_base_types@V?$basic_string@_WU?$char_traits@_W@std@@V?$allocator@_W@2@@std@@V?$allocator@V?$basic_string@_WU?$char_traits@_W@std@@V?$allocator@_W@2@@std@@@2@@std@@@std@@QEAAAEAU?$_Wrap_alloc@V?$allocator@V?$basic_string@_WU?$char_traits@_W@std@@V?$allocator@_W@2@@std@@@std@@@2@XZ 000000018002bb30 f i tile.obj
 0001:0002ab30       ?_Getal@?$_Vector_alloc@U?$_Vec_base_types@MV?$allocator@M@std@@@std@@@std@@QEAAAEAU?$_Wrap_alloc@V?$allocator@M@std@@@2@XZ 000000018002bb30 f i BerconTile.obj
 0001:0002ab30       ?_Getal@?$_Vector_alloc@U?$_Vec_base_types@VTileRow@@V?$allocator@VTileRow@@@std@@@std@@@std@@QEAAAEAU?$_Wrap_alloc@V?$allocator@VTileRow@@@std@@@2@XZ 000000018002bb30 f i BerconTile.obj
 0001:0002ab30       ?_Getal@?$_Vector_alloc@U?$_Vec_base_types@MV?$allocator@M@std@@@std@@@std@@QEBAAEBU?$_Wrap_alloc@V?$allocator@M@std@@@2@XZ 000000018002bb30 f i tile.obj
 0001:0002ab30       ?_Get_data@?$_String_alloc@U?$_String_base_types@_WV?$allocator@_W@std@@@std@@@std@@QEBAAEBV?$_String_val@U?$_Simple_types@_W@std@@@2@XZ 000000018002bb30 f i BerconTile.obj
 0001:0002ab30       ?_Get_data@?$_Vector_alloc@U?$_Vec_base_types@MV?$allocator@M@std@@@std@@@std@@QEBAAEBV?$_Vector_val@U?$_Simple_types@M@std@@@2@XZ 000000018002bb30 f i BerconTile.obj
 0001:0002ab30       ?_Getal@?$_Vector_alloc@U?$_Vec_base_types@V?$basic_string@_WU?$char_traits@_W@std@@V?$allocator@_W@2@@std@@V?$allocator@V?$basic_string@_WU?$char_traits@_W@std@@V?$allocator@_W@2@@std@@@2@@std@@@std@@QEBAAEBU?$_Wrap_alloc@V?$allocator@V?$basic_string@_WU?$char_traits@_W@std@@V?$allocator@_W@2@@std@@@std@@@2@XZ 000000018002bb30 f i tile.obj
 0001:0002ab30       ?_Get_data@?$_String_alloc@U?$_String_base_types@_WV?$allocator@_W@std@@@std@@@std@@QEAAAEAV?$_String_val@U?$_Simple_types@_W@std@@@2@XZ 000000018002bb30 f i BerconTile.obj
 0001:0002ab30       ?_Getal@?$_String_alloc@U?$_String_base_types@_WV?$allocator@_W@std@@@std@@@std@@QEAAAEAU?$_Wrap_alloc@V?$allocator@_W@std@@@2@XZ 000000018002bb30 f i BerconTile.obj
 0001:0002ab30       ?_Get_data@?$_Vector_alloc@U?$_Vec_base_types@V?$basic_string@_WU?$char_traits@_W@std@@V?$allocator@_W@2@@std@@V?$allocator@V?$basic_string@_WU?$char_traits@_W@std@@V?$allocator@_W@2@@std@@@2@@std@@@std@@QEAAAEAV?$_Vector_val@U?$_Simple_types@V?$basic_string@_WU?$char_traits@_W@std@@V?$allocator@_W@2@@std@@@std@@@2@XZ 000000018002bb30 f i tile.obj
 0001:0002ab30       ?_Getal@?$_Vector_alloc@U?$_Vec_base_types@VTileRow@@V?$allocator@VTileRow@@@std@@@std@@@std@@QEBAAEBU?$_Wrap_alloc@V?$allocator@VTileRow@@@std@@@2@XZ 000000018002bb30 f i tile.obj
 0001:0002ab30       ?_Getal@?$_String_alloc@U?$_String_base_types@_WV?$allocator@_W@std@@@std@@@std@@QEBAAEBU?$_Wrap_alloc@V?$allocator@_W@std@@@2@XZ 000000018002bb30 f i BerconTile.obj
 0001:0002ab30       ?_Get_data@?$_Vector_alloc@U?$_Vec_base_types@VTileRow@@V?$allocator@VTileRow@@@std@@@std@@@std@@QEAAAEAV?$_Vector_val@U?$_Simple_types@VTileRow@@@std@@@2@XZ 000000018002bb30 f i BerconTile.obj
 0001:0002ab30       ?_Get_data@?$_Vector_alloc@U?$_Vec_base_types@VTileRow@@V?$allocator@VTileRow@@@std@@@std@@@std@@QEBAAEBV?$_Vector_val@U?$_Simple_types@VTileRow@@@std@@@2@XZ 000000018002bb30 f i BerconTile.obj
 0001:0002ab30       ?_Get_data@?$_Vector_alloc@U?$_Vec_base_types@V?$basic_string@_WU?$char_traits@_W@std@@V?$allocator@_W@2@@std@@V?$allocator@V?$basic_string@_WU?$char_traits@_W@std@@V?$allocator@_W@2@@std@@@2@@std@@@std@@QEBAAEBV?$_Vector_val@U?$_Simple_types@V?$basic_string@_WU?$char_traits@_W@std@@V?$allocator@_W@2@@std@@@std@@@2@XZ 000000018002bb30 f i tile.obj
 0001:0002ab50       ?_Grow@?$basic_string@_WU?$char_traits@_W@std@@V?$allocator@_W@2@@std@@QEAA_N_K_N@Z 000000018002bb50 f i BerconTile.obj
 0001:0002ac40       ?_Inside@?$basic_string@_WU?$char_traits@_W@std@@V?$allocator@_W@2@@std@@QEAA_NPEB_W@Z 000000018002bc40 f i BerconTile.obj
 0001:0002aca0       ?_Myfirst@?$_Vector_alloc@U?$_Vec_base_types@V?$basic_string@_WU?$char_traits@_W@std@@V?$allocator@_W@2@@std@@V?$allocator@V?$basic_string@_WU?$char_traits@_W@std@@V?$allocator@_W@2@@std@@@2@@std@@@std@@QEAAAEAPEAV?$basic_string@_WU?$char_traits@_W@std@@V?$allocator@_W@2@@2@XZ 000000018002bca0 f i tile.obj
 0001:0002aca0       ?_Myfirst@?$_Vector_alloc@U?$_Vec_base_types@MV?$allocator@M@std@@@std@@@std@@QEAAAEAPEAMXZ 000000018002bca0 f i BerconTile.obj
 0001:0002aca0       ?_Myfirst@?$_Vector_alloc@U?$_Vec_base_types@MV?$allocator@M@std@@@std@@@std@@QEBAAEBQEAMXZ 000000018002bca0 f i BerconTile.obj
 0001:0002aca0       ?_Myfirst@?$_Vector_alloc@U?$_Vec_base_types@V?$basic_string@_WU?$char_traits@_W@std@@V?$allocator@_W@2@@std@@V?$allocator@V?$basic_string@_WU?$char_traits@_W@std@@V?$allocator@_W@2@@std@@@2@@std@@@std@@QEBAAEBQEAV?$basic_string@_WU?$char_traits@_W@std@@V?$allocator@_W@2@@2@XZ 000000018002bca0 f i tile.obj
 0001:0002aca0       ?_Bx@?$_String_alloc@U?$_String_base_types@_WV?$allocator@_W@std@@@std@@@std@@QEAAAEAT_Bxty@?$_String_val@U?$_Simple_types@_W@std@@@2@XZ 000000018002bca0 f i BerconTile.obj
 0001:0002aca0       ?_Myfirst@?$_Vector_alloc@U?$_Vec_base_types@VTileRow@@V?$allocator@VTileRow@@@std@@@std@@@std@@QEBAAEBQEAVTileRow@@XZ 000000018002bca0 f i BerconTile.obj
 0001:0002aca0       ?_Myfirst@?$_Vector_alloc@U?$_Vec_base_types@VTileRow@@V?$allocator@VTileRow@@@std@@@std@@@std@@QEAAAEAPEAVTileRow@@XZ 000000018002bca0 f i BerconTile.obj
 0001:0002acc0       ?_Mylast@?$_Vector_alloc@U?$_Vec_base_types@MV?$allocator@M@std@@@std@@@std@@QEAAAEAPEAMXZ 000000018002bcc0 f i BerconTile.obj
 0001:0002acc0       ?_Mylast@?$_Vector_alloc@U?$_Vec_base_types@V?$basic_string@_WU?$char_traits@_W@std@@V?$allocator@_W@2@@std@@V?$allocator@V?$basic_string@_WU?$char_traits@_W@std@@V?$allocator@_W@2@@std@@@2@@std@@@std@@QEAAAEAPEAV?$basic_string@_WU?$char_traits@_W@std@@V?$allocator@_W@2@@2@XZ 000000018002bcc0 f i tile.obj
 0001:0002acc0       ?_Mylast@?$_Vector_alloc@U?$_Vec_base_types@VTileRow@@V?$allocator@VTileRow@@@std@@@std@@@std@@QEBAAEBQEAVTileRow@@XZ 000000018002bcc0 f i BerconTile.obj
 0001:0002acc0       ?_Mylast@?$_Vector_alloc@U?$_Vec_base_types@VTileRow@@V?$allocator@VTileRow@@@std@@@std@@@std@@QEAAAEAPEAVTileRow@@XZ 000000018002bcc0 f i BerconTile.obj
 0001:0002acc0       ?_Mylast@?$_Vector_alloc@U?$_Vec_base_types@MV?$allocator@M@std@@@std@@@std@@QEBAAEBQEAMXZ 000000018002bcc0 f i BerconTile.obj
 0001:0002acc0       ?_Mylast@?$_Vector_alloc@U?$_Vec_base_types@V?$basic_string@_WU?$char_traits@_W@std@@V?$allocator@_W@2@@std@@V?$allocator@V?$basic_string@_WU?$char_traits@_W@std@@V?$allocator@_W@2@@std@@@2@@std@@@std@@QEBAAEBQEAV?$basic_string@_WU?$char_traits@_W@std@@V?$allocator@_W@2@@2@XZ 000000018002bcc0 f i tile.obj
 0001:0002ace0       ?_Myproxy@?$_Vector_alloc@U?$_Vec_base_types@VTileRow@@V?$allocator@VTileRow@@@std@@@std@@@std@@QEAAAEAPEAU_Container_proxy@2@XZ 000000018002bce0 f i BerconTile.obj
 0001:0002ace0       ?_Myproxy@?$_Vector_alloc@U?$_Vec_base_types@MV?$allocator@M@std@@@std@@@std@@QEAAAEAPEAU_Container_proxy@2@XZ 000000018002bce0 f i BerconTile.obj
 0001:0002ace0       ?_Myproxy@?$_String_alloc@U?$_String_base_types@_WV?$allocator@_W@std@@@std@@@std@@QEAAAEAPEAU_Container_proxy@2@XZ 000000018002bce0 f i BerconTile.obj
 0001:0002ace0       ?_Myproxy@?$_Vector_alloc@U?$_Vec_base_types@V?$basic_string@_WU?$char_traits@_W@std@@V?$allocator@_W@2@@std@@V?$allocator@V?$basic_string@_WU?$char_traits@_W@std@@V?$allocator@_W@2@@std@@@2@@std@@@std@@QEAAAEAPEAU_Container_proxy@2@XZ 000000018002bce0 f i tile.obj
 0001:0002ad00       ?_Myptr@?$_String_alloc@U?$_String_base_types@_WV?$allocator@_W@std@@@std@@@std@@QEBAPEB_WXZ 000000018002bd00 f i BerconTile.obj
 0001:0002ad00       ?_Myptr@?$_String_alloc@U?$_String_base_types@_WV?$allocator@_W@std@@@std@@@std@@QEAAPEA_WXZ 000000018002bd00 f i BerconTile.obj
 0001:0002ad20       ?_Myptr@?$_String_val@U?$_Simple_types@_W@std@@@std@@QEAAPEA_WXZ 000000018002bd20 f i BerconTile.obj
 0001:0002ad20       ?_Myptr@?$_String_val@U?$_Simple_types@_W@std@@@std@@QEBAPEB_WXZ 000000018002bd20 f i BerconTile.obj
 0001:0002ad70       ?_Myres@?$_String_alloc@U?$_String_base_types@_WV?$allocator@_W@std@@@std@@@std@@QEAAAEA_KXZ 000000018002bd70 f i BerconTile.obj
 0001:0002ad90       ?_Myend@?$_Vector_alloc@U?$_Vec_base_types@V?$basic_string@_WU?$char_traits@_W@std@@V?$allocator@_W@2@@std@@V?$allocator@V?$basic_string@_WU?$char_traits@_W@std@@V?$allocator@_W@2@@std@@@2@@std@@@std@@QEAAAEAPEAV?$basic_string@_WU?$char_traits@_W@std@@V?$allocator@_W@2@@2@XZ 000000018002bd90 f i tile.obj
 0001:0002ad90       ?_Myend@?$_Vector_alloc@U?$_Vec_base_types@VTileRow@@V?$allocator@VTileRow@@@std@@@std@@@std@@QEBAAEBQEAVTileRow@@XZ 000000018002bd90 f i tile.obj
 0001:0002ad90       ?_Myend@?$_Vector_alloc@U?$_Vec_base_types@V?$basic_string@_WU?$char_traits@_W@std@@V?$allocator@_W@2@@std@@V?$allocator@V?$basic_string@_WU?$char_traits@_W@std@@V?$allocator@_W@2@@std@@@2@@std@@@std@@QEBAAEBQEAV?$basic_string@_WU?$char_traits@_W@std@@V?$allocator@_W@2@@2@XZ 000000018002bd90 f i tile.obj
 0001:0002ad90       ?_Mysize@?$_String_alloc@U?$_String_base_types@_WV?$allocator@_W@std@@@std@@@std@@QEBAAEB_KXZ 000000018002bd90 f i BerconTile.obj
 0001:0002ad90       ?_Myend@?$_Vector_alloc@U?$_Vec_base_types@MV?$allocator@M@std@@@std@@@std@@QEBAAEBQEAMXZ 000000018002bd90 f i tile.obj
 0001:0002ad90       ?_Mysize@?$_String_alloc@U?$_String_base_types@_WV?$allocator@_W@std@@@std@@@std@@QEAAAEA_KXZ 000000018002bd90 f i BerconTile.obj
 0001:0002ad90       ?_Myend@?$_Vector_alloc@U?$_Vec_base_types@MV?$allocator@M@std@@@std@@@std@@QEAAAEAPEAMXZ 000000018002bd90 f i BerconTile.obj
 0001:0002ad90       ?_Myend@?$_Vector_alloc@U?$_Vec_base_types@VTileRow@@V?$allocator@VTileRow@@@std@@@std@@@std@@QEAAAEAPEAVTileRow@@XZ 000000018002bd90 f i BerconTile.obj
 0001:0002adb0       ?_Orphan_all@?$_Vector_alloc@U?$_Vec_base_types@VTileRow@@V?$allocator@VTileRow@@@std@@@std@@@std@@QEAAXXZ 000000018002bdb0 f i BerconTile.obj
 0001:0002adb0       ?_Orphan_all@?$_Vector_alloc@U?$_Vec_base_types@V?$basic_string@_WU?$char_traits@_W@std@@V?$allocator@_W@2@@std@@V?$allocator@V?$basic_string@_WU?$char_traits@_W@std@@V?$allocator@_W@2@@std@@@2@@std@@@std@@QEAAXXZ 000000018002bdb0 f i tile.obj
 0001:0002adb0       ?_Orphan_all@?$_String_alloc@U?$_String_base_types@_WV?$allocator@_W@std@@@std@@@std@@QEAAXXZ 000000018002bdb0 f i BerconTile.obj
 0001:0002adb0       ?_Orphan_all@?$_Vector_alloc@U?$_Vec_base_types@MV?$allocator@M@std@@@std@@@std@@QEAAXXZ 000000018002bdb0 f i BerconTile.obj
 0001:0002add0       ?_Orphan_all@_Container_base12@std@@QEAAXXZ 000000018002bdd0 f i BerconTile.obj
 0001:0002ae80       ?_Tidy@?$basic_string@_WU?$char_traits@_W@std@@V?$allocator@_W@2@@std@@QEAAX_N_K@Z 000000018002be80 f i BerconTile.obj
 0001:0002af90       ?_Tidy@?$vector@MV?$allocator@M@std@@@std@@IEAAXXZ 000000018002bf90 f i BerconTile.obj
 0001:0002b090       ?_Tidy@?$vector@VTileRow@@V?$allocator@VTileRow@@@std@@@std@@IEAAXXZ 000000018002c090 f i BerconTile.obj
 0001:0002b190       ?_Xlen@?$basic_string@_WU?$char_traits@_W@std@@V?$allocator@_W@2@@std@@QEBAXXZ 000000018002c190 f i BerconTile.obj
 0001:0002b1b0       ?_Xran@?$basic_string@_WU?$char_traits@_W@std@@V?$allocator@_W@2@@std@@QEBAXXZ 000000018002c1b0 f i BerconTile.obj
 0001:0002b1d0       ?address@?$_Wrap_alloc@V?$allocator@U_Container_proxy@std@@@std@@@std@@QEBAPEAU_Container_proxy@2@AEAU32@@Z 000000018002c1d0 f i BerconTile.obj
 0001:0002b1f0       ?allocate@?$_Wrap_alloc@V?$allocator@U_Container_proxy@std@@@std@@@std@@QEAAPEAU_Container_proxy@2@_K@Z 000000018002c1f0 f i BerconTile.obj
 0001:0002b220       ?allocate@?$_Wrap_alloc@V?$allocator@_W@std@@@std@@QEAAPEA_W_K@Z 000000018002c220 f i BerconTile.obj
 0001:0002b250       ?allocate@?$allocator@U_Container_proxy@std@@@std@@QEAAPEAU_Container_proxy@2@_K@Z 000000018002c250 f i BerconTile.obj
 0001:0002b280       ?allocate@?$allocator@_W@std@@QEAAPEA_W_K@Z 000000018002c280 f i BerconTile.obj
 0001:0002b2b0       ?assign@?$basic_string@_WU?$char_traits@_W@std@@V?$allocator@_W@2@@std@@QEAAAEAV12@AEBV12@_K1@Z 000000018002c2b0 f i BerconTile.obj
 0001:0002b3a0       ?assign@?$basic_string@_WU?$char_traits@_W@std@@V?$allocator@_W@2@@std@@QEAAAEAV12@PEB_W@Z 000000018002c3a0 f i BerconTile.obj
 0001:0002b3f0       ?assign@?$basic_string@_WU?$char_traits@_W@std@@V?$allocator@_W@2@@std@@QEAAAEAV12@PEB_W_K@Z 000000018002c3f0 f i BerconTile.obj
 0001:0002b4d0       ?assign@?$char_traits@_W@std@@SAXAEA_WAEB_W@Z 000000018002c4d0 f i BerconTile.obj
 0001:0002b4f0       ?checkValues@TileParam@@QEAAXXZ 000000018002c4f0 f i BerconTile.obj
 0001:0002b740       ?copy@?$char_traits@_W@std@@SAPEA_WPEA_WPEB_W_K@Z 000000018002c740 f i BerconTile.obj
 0001:0002b790       ?deallocate@?$_Wrap_alloc@V?$allocator@M@std@@@std@@QEAAXPEAM_K@Z 000000018002c790 f i BerconTile.obj
 0001:0002b7c0       ?deallocate@?$_Wrap_alloc@V?$allocator@U_Container_proxy@std@@@std@@@std@@QEAAXPEAU_Container_proxy@2@_K@Z 000000018002c7c0 f i BerconTile.obj
 0001:0002b7f0       ?deallocate@?$_Wrap_alloc@V?$allocator@_W@std@@@std@@QEAAXPEA_W_K@Z 000000018002c7f0 f i BerconTile.obj
 0001:0002b820       ?deallocate@?$allocator@M@std@@QEAAXPEAM_K@Z 000000018002c820 f i BerconTile.obj
 0001:0002b850       ?deallocate@?$allocator@U_Container_proxy@std@@@std@@QEAAXPEAU_Container_proxy@2@_K@Z 000000018002c850 f i BerconTile.obj
 0001:0002b880       ?deallocate@?$allocator@_W@std@@QEAAXPEA_W_K@Z 000000018002c880 f i BerconTile.obj
 0001:0002b8b0       ?erase@?$basic_string@_WU?$char_traits@_W@std@@V?$allocator@_W@2@@std@@QEAAAEAV12@_K0@Z 000000018002c8b0 f i BerconTile.obj
 0001:0002b980       ?erase@?$basic_string@_WU?$char_traits@_W@std@@V?$allocator@_W@2@@std@@QEAAAEAV12@_K@Z 000000018002c980 f i BerconTile.obj
 0001:0002b9c0       ?getColor@BerconTile@@QEAA?AVAColor@@AEAVShadeContext@@H@Z 000000018002c9c0 f i BerconTile.obj
 0001:0002baa0       ?getDistVector@BerconTile@@QEAA?AVPoint3@@AEAVShadeContext@@@Z 000000018002caa0 f   BerconTile.obj
 0001:0002bc30       ?getFloat@BerconTile@@QEAAMAEAVShadeContext@@H@Z 000000018002cc30 f i BerconTile.obj
 0001:0002bce0       ?getNormal@BerconTile@@QEAA?AVPoint3@@AEAVShadeContext@@H@Z 000000018002cce0 f i BerconTile.obj
 0001:0002bda0       ?length@?$char_traits@_W@std@@SA_KPEB_W@Z 000000018002cda0 f i BerconTile.obj
 0001:0002bde0       ?max_size@?$_Wrap_alloc@V?$allocator@_W@std@@@std@@QEBA_KU_Nil@2@@Z 000000018002cde0 f i BerconTile.obj
 0001:0002be00       ?max_size@?$allocator@_W@std@@QEBA_KXZ 000000018002ce00 f i BerconTile.obj
 0001:0002be10       ?max_size@?$allocator_traits@V?$allocator@_W@std@@@std@@SA_KAEBV?$allocator@_W@2@@Z 000000018002ce10 f i BerconTile.obj
 0001:0002be30       ?max_size@?$basic_string@_WU?$char_traits@_W@std@@V?$allocator@_W@2@@std@@QEBA_KXZ 000000018002ce30 f i BerconTile.obj
 0001:0002be80       ?move@?$char_traits@_W@std@@SAPEA_WPEA_WPEB_W_K@Z 000000018002ce80 f i BerconTile.obj
 0001:0002bed0       ?pointer_to@?$pointer_traits@PEAU_Container_proxy@std@@@std@@SAPEAU_Container_proxy@2@AEAU32@@Z 000000018002ced0 f i BerconTile.obj
 0001:0002bef0       ?setMultiTexture@BerconSC@@QEAAXM@Z 000000018002cef0 f i BerconTile.obj
 0001:0002c0e0       ?setUV1@BerconSC@@QEAAXVPoint3@@H@Z 000000018002d0e0 f i BerconTile.obj
 0001:0002c120       ?setUV2@BerconSC@@QEAAXVPoint3@@H@Z 000000018002d120 f i BerconTile.obj
 0001:0002c160       ?size@?$vector@MV?$allocator@M@std@@@std@@QEBA_KXZ 000000018002d160 f i BerconTile.obj
 0001:0002c1a0       ?update@TilePattern@@QEAAXXZ 000000018002d1a0 f i BerconTile.obj
 0001:0002c240       ?update@TileRow@@QEAAXXZ   000000018002d240 f i BerconTile.obj
 0001:0002c2d0       wmemcpy                    000000018002d2d0 f i BerconTile.obj
 0001:0002c310       wmemmove                   000000018002d310 f i BerconTile.obj
 0001:0002c350       ??0BerconCurveDlgProc@@QEAA@PEAVBerconWood@@@Z 000000018002d350 f i BerconWood.obj
 0001:0002c3a0       ??0BerconWood@@QEAA@XZ     000000018002d3a0 f   BerconWood.obj
 0001:0002c530       ??0BerconWoodClassDesc@@QEAA@XZ 000000018002d530 f i BerconWood.obj
 0001:0002c570       ??0BerconWoodDlgProc@@QEAA@PEAVBerconWood@@@Z 000000018002d570 f i BerconWood.obj
 0001:0002c5c0       ??1BerconCurveDlgProc@@UEAA@XZ 000000018002d5c0 f i BerconWood.obj
 0001:0002c5f0       ??1BerconWood@@UEAA@XZ     000000018002d5f0 f   BerconWood.obj
 0001:0002c650       ??1BerconWoodClassDesc@@UEAA@XZ 000000018002d650 f i BerconWood.obj
 0001:0002c690       ??1BerconWoodDlgProc@@UEAA@XZ 000000018002d690 f i BerconWood.obj
 0001:0002c6b4       ??_EBerconWood@@WEA@EAAPEAXI@Z 000000018002d6b4 f i BerconWood.obj
 0001:0002c6c0       ??_EBerconCurveDlgProc@@UEAAPEAXI@Z 000000018002d6c0 f i BerconWood.obj
 0001:0002c6c0       ??_GBerconCurveDlgProc@@UEAAPEAXI@Z 000000018002d6c0 f i BerconWood.obj
 0001:0002c720       ??_GBerconWood@@UEAAPEAXI@Z 000000018002d720 f i BerconWood.obj
 0001:0002c720       ??_EBerconWood@@UEAAPEAXI@Z 000000018002d720 f i BerconWood.obj
 0001:0002c780       ??_GBerconWoodClassDesc@@UEAAPEAXI@Z 000000018002d780 f i BerconWood.obj
 0001:0002c780       ??_EBerconWoodClassDesc@@UEAAPEAXI@Z 000000018002d780 f i BerconWood.obj
 0001:0002c7e0       ??_EBerconWoodDlgProc@@UEAAPEAXI@Z 000000018002d7e0 f i BerconWood.obj
 0001:0002c7e0       ??_GBerconWoodDlgProc@@UEAAPEAXI@Z 000000018002d7e0 f i BerconWood.obj
 0001:0002c840       ?ActivateTexDisplay@BerconWood@@UEAAXH@Z 000000018002d840 f i BerconWood.obj
 0001:0002c870       ?ClassID@BerconWood@@UEAA?AVClass_ID@@XZ 000000018002d870 f i BerconWood.obj
 0001:0002c870       ?ClassID@BerconWoodClassDesc@@UEAA?AVClass_ID@@XZ 000000018002d870 f i BerconWood.obj
 0001:0002c8a0       ?ClassName@BerconWoodClassDesc@@UEAAPEB_WXZ 000000018002d8a0 f i BerconWood.obj
 0001:0002c8c0       ?Clone@BerconWood@@UEAAPEAVReferenceTarget@@AEAVRemapDir@@@Z 000000018002d8c0 f   BerconWood.obj
 0001:0002cb50       ?Create@BerconWoodClassDesc@@UEAAPEAXH@Z 000000018002db50 f i BerconWood.obj
 0001:0002cbc0       ?CreateParamDlg@BerconWood@@UEAAPEAVParamDlg@@PEAUHWND__@@PEAVIMtlParams@@@Z 000000018002dbc0 f   BerconWood.obj
 0001:0002cdb0       ?DiscardTexHandle@BerconWood@@QEAAXXZ 000000018002ddb0 f i BerconWood.obj
 0001:0002ce00       ?DlgProc@BerconCurveDlgProc@@UEAA_JHPEAVIParamMap2@@PEAUHWND__@@I_K_J@Z 000000018002de00 f i BerconWood.obj
 0001:0002cf10       ?DlgProc@BerconWoodDlgProc@@UEAA_JHPEAVIParamMap2@@PEAUHWND__@@I_K_J@Z 000000018002df10 f   BerconWood.obj
 0001:0002d180       ?EnableStuff@BerconWood@@QEAAXXZ 000000018002e180 f   BerconWood.obj
 0001:0002d400       ?EvalColor@BerconWood@@UEAA?AVAColor@@AEAVShadeContext@@@Z 000000018002e400 f   BerconWood.obj
 0001:0002df70       ?EvalNormalPerturb@BerconWood@@UEAA?AVPoint3@@AEAVShadeContext@@@Z 000000018002ef70 f   BerconWood.obj
 0001:0002f130       ?EvalParameters@BerconWood@@QEAA?AVWoodParam@@AEAVShadeContext@@@Z 0000000180030130 f   BerconWood.obj
 0001:0002fc40       ?GetActiveTexHandle@BerconWood@@UEAA_KHAEAVTexHandleMaker@@@Z 0000000180030c40 f   BerconWood.obj
 0001:0002fd50       ?GetBerconWoodDesc@@YAPEAVClassDesc2@@XZ 0000000180030d50 f   BerconWood.obj
 0001:0002fd60       ?GetClassName@BerconWood@@UEAAXAEAVWStr@@@Z 0000000180030d60 f i BerconWood.obj
 0001:0002fd90       ?GetInterface@BerconWood@@UEAAPEAXK@Z 0000000180030d90 f i BerconWood.obj
 0001:0002fd90       ?GetInterface@BerconTile@@UEAAPEAXK@Z 0000000180030d90 f i BerconTile.obj
 0001:0002fd90       ?GetInterface@BerconNoise@@UEAAPEAXK@Z 0000000180030d90 f i BerconNoise.obj
 0001:0002fd90       ?GetInterface@BerconGradient@@UEAAPEAXK@Z 0000000180030d90 f i BerconGradient.obj
 0001:0002fde8       ?GetInterface@BerconWood@@WJA@EAAPEAXK@Z 0000000180030de8 f i BerconWood.obj
 0001:0002fde8       ?GetInterface@BerconNoise@@WJA@EAAPEAXK@Z 0000000180030de8 f i BerconNoise.obj
 0001:0002fde8       ?GetInterface@BerconTile@@WJA@EAAPEAXK@Z 0000000180030de8 f i BerconTile.obj
 0001:0002fde8       ?GetInterface@BerconGradient@@WJA@EAAPEAXK@Z 0000000180030de8 f i BerconGradient.obj
 0001:0002fe00       ?GetParamBlock@BerconWood@@UEAAPEAVIParamBlock2@@H@Z 0000000180030e00 f i BerconWood.obj
 0001:0002fe70       ?GetParamBlockByID@BerconWood@@UEAAPEAVIParamBlock2@@F@Z 0000000180030e70 f i BerconWood.obj
 0001:0002ff70       ?GetReference@BerconWood@@UEAAPEAVReferenceTarget@@H@Z 0000000180030f70 f   BerconWood.obj
 0001:00030050       ?GetSubTexmap@BerconWood@@UEAAPEAVTexmap@@H@Z 0000000180031050 f i BerconWood.obj
 0001:00030070       ?GetSubTexmapSlotName@BerconWood@@UEAA?AVWStr@@H@Z 0000000180031070 f   BerconWood.obj
 0001:00030530       ?InternalName@BerconWoodClassDesc@@UEAAPEB_WXZ 0000000180031530 f i BerconWood.obj
 0001:00030540       ?LocalRequirements@BerconWood@@UEAAKH@Z 0000000180031540 f i BerconWood.obj
 0001:00030570       ?MappingsRequired@BerconWood@@UEAAXHAEAVBitArray@@0@Z 0000000180031570 f i BerconWood.obj
 0001:000305b0       ?NotifyRefChanged@BerconWood@@UEAA?AW4RefResult@@AEBVInterval@@PEAVReferenceTarget@@AEA_KIH@Z 00000001800315b0 f   BerconWood.obj
 0001:000306d0       ?NumParamBlocks@BerconNoise@@UEAAHXZ 00000001800316d0 f i BerconNoise.obj
 0001:000306d0       ?NumParamBlocks@BerconWood@@UEAAHXZ 00000001800316d0 f i BerconWood.obj
 0001:000306e0       ?NumSubs@BerconWood@@UEAAHXZ 00000001800316e0 f i BerconWood.obj
 0001:000306e0       ?NumRefs@BerconWood@@UEAAHXZ 00000001800316e0 f i BerconWood.obj
 0001:000306f0       ?NumSubTexmaps@BerconWood@@UEAAHXZ 00000001800316f0 f i BerconWood.obj
 0001:00030700       ?Reset@BerconWood@@UEAAXXZ 0000000180031700 f   BerconWood.obj
 0001:00031100       ?SetDlgThing@BerconWood@@UEAAHPEAVParamDlg@@@Z 0000000180032100 f   BerconWood.obj
 0001:00031150       ?SetReference@BerconWood@@UEAAXHPEAVReferenceTarget@@@Z 0000000180032150 f   BerconWood.obj
 0001:00031260       ?SetSubTexmap@BerconWood@@UEAAXHPEAVTexmap@@@Z 0000000180032260 f   BerconWood.obj
 0001:000313e0       ?SetThing@BerconCurveDlgProc@@UEAAXPEAVReferenceTarget@@@Z 00000001800323e0 f i BerconWood.obj
 0001:00031420       ?SetThing@BerconWoodDlgProc@@UEAAXPEAVReferenceTarget@@@Z 0000000180032420 f i BerconWood.obj
 0001:00031450       ?SubAnim@BerconWood@@UEAAPEAVAnimatable@@H@Z 0000000180032450 f   BerconWood.obj
 0001:00031530       ?SubAnimName@BerconWood@@UEAA?AVWStr@@H@Z 0000000180032530 f   BerconWood.obj
 0001:00031710       ?Update@BerconWood@@UEAAXHAEAVInterval@@@Z 0000000180032710 f   BerconWood.obj
 0001:000329f0       ?Validity@BerconWood@@UEAA?AVInterval@@H@Z 00000001800339f0 f   BerconWood.obj
 0001:00032a70       ?applyDistortion@BerconWood@@QEAAXAEAVShadeContext@@AEAVPoint3@@@Z 0000000180033a70 f   BerconWood.obj
 0001:00032bf0       ??D@YA?AVAColor@@AEBV0@M@Z 0000000180033bf0 f i GradientRamp.obj
 0001:00032c70       ?addKey@GradientRamp@@QEAAXHMVAColor@@PEAVTexmap@@@Z 0000000180033c70 f   GradientRamp.obj
 0001:00033160       ?findHighKey@GradientRamp@@QEAAHM@Z 0000000180034160 f   GradientRamp.obj
 0001:00033200       ?getBump@GradientRamp@@QEAA?AVPoint3@@MV2@AEAVShadeContext@@@Z 0000000180034200 f   GradientRamp.obj
 0001:00033940       ?getColor@GradientRamp@@QEAA?AVAColor@@M@Z 0000000180034940 f   GradientRamp.obj
 0001:00033bb0       ?getColor@GradientRamp@@QEAA?AVAColor@@MAEAVShadeContext@@@Z 0000000180034bb0 f   GradientRamp.obj
 0001:00034290       ?getSubtex@GradientRamp@@QEAAPEAVTexmap@@H@Z 0000000180035290 f   GradientRamp.obj
 0001:00034320       ?interpolate@GradientRamp@@QEAAMMMM@Z 0000000180035320 f   GradientRamp.obj
 0001:00034410       ?invalidate@GradientRamp@@QEAAXXZ 0000000180035410 f   GradientRamp.obj
 0001:00034450       ?reset@GradientRamp@@QEAAXXZ 0000000180035450 f   GradientRamp.obj
 0001:00034610       ?setHWND@GradientRamp@@QEAAXPEAUHWND__@@@Z 0000000180035610 f   GradientRamp.obj
 0001:00034690       ?setSubtex@GradientRamp@@QEAAXHPEAVTexmap@@@Z 0000000180035690 f   GradientRamp.obj
 0001:000346d0       ?setSubtex@GradientRamp@@QEAAXPEAVTexmap@@@Z 00000001800356d0 f   GradientRamp.obj
 0001:00034720       ?sort@GradientRamp@@QEAAXXZ 0000000180035720 f   GradientRamp.obj
 0001:000347b0       ?swap@GradientRamp@@QEAAXHH@Z 00000001800357b0 f   GradientRamp.obj
 0001:00034970       ?toIndex@GradientRamp@@QEAAHH@Z 0000000180035970 f   GradientRamp.obj
 0001:000349d0       ??0BitArray@@QEAA@H@Z      00000001800359d0 f i curvectrl.obj
 0001:00034a40       ??1BitArray@@QEAA@XZ       0000000180035a40 f i curvectrl.obj
 0001:00034a90       ?FreeCaches@Animatable@@UEAAXXZ 0000000180035a90 f i BerconDistortion.obj
 0001:00034a90       ?RefDeleted@ReferenceTarget@@UEAAXXZ 0000000180035a90 f i BerconDistortion.obj
 0001:00034a90       ?EditTrack@Animatable@@UEAAXXZ 0000000180035a90 f i BerconDistortion.obj
 0001:00034a90       ?RefDeletedUndoRedo@ReferenceTarget@@UEAAXXZ 0000000180035a90 f i BerconDistortion.obj
 0001:00034a90       ?Disable@IGradient@@UEAAXXZ 0000000180035a90 f i BerconGradient.obj
 0001:00034a90       ?BitArrayAllocated@BitArray@@AEAAXXZ 0000000180035a90 f i curvectrl.obj
 0001:00034a90       _guard_check_icall_nop     0000000180035a90 f i MSVCRTD:guard_support.obj
 0001:00034a90       ?RevertSetKeyBuffer@Animatable@@UEAAXXZ 0000000180035a90 f i BerconDistortion.obj
 0001:00034a90       ??1_Bxty@?$_String_val@U?$_Simple_types@_W@std@@@std@@QEAA@XZ 0000000180035a90 f i BerconTile.obj
 0001:00034a90       ?FreeAllBitmaps@Animatable@@UEAAXXZ 0000000180035a90 f i BerconDistortion.obj
 0001:00034a90       ?BitArrayDeallocated@BitArray@@AEAAXXZ 0000000180035a90 f i curvectrl.obj
 0001:00034aa0       ?SetAll@BitArray@@QEAAXXZ  0000000180035aa0 f i curvectrl.obj
 0001:00034af0       ?UseLocalBits@BitArray@@AEBA_NH@Z 0000000180035af0 f i curvectrl.obj
 0001:00034b20       ?disable@CurveCtrl@@SAXPEAVICurveCtl@@@Z 0000000180035b20 f   curvectrl.obj
 0001:00034b60       ?init@CurveCtrl@@SAXPEAVICurveCtl@@@Z 0000000180035b60 f   curvectrl.obj
 0001:00034eb0       ?update@CurveCtrl@@SAXPEAVICurveCtl@@PEAUHWND__@@PEAVReferenceMaker@@@Z 0000000180035eb0 f   curvectrl.obj
 0001:00034ff0       ?fBm@Fractal@@SAMVPoint3@@AEAVNoiseParams@@@Z 0000000180035ff0 f   fractal.obj
 0001:000351c0       ?fBm@Fractal@@SAMVPoint3@@MAEAVNoiseParams@@@Z 00000001800361c0 f   fractal.obj
 0001:000353d0       ?fBm@Fractal@@SAMVPoint3@@MMM@Z 00000001800363d0 f   fractal.obj
 0001:00035560       ?fBmTurb@Fractal@@SAMVPoint3@@AEAVNoiseParams@@@Z 0000000180036560 f   fractal.obj
 0001:00035730       ?fBmTurb@Fractal@@SAMVPoint3@@MAEAVNoiseParams@@@Z 0000000180036730 f   fractal.obj
 0001:00035930       ?fractal@Fractal@@SAMVPoint3@@AEAVNoiseParams@@@Z 0000000180036930 f   fractal.obj
 0001:00035a70       ?fractal@Fractal@@SAMVPoint3@@MAEAVNoiseParams@@@Z 0000000180036a70 f   fractal.obj
 0001:00035c00       ?grain@Fractal@@SAMVPoint3@@MM@Z 0000000180036c00 f   fractal.obj
 0001:00035cc0       ?heteroTerrain@Fractal@@SAMVPoint3@@AEAVNoiseParams@@@Z 0000000180036cc0 f   fractal.obj
 0001:00035f10       ?hybridMultiFractal@Fractal@@SAMVPoint3@@AEAVNoiseParams@@@Z 0000000180036f10 f   fractal.obj
 0001:000361e0       ?hybridMultiFractal@Fractal@@SAMVPoint3@@MAEAVNoiseParams@@@Z 00000001800371e0 f   fractal.obj
 0001:00036510       ?pow@@YAMMM@Z              0000000180037510 f i fractal.obj
 0001:00036550       ?ridgedMultiFractal@Fractal@@SAMVPoint3@@AEAVNoiseParams@@@Z 0000000180037550 f   fractal.obj
 0001:00036770       ?ridgedMultiFractal@Fractal@@SAMVPoint3@@MAEAVNoiseParams@@@Z 0000000180037770 f   fractal.obj
 0001:000369c0       ?turbulence@Fractal@@SAMVPoint3@@AEAVNoiseParams@@@Z 00000001800379c0 f   fractal.obj
 0001:00036af0       ?turbulence@Fractal@@SAMVPoint3@@MAEAVNoiseParams@@@Z 0000000180037af0 f   fractal.obj
 0001:00036c80       ?alterUVW@Noise@@SAXAEAVPoint3@@H@Z 0000000180037c80 f   noise.obj
 0001:00036d60       ?cos@@YAMM@Z               0000000180037d60 f i noise.obj
 0001:00036d90       ?f@Fractal@@SAMVPoint3@@AEAVNoiseParams@@@Z 0000000180037d90 f i noise.obj
 0001:00036fb0       ?f@Fractal@@SAMVPoint3@@MAEAVNoiseParams@@@Z 0000000180037fb0 f i noise.obj
 0001:00037220       ?limitedNoise@Noise@@SAMVPoint3@@00AEAVNoiseParams@@@Z 0000000180038220 f   noise.obj
 0001:00037340       ?limitedNoise@Noise@@SAMVPoint3@@AEAVNoiseParams@@@Z 0000000180038340 f   noise.obj
 0001:000373f0       ?noise@Noise@@SAMVPoint3@@AEAVNoiseParams@@@Z 00000001800383f0 f   noise.obj
 0001:00037560       ?noise@Noise@@SAMVPoint3@@MAEAVNoiseParams@@@Z 0000000180038560 f   noise.obj
 0001:00037710       ?sin@@YAMM@Z               0000000180038710 f i noise.obj
 0001:00037740       ?wood@Noise@@SAMVPoint3@@00AEAV2@VWoodParam@@@Z 0000000180038740 f   noise.obj
 0001:00038220       ?wood@Noise@@SAMVPoint3@@AEAV2@AEAVWoodParam@@@Z 0000000180039220 f   noise.obj
 0001:00038a00       ?worleyWrapper@Noise@@SAMVPoint3@@AEAVNoiseParams@@@Z 0000000180039a00 f   noise.obj
 0001:00038cf0       ?fnoise2D@Perlin@@SAMMMM@Z 0000000180039cf0 f   perlin.obj
 0001:00038d70       ?fnoise3D@Perlin@@SAMMMMM@Z 0000000180039d70 f   perlin.obj
 0001:00038e00       ?fnoise4D@Perlin@@SAMMMMMM@Z 0000000180039e00 f   perlin.obj
 0001:00038e90       ?fsnoise2D@Perlin@@SAMMMM@Z 0000000180039e90 f   perlin.obj
 0001:00038f10       ?fsnoise3D@Perlin@@SAMMMMM@Z 0000000180039f10 f   perlin.obj
 0001:00038fa0       ?fsnoise4D@Perlin@@SAMMMMMM@Z 0000000180039fa0 f   perlin.obj
 0001:00039030       ?grad@Perlin@@CAMHM@Z      000000018003a030 f   perlin.obj
 0001:000390a0       ?grad@Perlin@@CAMHMM@Z     000000018003a0a0 f   perlin.obj
 0001:00039190       ?grad@Perlin@@CAMHMMM@Z    000000018003a190 f   perlin.obj
 0001:000392a0       ?grad@Perlin@@CAMHMMMM@Z   000000018003a2a0 f   perlin.obj
 0001:000393e0       ?lerp2@@YAMMMM@Z           000000018003a3e0 f   perlin.obj
 0001:00039420       ?noise@Perlin@@SAMMM@Z     000000018003a420 f   perlin.obj
 0001:000396c0       ?noise@Perlin@@SAMMMM@Z    000000018003a6c0 f   perlin.obj
 0001:00039c50       ?noise@Perlin@@SAMMMMM@Z   000000018003ac50 f   perlin.obj
 0001:0003a700       ?point@Perlin@@CAMMH@Z     000000018003b700 f i perlin.obj
 0001:0003a790       ?point@Perlin@@CAMMMHH@Z   000000018003b790 f i perlin.obj
 0001:0003a860       ?point@Perlin@@CAMMMMHHH@Z 000000018003b860 f i perlin.obj
 0001:0003a960       ?point@Perlin@@CAMMMMMHHHH@Z 000000018003b960 f i perlin.obj
 0001:0003aaa0       ?snoise@Perlin@@SAMM@Z     000000018003baa0 f   perlin.obj
 0001:0003ab60       ?snoise@Perlin@@SAMMM@Z    000000018003bb60 f   perlin.obj
 0001:0003ae10       ?snoise@Perlin@@SAMMMM@Z   000000018003be10 f   perlin.obj
 0001:0003b430       ?snoise@Perlin@@SAMMMMM@Z  000000018003c430 f   perlin.obj
 0001:0003c090       ??$?0$$V@?$_Compressed_pair@U?$_Wrap_alloc@V?$allocator@V?$basic_string@_WU?$char_traits@_W@std@@V?$allocator@_W@2@@std@@@std@@@std@@V?$_Vector_val@U?$_Simple_types@V?$basic_string@_WU?$char_traits@_W@std@@V?$allocator@_W@2@@std@@@std@@@2@$00@std@@QEAA@U_Zero_then_variadic_args_t@1@@Z 000000018003d090 f i tile.obj
 0001:0003c0d0       ??$?0AEBV?$allocator@_W@std@@$$V@?$_Compressed_pair@U?$_Wrap_alloc@V?$allocator@_W@std@@@std@@V?$_String_val@U?$_Simple_types@_W@std@@@2@$00@std@@QEAA@U_One_then_variadic_args_t@1@AEBV?$allocator@_W@1@@Z 000000018003d0d0 f i tile.obj
 0001:0003c120       ??$?0AEBV?$allocator@_W@std@@X@?$_String_alloc@U?$_String_base_types@_WV?$allocator@_W@std@@@std@@@std@@QEAA@AEBV?$allocator@_W@1@@Z 000000018003d120 f i tile.obj
 0001:0003c170       ??$?0U?$_Wrap_alloc@V?$allocator@M@std@@@std@@$$V@?$_Compressed_pair@U?$_Wrap_alloc@V?$allocator@M@std@@@std@@V?$_Vector_val@U?$_Simple_types@M@std@@@2@$00@std@@QEAA@U_One_then_variadic_args_t@1@$$QEAU?$_Wrap_alloc@V?$allocator@M@std@@@1@@Z 000000018003d170 f i tile.obj
 0001:0003c1c0       ??$?0U?$_Wrap_alloc@V?$allocator@M@std@@@std@@X@?$_Vector_alloc@U?$_Vec_base_types@MV?$allocator@M@std@@@std@@@std@@QEAA@$$QEAU?$_Wrap_alloc@V?$allocator@M@std@@@1@@Z 000000018003d1c0 f i tile.obj
 0001:0003c210       ??$?0U?$_Wrap_alloc@V?$allocator@_W@std@@@std@@$$V@?$_Compressed_pair@U?$_Wrap_alloc@V?$allocator@_W@std@@@std@@V?$_String_val@U?$_Simple_types@_W@std@@@2@$00@std@@QEAA@U_One_then_variadic_args_t@1@$$QEAU?$_Wrap_alloc@V?$allocator@_W@std@@@1@@Z 000000018003d210 f i tile.obj
 0001:0003c260       ??$?0U?$_Wrap_alloc@V?$allocator@_W@std@@@std@@X@?$_String_alloc@U?$_String_base_types@_WV?$allocator@_W@std@@@std@@@std@@QEAA@$$QEAU?$_Wrap_alloc@V?$allocator@_W@std@@@1@@Z 000000018003d260 f i tile.obj
 0001:0003c2b0       ??0?$_Wrap_alloc@V?$allocator@M@std@@@std@@QEAA@$$QEAU01@@Z 000000018003d2b0 f i tile.obj
 0001:0003c2b0       ??$?0AEAU?$_Wrap_alloc@V?$allocator@V?$basic_string@_WU?$char_traits@_W@std@@V?$allocator@_W@2@@std@@@std@@@std@@@?$_Wrap_alloc@V?$allocator@U_Container_proxy@std@@@std@@@std@@QEAA@AEAU?$_Wrap_alloc@V?$allocator@V?$basic_string@_WU?$char_traits@_W@std@@V?$allocator@_W@2@@std@@@std@@@1@@Z 000000018003d2b0 f i tile.obj
 0001:0003c2b0       ??$?0V?$allocator@M@std@@@?$_Wrap_alloc@V?$allocator@M@std@@@std@@QEAA@$$QEAV?$allocator@M@1@@Z 000000018003d2b0 f i tile.obj
 0001:0003c2b0       ??$?0AEAU?$_Wrap_alloc@V?$allocator@_W@std@@@std@@@?$_Wrap_alloc@V?$allocator@U_Container_proxy@std@@@std@@@std@@QEAA@AEAU?$_Wrap_alloc@V?$allocator@_W@std@@@1@@Z 000000018003d2b0 f i BerconTile.obj
 0001:0003c2b0       ??$?0AEAU?$_Wrap_alloc@V?$allocator@VTileRow@@@std@@@std@@@?$_Wrap_alloc@V?$allocator@U_Container_proxy@std@@@std@@@std@@QEAA@AEAU?$_Wrap_alloc@V?$allocator@VTileRow@@@std@@@1@@Z 000000018003d2b0 f i BerconTile.obj
 0001:0003c2b0       ??$?0AEBV?$allocator@_W@std@@@?$_Wrap_alloc@V?$allocator@_W@std@@@std@@QEAA@AEBV?$allocator@_W@1@@Z 000000018003d2b0 f i tile.obj
 0001:0003c2b0       ??$?0AEAU?$_Wrap_alloc@V?$allocator@M@std@@@std@@@?$_Wrap_alloc@V?$allocator@U_Container_proxy@std@@@std@@@std@@QEAA@AEAU?$_Wrap_alloc@V?$allocator@M@std@@@1@@Z 000000018003d2b0 f i BerconTile.obj
 0001:0003c2b0       ??$?0V?$allocator@_W@std@@@?$_Wrap_alloc@V?$allocator@_W@std@@@std@@QEAA@$$QEAV?$allocator@_W@1@@Z 000000018003d2b0 f i tile.obj
 0001:0003c2b0       ??0?$_Wrap_alloc@V?$allocator@_W@std@@@std@@QEAA@$$QEAU01@@Z 000000018003d2b0 f i tile.obj
 0001:0003c2e0       ??$_Copy_memmove@PEAMPEAM@std@@YAPEAMPEAM00@Z 000000018003d2e0 f i tile.obj
 0001:0003c2e0       ??$_Copy_memmove@PEBMPEAM@std@@YAPEAMPEBM0PEAM@Z 000000018003d2e0 f i tile.obj
 0001:0003c350       ??$_Destroy_range1@V?$allocator@V?$basic_string@_WU?$char_traits@_W@std@@V?$allocator@_W@2@@std@@@std@@PEAV?$basic_string@_WU?$char_traits@_W@std@@V?$allocator@_W@2@@2@@std@@YAXPEAV?$basic_string@_WU?$char_traits@_W@std@@V?$allocator@_W@2@@0@0AEAU?$_Wrap_alloc@V?$allocator@V?$basic_string@_WU?$char_traits@_W@std@@V?$allocator@_W@2@@std@@@std@@@0@U?$integral_constant@_N$0A@@0@@Z 000000018003d350 f i tile.obj
 0001:0003c3b0       ??$_Destroy_range@V?$allocator@V?$basic_string@_WU?$char_traits@_W@std@@V?$allocator@_W@2@@std@@@std@@PEAV?$basic_string@_WU?$char_traits@_W@std@@V?$allocator@_W@2@@2@@std@@YAXPEAV?$basic_string@_WU?$char_traits@_W@std@@V?$allocator@_W@2@@0@0AEAU?$_Wrap_alloc@V?$allocator@V?$basic_string@_WU?$char_traits@_W@std@@V?$allocator@_W@2@@std@@@std@@@0@@Z 000000018003d3b0 f i tile.obj
 0001:0003c3f0       ??$_Ptr_move_cat@MM@std@@YA?AU_Really_trivial_ptr_iterator_tag@0@AEBQEAM0@Z 000000018003d3f0 f i tile.obj
 0001:0003c3f0       ??$_Ptr_copy_cat@$$CBMM@std@@YA?AU_Really_trivial_ptr_iterator_tag@0@AEBQEBMAEBQEAM@Z 000000018003d3f0 f i tile.obj
 0001:0003c410       ??$_Ptr_move_cat@VTileRow@@V1@@std@@YA?AU_General_ptr_iterator_tag@0@AEBQEAVTileRow@@0@Z 000000018003d410 f i tile.obj
 0001:0003c410       ??$_Ptr_move_cat@V?$basic_string@_WU?$char_traits@_W@std@@V?$allocator@_W@2@@std@@V12@@std@@YA?AU_General_ptr_iterator_tag@0@AEBQEAV?$basic_string@_WU?$char_traits@_W@std@@V?$allocator@_W@2@@0@0@Z 000000018003d410 f i tile.obj
 0001:0003c440       ??$_Rechecked@PEAVTileRow@@PEAV1@@std@@YAAEAPEAVTileRow@@AEAPEAV1@PEAV1@@Z 000000018003d440 f i tile.obj
 0001:0003c440       ??$_Rechecked@PEAMPEAM@std@@YAAEAPEAMAEAPEAMPEAM@Z 000000018003d440 f i tile.obj
 0001:0003c440       ??$_Rechecked@PEAV?$basic_string@_WU?$char_traits@_W@std@@V?$allocator@_W@2@@std@@PEAV12@@std@@YAAEAPEAV?$basic_string@_WU?$char_traits@_W@std@@V?$allocator@_W@2@@0@AEAPEAV10@PEAV10@@Z 000000018003d440 f i tile.obj
 0001:0003c460       ??$_Ucopy@V?$_Vector_const_iterator@V?$_Vector_val@U?$_Simple_types@M@std@@@std@@@std@@@?$vector@MV?$allocator@M@std@@@std@@IEAAPEAMV?$_Vector_const_iterator@V?$_Vector_val@U?$_Simple_types@M@std@@@std@@@1@0PEAM@Z 000000018003d460 f i tile.obj
 0001:0003c540       ??$_Umove@PEAM@?$vector@MV?$allocator@M@std@@@std@@IEAAPEAMPEAM00@Z 000000018003d540 f i tile.obj
 0001:0003c580       ??$_Umove@PEAV?$basic_string@_WU?$char_traits@_W@std@@V?$allocator@_W@2@@std@@@?$vector@V?$basic_string@_WU?$char_traits@_W@std@@V?$allocator@_W@2@@std@@V?$allocator@V?$basic_string@_WU?$char_traits@_W@std@@V?$allocator@_W@2@@std@@@2@@std@@IEAAPEAV?$basic_string@_WU?$char_traits@_W@std@@V?$allocator@_W@2@@1@PEAV21@00@Z 000000018003d580 f i tile.obj
 0001:0003c5c0       ??$_Umove@PEAVTileRow@@@?$vector@VTileRow@@V?$allocator@VTileRow@@@std@@@std@@IEAAPEAVTileRow@@PEAV2@00@Z 000000018003d5c0 f i tile.obj
 0001:0003c600       ??$_Unchecked@V?$_Vector_val@U?$_Simple_types@M@std@@@std@@@std@@YAPEBMV?$_Vector_const_iterator@V?$_Vector_val@U?$_Simple_types@M@std@@@std@@@0@@Z 000000018003d600 f i tile.obj
 0001:0003c640       ??$_Uninitialized_copy@V?$_Vector_const_iterator@V?$_Vector_val@U?$_Simple_types@M@std@@@std@@@std@@PEAMV?$allocator@M@2@@std@@YAPEAMV?$_Vector_const_iterator@V?$_Vector_val@U?$_Simple_types@M@std@@@std@@@0@0PEAMAEAU?$_Wrap_alloc@V?$allocator@M@std@@@0@@Z 000000018003d640 f i tile.obj
 0001:0003c750       ??$_Uninitialized_move_al_unchecked1@MMV?$allocator@M@std@@@std@@YAPEAMPEAM00AEAU?$_Wrap_alloc@V?$allocator@M@std@@@0@U_Really_trivial_ptr_iterator_tag@0@U?$integral_constant@_N$00@0@@Z 000000018003d750 f i tile.obj
 0001:0003c750       ??$_Uninitialized_copy_al_unchecked1@$$CBMMV?$allocator@M@std@@@std@@YAPEAMPEBM0PEAMAEAU?$_Wrap_alloc@V?$allocator@M@std@@@0@U_Really_trivial_ptr_iterator_tag@0@U?$integral_constant@_N$00@0@@Z 000000018003d750 f i tile.obj
 0001:0003c790       ??$_Uninitialized_copy_al_unchecked@PEBMPEAMV?$allocator@M@std@@@std@@YAPEAMPEBM0PEAMAEAU?$_Wrap_alloc@V?$allocator@M@std@@@0@@Z 000000018003d790 f i tile.obj
 0001:0003c790       ??$_Uninitialized_move_al_unchecked@PEAMPEAMV?$allocator@M@std@@@std@@YAPEAMPEAM00AEAU?$_Wrap_alloc@V?$allocator@M@std@@@0@@Z 000000018003d790 f i tile.obj
 0001:0003c7f0       ??$_Uninitialized_move@PEAMPEAMV?$allocator@M@std@@@std@@YAPEAMPEAM00AEAU?$_Wrap_alloc@V?$allocator@M@std@@@0@@Z 000000018003d7f0 f i tile.obj
 0001:0003c870       ??$_Uninitialized_move@PEAV?$basic_string@_WU?$char_traits@_W@std@@V?$allocator@_W@2@@std@@PEAV12@V?$allocator@V?$basic_string@_WU?$char_traits@_W@std@@V?$allocator@_W@2@@std@@@2@@std@@YAPEAV?$basic_string@_WU?$char_traits@_W@std@@V?$allocator@_W@2@@0@PEAV10@00AEAU?$_Wrap_alloc@V?$allocator@V?$basic_string@_WU?$char_traits@_W@std@@V?$allocator@_W@2@@std@@@std@@@0@@Z 000000018003d870 f i tile.obj
 0001:0003c8f0       ??$_Uninitialized_move@PEAVTileRow@@PEAV1@V?$allocator@VTileRow@@@std@@@std@@YAPEAVTileRow@@PEAV1@00AEAU?$_Wrap_alloc@V?$allocator@VTileRow@@@std@@@0@@Z 000000018003d8f0 f i tile.obj
 0001:0003c970       ??$_Uninitialized_move_al_unchecked1@PEAV?$basic_string@_WU?$char_traits@_W@std@@V?$allocator@_W@2@@std@@PEAV12@V?$allocator@V?$basic_string@_WU?$char_traits@_W@std@@V?$allocator@_W@2@@std@@@2@@std@@YAPEAV?$basic_string@_WU?$char_traits@_W@std@@V?$allocator@_W@2@@0@PEAV10@00AEAU?$_Wrap_alloc@V?$allocator@V?$basic_string@_WU?$char_traits@_W@std@@V?$allocator@_W@2@@std@@@std@@@0@U_General_ptr_iterator_tag@0@U_Any_tag@0@@Z 000000018003d970 f i tile.obj
 0001:0003ca10       ??$_Uninitialized_move_al_unchecked1@PEAVTileRow@@PEAV1@V?$allocator@VTileRow@@@std@@@std@@YAPEAVTileRow@@PEAV1@00AEAU?$_Wrap_alloc@V?$allocator@VTileRow@@@std@@@0@U_General_ptr_iterator_tag@0@U_Any_tag@0@@Z 000000018003da10 f i tile.obj
 0001:0003cab0       ??$_Uninitialized_move_al_unchecked@PEAV?$basic_string@_WU?$char_traits@_W@std@@V?$allocator@_W@2@@std@@PEAV12@V?$allocator@V?$basic_string@_WU?$char_traits@_W@std@@V?$allocator@_W@2@@std@@@2@@std@@YAPEAV?$basic_string@_WU?$char_traits@_W@std@@V?$allocator@_W@2@@0@PEAV10@00AEAU?$_Wrap_alloc@V?$allocator@V?$basic_string@_WU?$char_traits@_W@std@@V?$allocator@_W@2@@std@@@std@@@0@@Z 000000018003dab0 f i tile.obj
 0001:0003cb30       ??$_Uninitialized_move_al_unchecked@PEAVTileRow@@PEAV1@V?$allocator@VTileRow@@@std@@@std@@YAPEAVTileRow@@PEAV1@00AEAU?$_Wrap_alloc@V?$allocator@VTileRow@@@std@@@0@@Z 000000018003db30 f i tile.obj
 0001:0003cbb0       ??$construct@MAEBM@?$_Wrap_alloc@V?$allocator@M@std@@@std@@QEAAXPEAMAEBM@Z 000000018003dbb0 f i tile.obj
 0001:0003cbb0       ??$construct@MM@?$_Wrap_alloc@V?$allocator@M@std@@@std@@QEAAXPEAM$$QEAM@Z 000000018003dbb0 f i tile.obj
 0001:0003cbb0       ??$construct@MAEAM@?$_Wrap_alloc@V?$allocator@M@std@@@std@@QEAAXPEAMAEAM@Z 000000018003dbb0 f i tile.obj
 0001:0003cbf0       ??$construct@MM@?$allocator@M@std@@QEAAXPEAM$$QEAM@Z 000000018003dbf0 f i tile.obj
 0001:0003cbf0       ??$construct@MAEBM@?$allocator@M@std@@QEAAXPEAMAEBM@Z 000000018003dbf0 f i tile.obj
 0001:0003cbf0       ??$construct@MAEAM@?$allocator@M@std@@QEAAXPEAMAEAM@Z 000000018003dbf0 f i tile.obj
 0001:0003cc50       ??$construct@MAEBM@?$allocator_traits@V?$allocator@M@std@@@std@@SAXAEAV?$allocator@M@1@PEAMAEBM@Z 000000018003dc50 f i tile.obj
 0001:0003cc50       ??$construct@MM@?$allocator_traits@V?$allocator@M@std@@@std@@SAXAEAV?$allocator@M@1@PEAM$$QEAM@Z 000000018003dc50 f i tile.obj
 0001:0003cc50       ??$construct@MAEAM@?$allocator_traits@V?$allocator@M@std@@@std@@SAXAEAV?$allocator@M@1@PEAMAEAM@Z 000000018003dc50 f i tile.obj
 0001:0003cc90       ??$construct@V?$basic_string@_WU?$char_traits@_W@std@@V?$allocator@_W@2@@std@@V12@@?$_Wrap_alloc@V?$allocator@V?$basic_string@_WU?$char_traits@_W@std@@V?$allocator@_W@2@@std@@@std@@@std@@QEAAXPEAV?$basic_string@_WU?$char_traits@_W@std@@V?$allocator@_W@2@@1@$$QEAV21@@Z 000000018003dc90 f i tile.obj
 0001:0003ccd0       ??$construct@V?$basic_string@_WU?$char_traits@_W@std@@V?$allocator@_W@2@@std@@V12@@?$allocator@V?$basic_string@_WU?$char_traits@_W@std@@V?$allocator@_W@2@@std@@@std@@QEAAXPEAV?$basic_string@_WU?$char_traits@_W@std@@V?$allocator@_W@2@@1@$$QEAV21@@Z 000000018003dcd0 f i tile.obj
 0001:0003cd30       ??$construct@V?$basic_string@_WU?$char_traits@_W@std@@V?$allocator@_W@2@@std@@V12@@?$allocator_traits@V?$allocator@V?$basic_string@_WU?$char_traits@_W@std@@V?$allocator@_W@2@@std@@@std@@@std@@SAXAEAV?$allocator@V?$basic_string@_WU?$char_traits@_W@std@@V?$allocator@_W@2@@std@@@1@PEAV?$basic_string@_WU?$char_traits@_W@std@@V?$allocator@_W@2@@1@$$QEAV31@@Z 000000018003dd30 f i tile.obj
 0001:0003cd70       ??$construct@VTileRow@@AEAV1@@?$_Wrap_alloc@V?$allocator@VTileRow@@@std@@@std@@QEAAXPEAVTileRow@@AEAV2@@Z 000000018003dd70 f i tile.obj
 0001:0003cdb0       ??$construct@VTileRow@@AEAV1@@?$allocator@VTileRow@@@std@@QEAAXPEAVTileRow@@AEAV2@@Z 000000018003ddb0 f i tile.obj
 0001:0003ce20       ??$construct@VTileRow@@AEAV1@@?$allocator_traits@V?$allocator@VTileRow@@@std@@@std@@SAXAEAV?$allocator@VTileRow@@@1@PEAVTileRow@@AEAV3@@Z 000000018003de20 f i tile.obj
 0001:0003ce60       ??$construct@VTileRow@@AEBV1@@?$_Wrap_alloc@V?$allocator@VTileRow@@@std@@@std@@QEAAXPEAVTileRow@@AEBV2@@Z 000000018003de60 f i tile.obj
 0001:0003cea0       ??$construct@VTileRow@@AEBV1@@?$allocator@VTileRow@@@std@@QEAAXPEAVTileRow@@AEBV2@@Z 000000018003dea0 f i tile.obj
 0001:0003cf10       ??$construct@VTileRow@@AEBV1@@?$allocator_traits@V?$allocator@VTileRow@@@std@@@std@@SAXAEAV?$allocator@VTileRow@@@1@PEAVTileRow@@AEBV3@@Z 000000018003df10 f i tile.obj
 0001:0003cf50       ??$construct@VTileRow@@V1@@?$_Wrap_alloc@V?$allocator@VTileRow@@@std@@@std@@QEAAXPEAVTileRow@@$$QEAV2@@Z 000000018003df50 f i tile.obj
 0001:0003cf90       ??$construct@VTileRow@@V1@@?$allocator@VTileRow@@@std@@QEAAXPEAVTileRow@@$$QEAV2@@Z 000000018003df90 f i tile.obj
 0001:0003cff0       ??$construct@VTileRow@@V1@@?$allocator_traits@V?$allocator@VTileRow@@@std@@@std@@SAXAEAV?$allocator@VTileRow@@@1@PEAVTileRow@@$$QEAV3@@Z 000000018003dff0 f i tile.obj
 0001:0003d030       ??$destroy@V?$basic_string@_WU?$char_traits@_W@std@@V?$allocator@_W@2@@std@@@?$_Wrap_alloc@V?$allocator@V?$basic_string@_WU?$char_traits@_W@std@@V?$allocator@_W@2@@std@@@std@@@std@@QEAAXPEAV?$basic_string@_WU?$char_traits@_W@std@@V?$allocator@_W@2@@1@@Z 000000018003e030 f i tile.obj
 0001:0003d060       ??$destroy@V?$basic_string@_WU?$char_traits@_W@std@@V?$allocator@_W@2@@std@@@?$allocator@V?$basic_string@_WU?$char_traits@_W@std@@V?$allocator@_W@2@@std@@@std@@QEAAXPEAV?$basic_string@_WU?$char_traits@_W@std@@V?$allocator@_W@2@@1@@Z 000000018003e060 f i tile.obj
 0001:0003d080       ??$destroy@V?$basic_string@_WU?$char_traits@_W@std@@V?$allocator@_W@2@@std@@@?$allocator_traits@V?$allocator@V?$basic_string@_WU?$char_traits@_W@std@@V?$allocator@_W@2@@std@@@std@@@std@@SAXAEAV?$allocator@V?$basic_string@_WU?$char_traits@_W@std@@V?$allocator@_W@2@@std@@@1@PEAV?$basic_string@_WU?$char_traits@_W@std@@V?$allocator@_W@2@@1@@Z 000000018003e080 f i tile.obj
 0001:0003d0b0       ??0?$_Iterator012@Urandom_access_iterator_tag@std@@M_JPEBMAEBMU_Iterator_base12@2@@std@@QEAA@AEBU01@@Z 000000018003e0b0 f i tile.obj
 0001:0003d0f0       ??0?$_Iterator012@Urandom_access_iterator_tag@std@@M_JPEBMAEBMU_Iterator_base12@2@@std@@QEAA@XZ 000000018003e0f0 f i tile.obj
 0001:0003d120       ??0?$_Vector_alloc@U?$_Vec_base_types@V?$basic_string@_WU?$char_traits@_W@std@@V?$allocator@_W@2@@std@@V?$allocator@V?$basic_string@_WU?$char_traits@_W@std@@V?$allocator@_W@2@@std@@@2@@std@@@std@@QEAA@XZ 000000018003e120 f i tile.obj
 0001:0003d160       ??0?$_Vector_const_iterator@V?$_Vector_val@U?$_Simple_types@M@std@@@std@@@std@@QEAA@AEBV01@@Z 000000018003e160 f i tile.obj
 0001:0003d1b0       ??0?$_Vector_const_iterator@V?$_Vector_val@U?$_Simple_types@M@std@@@std@@@std@@QEAA@PEAMPEBU_Container_base12@1@@Z 000000018003e1b0 f i tile.obj
 0001:0003d200       ??0?$_Vector_val@U?$_Simple_types@V?$basic_string@_WU?$char_traits@_W@std@@V?$allocator@_W@2@@std@@@std@@@std@@QEAA@XZ 000000018003e200 f i tile.obj
 0001:0003d250       ??0?$basic_string@_WU?$char_traits@_W@std@@V?$allocator@_W@2@@std@@QEAA@$$QEAV01@@Z 000000018003e250 f i tile.obj
 0001:0003d2c0       ??0?$basic_string@_WU?$char_traits@_W@std@@V?$allocator@_W@2@@std@@QEAA@AEBV01@@Z 000000018003e2c0 f i tile.obj
 0001:0003d340       ??0?$basic_string@_WU?$char_traits@_W@std@@V?$allocator@_W@2@@std@@QEAA@AEBV01@_K1AEBV?$allocator@_W@1@@Z 000000018003e340 f i tile.obj
 0001:0003d3b0       ??0?$basic_stringbuf@_WU?$char_traits@_W@std@@V?$allocator@_W@2@@std@@QEAA@AEBV?$basic_string@_WU?$char_traits@_W@std@@V?$allocator@_W@2@@1@H@Z 000000018003e3b0 f i tile.obj
 0001:0003d450       ??0?$basic_stringstream@_WU?$char_traits@_W@std@@V?$allocator@_W@2@@std@@QEAA@AEBV?$basic_string@_WU?$char_traits@_W@std@@V?$allocator@_W@2@@1@H@Z 000000018003e450 f i tile.obj
 0001:0003d550       ??0?$fpos@U_Mbstatet@@@std@@QEAA@_J@Z 000000018003e550 f i tile.obj
 0001:0003d5a0       ??0?$vector@MV?$allocator@M@std@@@std@@QEAA@$$QEAV01@@Z 000000018003e5a0 f i tile.obj
 0001:0003d610       ??0?$vector@MV?$allocator@M@std@@@std@@QEAA@AEBV01@@Z 000000018003e610 f i tile.obj
 0001:0003d740       ??0?$vector@V?$basic_string@_WU?$char_traits@_W@std@@V?$allocator@_W@2@@std@@V?$allocator@V?$basic_string@_WU?$char_traits@_W@std@@V?$allocator@_W@2@@std@@@2@@std@@QEAA@XZ 000000018003e740 f i tile.obj
 0001:0003d770       ??0TilePoint@@QEAA@$$QEAV0@@Z 000000018003e770 f i tile.obj
 0001:0003d7e0       ??0TilePoint@@QEAA@VPoint3@@M@Z 000000018003e7e0 f i tile.obj
 0001:0003d850       ??0TilePoint@@QEAA@XZ      000000018003e850 f i tile.obj
 0001:0003d8a0       ??0TileRow@@QEAA@$$QEAV0@@Z 000000018003e8a0 f i tile.obj
 0001:0003d910       ??0TileRow@@QEAA@AEBV0@@Z  000000018003e910 f i tile.obj
 0001:0003d980       ??0TileRow@@QEAA@M@Z       000000018003e980 f i tile.obj
 0001:0003d9d0       ??0_Iterator_base12@std@@QEAA@AEBU01@@Z 000000018003e9d0 f i tile.obj
 0001:0003da10       ??0_Container_proxy@std@@QEAA@XZ 000000018003ea10 f i BerconTile.obj
 0001:0003da10       ??0_Iterator_base12@std@@QEAA@XZ 000000018003ea10 f i tile.obj
 0001:0003da40       ??1?$_Compressed_pair@U?$_Wrap_alloc@V?$allocator@V?$basic_string@_WU?$char_traits@_W@std@@V?$allocator@_W@2@@std@@@std@@@std@@V?$_Vector_val@U?$_Simple_types@V?$basic_string@_WU?$char_traits@_W@std@@V?$allocator@_W@2@@std@@@std@@@2@$00@std@@QEAA@XZ 000000018003ea40 f i tile.obj
 0001:0003da70       ??1?$_Iterator012@Urandom_access_iterator_tag@std@@M_JPEBMAEBMU_Iterator_base12@2@@std@@QEAA@XZ 000000018003ea70 f i tile.obj
 0001:0003daa0       ??1?$_Vector_alloc@U?$_Vec_base_types@V?$basic_string@_WU?$char_traits@_W@std@@V?$allocator@_W@2@@std@@V?$allocator@V?$basic_string@_WU?$char_traits@_W@std@@V?$allocator@_W@2@@std@@@2@@std@@@std@@QEAA@XZ 000000018003eaa0 f i tile.obj
 0001:0003dad0       ??1?$_Vector_const_iterator@V?$_Vector_val@U?$_Simple_types@M@std@@@std@@@std@@QEAA@XZ 000000018003ead0 f i tile.obj
 0001:0003db00       ??1?$_Vector_val@U?$_Simple_types@V?$basic_string@_WU?$char_traits@_W@std@@V?$allocator@_W@2@@std@@@std@@@std@@QEAA@XZ 000000018003eb00 f i tile.obj
 0001:0003db30       ??1?$basic_stringbuf@_WU?$char_traits@_W@std@@V?$allocator@_W@2@@std@@UEAA@XZ 000000018003eb30 f i tile.obj
 0001:0003db70       ??1?$basic_stringstream@_WU?$char_traits@_W@std@@V?$allocator@_W@2@@std@@UEAA@XZ 000000018003eb70 f i tile.obj
 0001:0003dc10       ??1?$vector@V?$basic_string@_WU?$char_traits@_W@std@@V?$allocator@_W@2@@std@@V?$allocator@V?$basic_string@_WU?$char_traits@_W@std@@V?$allocator@_W@2@@std@@@2@@std@@QEAA@XZ 000000018003ec10 f i tile.obj
 0001:0003dc40       ??1_Iterator_base12@std@@QEAA@XZ 000000018003ec40 f i tile.obj
 0001:0003dca0       ??4_Iterator_base12@std@@QEAAAEAU01@AEBU01@@Z 000000018003eca0 f i tile.obj
 0001:0003dd40       ??A?$vector@V?$basic_string@_WU?$char_traits@_W@std@@V?$allocator@_W@2@@std@@V?$allocator@V?$basic_string@_WU?$char_traits@_W@std@@V?$allocator@_W@2@@std@@@2@@std@@QEAAAEAV?$basic_string@_WU?$char_traits@_W@std@@V?$allocator@_W@2@@1@_K@Z 000000018003ed40 f i tile.obj
 0001:0003de10       ??B?$fpos@U_Mbstatet@@@std@@QEBA_JXZ 000000018003ee10 f i tile.obj
 0001:0003de30       ??_D?$basic_stringstream@_WU?$char_traits@_W@std@@V?$allocator@_W@2@@std@@QEAAXXZ 000000018003ee30 f i tile.obj
 0001:0003de68       ??_E?$basic_stringstream@_WU?$char_traits@_W@std@@V?$allocator@_W@2@@std@@$4PPPPPPPM@A@EAAPEAXI@Z 000000018003ee68 f i tile.obj
 0001:0003de80       ??_G?$basic_string@_WU?$char_traits@_W@std@@V?$allocator@_W@2@@std@@QEAAPEAXI@Z 000000018003ee80 f i tile.obj
 0001:0003dec0       ??_E?$basic_stringbuf@_WU?$char_traits@_W@std@@V?$allocator@_W@2@@std@@UEAAPEAXI@Z 000000018003eec0 f i tile.obj
 0001:0003dec0       ??_G?$basic_stringbuf@_WU?$char_traits@_W@std@@V?$allocator@_W@2@@std@@UEAAPEAXI@Z 000000018003eec0 f i tile.obj
 0001:0003df00       ??_G?$basic_stringstream@_WU?$char_traits@_W@std@@V?$allocator@_W@2@@std@@UEAAPEAXI@Z 000000018003ef00 f i tile.obj
 0001:0003df00       ??_E?$basic_stringstream@_WU?$char_traits@_W@std@@V?$allocator@_W@2@@std@@UEAAPEAXI@Z 000000018003ef00 f i tile.obj
 0001:0003dfb0       ?_Adopt@_Iterator_base12@std@@QEAAXPEBU_Container_base12@2@@Z 000000018003efb0 f i tile.obj
 0001:0003e090       ?_Assign_rv@?$basic_string@_WU?$char_traits@_W@std@@V?$allocator@_W@2@@std@@QEAAX$$QEAV12@@Z 000000018003f090 f i tile.obj
 0001:0003e1b0       ?_Assign_rv@?$vector@MV?$allocator@M@std@@@std@@QEAAX$$QEAV12@U?$integral_constant@_N$00@2@@Z 000000018003f1b0 f i tile.obj
 0001:0003e280       ?_Buy@?$vector@MV?$allocator@M@std@@@std@@IEAA_N_K@Z 000000018003f280 f i tile.obj
 0001:0003e380       ?_Clrcont@_Iterator_base12@std@@QEAAXXZ 000000018003f380 f i tile.obj
 0001:0003e3a0       ?_Destroy@?$vector@V?$basic_string@_WU?$char_traits@_W@std@@V?$allocator@_W@2@@std@@V?$allocator@V?$basic_string@_WU?$char_traits@_W@std@@V?$allocator@_W@2@@std@@@2@@std@@IEAAXPEAV?$basic_string@_WU?$char_traits@_W@std@@V?$allocator@_W@2@@2@0@Z 000000018003f3a0 f i tile.obj
 0001:0003e3e0       ?_Free_proxy@?$_Vector_alloc@U?$_Vec_base_types@VTileRow@@V?$allocator@VTileRow@@@std@@@std@@@std@@QEAAXXZ 000000018003f3e0 f i BerconTile.obj
 0001:0003e3e0       ?_Free_proxy@?$_Vector_alloc@U?$_Vec_base_types@V?$basic_string@_WU?$char_traits@_W@std@@V?$allocator@_W@2@@std@@V?$allocator@V?$basic_string@_WU?$char_traits@_W@std@@V?$allocator@_W@2@@std@@@2@@std@@@std@@QEAAXXZ 000000018003f3e0 f i tile.obj
 0001:0003e3e0       ?_Free_proxy@?$_String_alloc@U?$_String_base_types@_WV?$allocator@_W@std@@@std@@@std@@QEAAXXZ 000000018003f3e0 f i BerconTile.obj
 0001:0003e3e0       ?_Free_proxy@?$_Vector_alloc@U?$_Vec_base_types@MV?$allocator@M@std@@@std@@@std@@QEAAXXZ 000000018003f3e0 f i BerconTile.obj
 0001:0003e480       ?_Getpfirst@?$_Vector_alloc@U?$_Vec_base_types@MV?$allocator@M@std@@@std@@@std@@QEBAPEAPEAU_Iterator_base12@2@XZ 000000018003f480 f i tile.obj
 0001:0003e480       ?_Getpfirst@?$_Vector_alloc@U?$_Vec_base_types@VTileRow@@V?$allocator@VTileRow@@@std@@@std@@@std@@QEBAPEAPEAU_Iterator_base12@2@XZ 000000018003f480 f i tile.obj
 0001:0003e480       ?_Getpfirst@?$_Vector_alloc@U?$_Vec_base_types@V?$basic_string@_WU?$char_traits@_W@std@@V?$allocator@_W@2@@std@@V?$allocator@V?$basic_string@_WU?$char_traits@_W@std@@V?$allocator@_W@2@@std@@@2@@std@@@std@@QEBAPEAPEAU_Iterator_base12@2@XZ 000000018003f480 f i tile.obj
 0001:0003e4a0       ?_Getpfirst@_Container_base12@std@@QEBAPEAPEAU_Iterator_base12@2@XZ 000000018003f4a0 f i tile.obj
 0001:0003e4e0       ?_Getpnext@_Iterator_base12@std@@QEAAPEAPEAU12@XZ 000000018003f4e0 f i tile.obj
 0001:0003e4f0       ?_Getstate@?$basic_stringbuf@_WU?$char_traits@_W@std@@V?$allocator@_W@2@@std@@AEAAHH@Z 000000018003f4f0 f i tile.obj
 0001:0003e560       ?_Grow_to@?$vector@MV?$allocator@M@std@@@std@@IEBA_K_K@Z 000000018003f560 f i tile.obj
 0001:0003e610       ?_Grow_to@?$vector@VTileRow@@V?$allocator@VTileRow@@@std@@@std@@IEBA_K_K@Z 000000018003f610 f i tile.obj
 0001:0003e610       ?_Grow_to@?$vector@V?$basic_string@_WU?$char_traits@_W@std@@V?$allocator@_W@2@@std@@V?$allocator@V?$basic_string@_WU?$char_traits@_W@std@@V?$allocator@_W@2@@std@@@2@@std@@IEBA_K_K@Z 000000018003f610 f i tile.obj
 0001:0003e6c0       ?_Init@?$basic_stringbuf@_WU?$char_traits@_W@std@@V?$allocator@_W@2@@std@@IEAAXPEB_W_KH@Z 000000018003f6c0 f i tile.obj
 0001:0003e830       ?_Inside@?$vector@V?$basic_string@_WU?$char_traits@_W@std@@V?$allocator@_W@2@@std@@V?$allocator@V?$basic_string@_WU?$char_traits@_W@std@@V?$allocator@_W@2@@std@@@2@@std@@IEBA_NPEBV?$basic_string@_WU?$char_traits@_W@std@@V?$allocator@_W@2@@2@@Z 000000018003f830 f i tile.obj
 0001:0003e830       ?_Inside@?$vector@VTileRow@@V?$allocator@VTileRow@@@std@@@std@@IEBA_NPEBVTileRow@@@Z 000000018003f830 f i tile.obj
 0001:0003e830       ?_Inside@?$vector@MV?$allocator@M@std@@@std@@IEBA_NPEBM@Z 000000018003f830 f i tile.obj
 0001:0003e890       ?_Orphan_me@_Iterator_base12@std@@QEAAXXZ 000000018003f890 f i tile.obj
 0001:0003e930       ?_Orphan_range@?$vector@MV?$allocator@M@std@@@std@@IEBAXPEAM0@Z 000000018003f930 f i tile.obj
 0001:0003ea10       ?_Orphan_range@?$vector@V?$basic_string@_WU?$char_traits@_W@std@@V?$allocator@_W@2@@std@@V?$allocator@V?$basic_string@_WU?$char_traits@_W@std@@V?$allocator@_W@2@@std@@@2@@std@@IEBAXPEAV?$basic_string@_WU?$char_traits@_W@std@@V?$allocator@_W@2@@2@0@Z 000000018003fa10 f i tile.obj
 0001:0003eaf0       ?_Orphan_range@?$vector@VTileRow@@V?$allocator@VTileRow@@@std@@@std@@IEBAXPEAVTileRow@@0@Z 000000018003faf0 f i tile.obj
 0001:0003ebd0       ?_Reallocate@?$vector@MV?$allocator@M@std@@@std@@IEAAX_K@Z 000000018003fbd0 f i tile.obj
 0001:0003eda0       ?_Reallocate@?$vector@V?$basic_string@_WU?$char_traits@_W@std@@V?$allocator@_W@2@@std@@V?$allocator@V?$basic_string@_WU?$char_traits@_W@std@@V?$allocator@_W@2@@std@@@2@@std@@IEAAX_K@Z 000000018003fda0 f i tile.obj
 0001:0003ef70       ?_Reallocate@?$vector@VTileRow@@V?$allocator@VTileRow@@@std@@@std@@IEAAX_K@Z 000000018003ff70 f i tile.obj
 0001:0003f140       ?_Reserve@?$vector@MV?$allocator@M@std@@@std@@IEAAX_K@Z 0000000180040140 f i tile.obj
 0001:0003f1d0       ?_Reserve@?$vector@V?$basic_string@_WU?$char_traits@_W@std@@V?$allocator@_W@2@@std@@V?$allocator@V?$basic_string@_WU?$char_traits@_W@std@@V?$allocator@_W@2@@std@@@2@@std@@IEAAX_K@Z 00000001800401d0 f i tile.obj
 0001:0003f260       ?_Reserve@?$vector@VTileRow@@V?$allocator@VTileRow@@@std@@@std@@IEAAX_K@Z 0000000180040260 f i tile.obj
 0001:0003f2f0       ?_Swap_all@?$_Vector_alloc@U?$_Vec_base_types@MV?$allocator@M@std@@@std@@@std@@QEAAXAEAV12@@Z 00000001800402f0 f i tile.obj
 0001:0003f330       ?_Swap_all@_Container_base12@std@@QEAAXAEAU12@@Z 0000000180040330 f i tile.obj
 0001:0003f3f0       ?_Tidy@?$basic_stringbuf@_WU?$char_traits@_W@std@@V?$allocator@_W@2@@std@@IEAAXXZ 00000001800403f0 f i tile.obj
 0001:0003f4d0       ?_Tidy@?$vector@V?$basic_string@_WU?$char_traits@_W@std@@V?$allocator@_W@2@@std@@V?$allocator@V?$basic_string@_WU?$char_traits@_W@std@@V?$allocator@_W@2@@std@@@2@@std@@IEAAXXZ 00000001800404d0 f i tile.obj
 0001:0003f5d0       ?_Unchecked@?$_Vector_const_iterator@V?$_Vector_val@U?$_Simple_types@M@std@@@std@@@std@@QEBAPEBMXZ 00000001800405d0 f i tile.obj
 0001:0003f5e0       ?_Unused_capacity@?$vector@MV?$allocator@M@std@@@std@@QEBA_KXZ 00000001800405e0 f i tile.obj
 0001:0003f620       ?_Unused_capacity@?$vector@V?$basic_string@_WU?$char_traits@_W@std@@V?$allocator@_W@2@@std@@V?$allocator@V?$basic_string@_WU?$char_traits@_W@std@@V?$allocator@_W@2@@std@@@2@@std@@QEBA_KXZ 0000000180040620 f i tile.obj
 0001:0003f620       ?_Unused_capacity@?$vector@VTileRow@@V?$allocator@VTileRow@@@std@@@std@@QEBA_KXZ 0000000180040620 f i tile.obj
 0001:0003f670       ?_Xlen@?$vector@VTileRow@@V?$allocator@VTileRow@@@std@@@std@@IEBAXXZ 0000000180040670 f i tile.obj
 0001:0003f670       ?_Xlen@?$vector@MV?$allocator@M@std@@@std@@IEBAXXZ 0000000180040670 f i tile.obj
 0001:0003f670       ?_Xlen@?$vector@V?$basic_string@_WU?$char_traits@_W@std@@V?$allocator@_W@2@@std@@V?$allocator@V?$basic_string@_WU?$char_traits@_W@std@@V?$allocator@_W@2@@std@@@2@@std@@IEBAXXZ 0000000180040670 f i tile.obj
 0001:0003f690       ?allocate@?$_Wrap_alloc@V?$allocator@M@std@@@std@@QEAAPEAM_K@Z 0000000180040690 f i tile.obj
 0001:0003f6c0       ?allocate@?$_Wrap_alloc@V?$allocator@V?$basic_string@_WU?$char_traits@_W@std@@V?$allocator@_W@2@@std@@@std@@@std@@QEAAPEAV?$basic_string@_WU?$char_traits@_W@std@@V?$allocator@_W@2@@2@_K@Z 00000001800406c0 f i tile.obj
 0001:0003f6c0       ?allocate@?$_Wrap_alloc@V?$allocator@VTileRow@@@std@@@std@@QEAAPEAVTileRow@@_K@Z 00000001800406c0 f i tile.obj
 0001:0003f6f0       ?allocate@?$allocator@M@std@@QEAAPEAM_K@Z 00000001800406f0 f i tile.obj
 0001:0003f720       ?allocate@?$allocator@VTileRow@@@std@@QEAAPEAVTileRow@@_K@Z 0000000180040720 f i tile.obj
 0001:0003f720       ?allocate@?$allocator@V?$basic_string@_WU?$char_traits@_W@std@@V?$allocator@_W@2@@std@@@std@@QEAAPEAV?$basic_string@_WU?$char_traits@_W@std@@V?$allocator@_W@2@@2@_K@Z 0000000180040720 f i tile.obj
 0001:0003f750       ?begin@?$vector@MV?$allocator@M@std@@@std@@QEBA?AV?$_Vector_const_iterator@V?$_Vector_val@U?$_Simple_types@M@std@@@std@@@2@XZ 0000000180040750 f i tile.obj
 0001:0003f7c0       ?c_str@?$basic_string@_WU?$char_traits@_W@std@@V?$allocator@_W@2@@std@@QEBAPEB_WXZ 00000001800407c0 f i tile.obj
 0001:0003f7f0       ?capacity@?$vector@MV?$allocator@M@std@@@std@@QEBA_KXZ 00000001800407f0 f i tile.obj
 0001:0003f830       ?capacity@?$vector@V?$basic_string@_WU?$char_traits@_W@std@@V?$allocator@_W@2@@std@@V?$allocator@V?$basic_string@_WU?$char_traits@_W@std@@V?$allocator@_W@2@@std@@@2@@std@@QEBA_KXZ 0000000180040830 f i tile.obj
 0001:0003f830       ?capacity@?$vector@VTileRow@@V?$allocator@VTileRow@@@std@@@std@@QEBA_KXZ 0000000180040830 f i tile.obj
 0001:0003f880       ?clear@?$vector@MV?$allocator@M@std@@@std@@QEAAXXZ 0000000180040880 f i tile.obj
 0001:0003f900       ?clear@?$vector@VTileRow@@V?$allocator@VTileRow@@@std@@@std@@QEAAXXZ 0000000180040900 f i tile.obj
 0001:0003f980       ?corner@Tile@@CA?AVTilePoint@@MMMMAEAVTileParam@@@Z 0000000180040980 f   tile.obj
 0001:0003ffd0       ?deallocate@?$_Wrap_alloc@V?$allocator@V?$basic_string@_WU?$char_traits@_W@std@@V?$allocator@_W@2@@std@@@std@@@std@@QEAAXPEAV?$basic_string@_WU?$char_traits@_W@std@@V?$allocator@_W@2@@2@_K@Z 0000000180040fd0 f i tile.obj
 0001:0003ffd0       ?deallocate@?$_Wrap_alloc@V?$allocator@VTileRow@@@std@@@std@@QEAAXPEAVTileRow@@_K@Z 0000000180040fd0 f i BerconTile.obj
 0001:00040000       ?deallocate@?$allocator@V?$basic_string@_WU?$char_traits@_W@std@@V?$allocator@_W@2@@std@@@std@@QEAAXPEAV?$basic_string@_WU?$char_traits@_W@std@@V?$allocator@_W@2@@2@_K@Z 0000000180041000 f i tile.obj
 0001:00040000       ?deallocate@?$allocator@VTileRow@@@std@@QEAAXPEAVTileRow@@_K@Z 0000000180041000 f i BerconTile.obj
 0001:00040030       ?draw@Tile@@SA?AVTilePoint@@VPoint3@@AEAVTileParam@@@Z 0000000180041030 f   tile.obj
 0001:000400c0       ?drawTile@Tile@@CA?AVTilePoint@@VPoint3@@QEAMAEAVTileParam@@HH@Z 00000001800410c0 f   tile.obj
 0001:00040c60       ?edgeBlur@Tile@@CAMMMH@Z   0000000180041c60 f   tile.obj
 0001:00040d10       ?end@?$vector@MV?$allocator@M@std@@@std@@QEBA?AV?$_Vector_const_iterator@V?$_Vector_val@U?$_Simple_types@M@std@@@std@@@2@XZ 0000000180041d10 f i tile.obj
 0001:00040d80       ?eof@?$char_traits@_W@std@@SAGXZ 0000000180041d80 f i tile.obj
 0001:00040d90       ?eq_int_type@?$char_traits@_W@std@@SA_NAEBG0@Z 0000000180041d90 f i tile.obj
 0001:00040d90       ?eq@?$char_traits@_W@std@@SA_NAEB_W0@Z 0000000180041d90 f i tile.obj
 0001:00040dd0       ?find@?$char_traits@_W@std@@SAPEB_WPEB_W_KAEB_W@Z 0000000180041dd0 f i tile.obj
 0001:00040e20       ?find_first_not_of@?$basic_string@_WU?$char_traits@_W@std@@V?$allocator@_W@2@@std@@QEBA_KAEBV12@_K@Z 0000000180041e20 f i tile.obj
 0001:00040e80       ?find_first_not_of@?$basic_string@_WU?$char_traits@_W@std@@V?$allocator@_W@2@@std@@QEBA_KPEB_W_K1@Z 0000000180041e80 f i tile.obj
 0001:00040f80       ?find_first_of@?$basic_string@_WU?$char_traits@_W@std@@V?$allocator@_W@2@@std@@QEBA_KAEBV12@_K@Z 0000000180041f80 f i tile.obj
 0001:00040fe0       ?find_first_of@?$basic_string@_WU?$char_traits@_W@std@@V?$allocator@_W@2@@std@@QEBA_KPEB_W_K1@Z 0000000180041fe0 f i tile.obj
 0001:000410f0       ?fmod@@YAMMM@Z             00000001800420f0 f i tile.obj
 0001:00041250       ?get_allocator@?$basic_string@_WU?$char_traits@_W@std@@V?$allocator@_W@2@@std@@QEBA?AV?$allocator@_W@2@XZ 0000000180042250 f i tile.obj
 0001:000412b0       ?max_size@?$_Wrap_alloc@V?$allocator@M@std@@@std@@QEBA_KU_Nil@2@@Z 00000001800422b0 f i tile.obj
 0001:000412d0       ?max_size@?$_Wrap_alloc@V?$allocator@V?$basic_string@_WU?$char_traits@_W@std@@V?$allocator@_W@2@@std@@@std@@@std@@QEBA_KU_Nil@2@@Z 00000001800422d0 f i tile.obj
 0001:000412d0       ?max_size@?$_Wrap_alloc@V?$allocator@VTileRow@@@std@@@std@@QEBA_KU_Nil@2@@Z 00000001800422d0 f i tile.obj
 0001:000412f0       ?max_size@?$allocator@M@std@@QEBA_KXZ 00000001800422f0 f i tile.obj
 0001:00041300       ?max_size@?$allocator@VTileRow@@@std@@QEBA_KXZ 0000000180042300 f i tile.obj
 0001:00041300       ?max_size@?$allocator@V?$basic_string@_WU?$char_traits@_W@std@@V?$allocator@_W@2@@std@@@std@@QEBA_KXZ 0000000180042300 f i tile.obj
 0001:00041310       ?max_size@?$allocator_traits@V?$allocator@M@std@@@std@@SA_KAEBV?$allocator@M@2@@Z 0000000180042310 f i tile.obj
 0001:00041330       ?max_size@?$allocator_traits@V?$allocator@VTileRow@@@std@@@std@@SA_KAEBV?$allocator@VTileRow@@@2@@Z 0000000180042330 f i tile.obj
 0001:00041330       ?max_size@?$allocator_traits@V?$allocator@V?$basic_string@_WU?$char_traits@_W@std@@V?$allocator@_W@2@@std@@@std@@@std@@SA_KAEBV?$allocator@V?$basic_string@_WU?$char_traits@_W@std@@V?$allocator@_W@2@@std@@@2@@Z 0000000180042330 f i tile.obj
 0001:00041350       ?max_size@?$vector@MV?$allocator@M@std@@@std@@QEBA_KXZ 0000000180042350 f i tile.obj
 0001:00041380       ?max_size@?$vector@V?$basic_string@_WU?$char_traits@_W@std@@V?$allocator@_W@2@@std@@V?$allocator@V?$basic_string@_WU?$char_traits@_W@std@@V?$allocator@_W@2@@std@@@2@@std@@QEBA_KXZ 0000000180042380 f i tile.obj
 0001:00041380       ?max_size@?$vector@VTileRow@@V?$allocator@VTileRow@@@std@@@std@@QEBA_KXZ 0000000180042380 f i tile.obj
 0001:000413f0       ?not_eof@?$char_traits@_W@std@@SAGAEBG@Z 00000001800423f0 f i tile.obj
 0001:00041530       ?overflow@?$basic_stringbuf@_WU?$char_traits@_W@std@@V?$allocator@_W@2@@std@@MEAAGG@Z 0000000180042530 f i tile.obj
 0001:00041e30       ?pat_herring@Tile@@CA?AVTilePoint@@VPoint3@@AEAVTileParam@@@Z 0000000180042e30 f   tile.obj
 0001:00042260       ?pat_xBond@Tile@@CA?AVTilePoint@@VPoint3@@AEAVTileParam@@@Z 0000000180043260 f   tile.obj
 0001:00042620       ?pbackfail@?$basic_stringbuf@_WU?$char_traits@_W@std@@V?$allocator@_W@2@@std@@MEAAGG@Z 0000000180043620 f i tile.obj
 0001:00042740       ?push_back@?$vector@MV?$allocator@M@std@@@std@@QEAAX$$QEAM@Z 0000000180043740 f i tile.obj
 0001:000429b0       ?push_back@?$vector@MV?$allocator@M@std@@@std@@QEAAXAEBM@Z 00000001800439b0 f i tile.obj
 0001:00042c10       ?push_back@?$vector@V?$basic_string@_WU?$char_traits@_W@std@@V?$allocator@_W@2@@std@@V?$allocator@V?$basic_string@_WU?$char_traits@_W@std@@V?$allocator@_W@2@@std@@@2@@std@@QEAAX$$QEAV?$basic_string@_WU?$char_traits@_W@std@@V?$allocator@_W@2@@2@@Z 0000000180043c10 f i tile.obj
 0001:00042e90       ?push_back@?$vector@VTileRow@@V?$allocator@VTileRow@@@std@@@std@@QEAAXAEBVTileRow@@@Z 0000000180043e90 f i tile.obj
 0001:00043190       ?rotatePoint2@Tile@@CAXAEAVPoint3@@M@Z 0000000180044190 f   tile.obj
 0001:000437b0       ?seekoff@?$basic_stringbuf@_WU?$char_traits@_W@std@@V?$allocator@_W@2@@std@@MEAA?AV?$fpos@U_Mbstatet@@@2@_JHH@Z 00000001800447b0 f i tile.obj
 0001:00043b10       ?seekpos@?$basic_stringbuf@_WU?$char_traits@_W@std@@V?$allocator@_W@2@@std@@MEAA?AV?$fpos@U_Mbstatet@@@2@V32@H@Z 0000000180044b10 f i tile.obj
 0001:00043d60       ?select_on_container_copy_construction@?$_Wrap_alloc@V?$allocator@M@std@@@std@@QEBA?AU12@U_Nil@2@@Z 0000000180044d60 f i tile.obj
 0001:00043d60       ?select_on_container_copy_construction@?$_Wrap_alloc@V?$allocator@_W@std@@@std@@QEBA?AU12@U_Nil@2@@Z 0000000180044d60 f i tile.obj
 0001:00043da0       ?select_on_container_copy_construction@?$allocator_traits@V?$allocator@M@std@@@std@@SA?AV?$allocator@M@2@AEBV32@@Z 0000000180044da0 f i tile.obj
 0001:00043da0       ?select_on_container_copy_construction@?$allocator_traits@V?$allocator@_W@std@@@std@@SA?AV?$allocator@_W@2@AEBV32@@Z 0000000180044da0 f i tile.obj
 0001:00043dd0       ?setPattern@TilePattern@@QEAAXV?$basic_string@_WU?$char_traits@_W@std@@V?$allocator@_W@2@@std@@@Z 0000000180044dd0 f   tile.obj
 0001:00043e50       ?setPreset@TilePattern@@QEAAXH@Z 0000000180044e50 f   tile.obj
 0001:000441e0       ?size@?$basic_string@_WU?$char_traits@_W@std@@V?$allocator@_W@2@@std@@QEBA_KXZ 00000001800451e0 f i tile.obj
 0001:00044200       ?size@?$vector@V?$basic_string@_WU?$char_traits@_W@std@@V?$allocator@_W@2@@std@@V?$allocator@V?$basic_string@_WU?$char_traits@_W@std@@V?$allocator@_W@2@@std@@@2@@std@@QEBA_KXZ 0000000180045200 f i tile.obj
 0001:00044200       ?size@?$vector@VTileRow@@V?$allocator@VTileRow@@@std@@@std@@QEBA_KXZ 0000000180045200 f i BerconTile.obj
 0001:00044250       ?substr@?$basic_string@_WU?$char_traits@_W@std@@V?$allocator@_W@2@@std@@QEBA?AV12@_K0@Z 0000000180045250 f i tile.obj
 0001:000442c0       ?to_char_type@?$char_traits@_W@std@@SA_WAEBG@Z 00000001800452c0 f i tile.obj
 0001:000442c0       ?to_int_type@?$char_traits@_W@std@@SAGAEB_W@Z 00000001800452c0 f i tile.obj
 0001:000443f0       ?underflow@?$basic_stringbuf@_WU?$char_traits@_W@std@@V?$allocator@_W@2@@std@@MEAAGXZ 00000001800453f0 f i tile.obj
 0001:00044540       ?uvMapping@Tile@@CAXAEAVTilePoint@@VPoint3@@QEAMAEAVTileParam@@H@Z 0000000180045540 f   tile.obj
 0001:00044c00       wmemchr                    0000000180045c00 f i tile.obj
 0001:00044c60       ?add@Worley@@CAXJJJQEANHPEANH@Z 0000000180045c60 f   worley.obj
 0001:000452d0       ?noise@Worley@@SAXQEANHPEANH@Z 00000001800462d0 f   worley.obj
 0001:000465b0       ?smooth@@YAMM@Z            00000001800475b0 f   commonMath.obj
 0001:000465f0       ?smooth@@YAMMMM@Z          00000001800475f0 f   commonMath.obj
 0001:00046680       ?AddInterface@ClassDesc@@UEAAXPEAVFPInterface@@@Z 0000000180047680 f   core:core.dll
 0001:00046686       ?AutoDelete@ReferenceTarget@@UEAA?AW4RefResult@@XZ 0000000180047686 f   core:core.dll
 0001:0004668c       ?BaseClone@MtlBase@@UEAAXPEAVReferenceTarget@@0AEAVRemapDir@@@Z 000000018004768c f   core:core.dll
 0001:00046692       ?CreatePStamp@MtlBase@@UEAAPEAVPStamp@@HH@Z 0000000180047692 f   core:core.dll
 0001:00046698       ?DeleteAllRefsToMe@ReferenceTarget@@UEAA?AW4RefResult@@XZ 0000000180047698 f   core:core.dll
 0001:0004669e       ?DiffuseIllum@ShadeContext@@UEAA?AVColor@@XZ 000000018004769e f   core:core.dll
 0001:000466a4       ?DiscardPStamp@MtlBase@@UEAAXH@Z 00000001800476a4 f   core:core.dll
 0001:000466aa       ?DoEnumDependentsImpl@ReferenceTarget@@MEAAHPEAVDependentEnumProc@@@Z 00000001800476aa f   core:core.dll
 0001:000466b0       ?EnumAuxFiles@MtlBase@@UEAAXAEAVAssetEnumCallback@@K@Z 00000001800476b0 f   core:core.dll
 0001:000466b6       ?EvalEnvironMap@ShadeContext@@UEAA?AVAColor@@PEAVTexmap@@VPoint3@@@Z 00000001800476b6 f   core:core.dll
 0001:000466bc       ?GetFullName@MtlBase@@UEAA?AVWStr@@XZ 00000001800476bc f   core:core.dll
 0001:000466c2       ?GetInterface@ClassDesc@@UEAAPEAVFPInterface@@PEB_W@Z 00000001800476c2 f   core:core.dll
 0001:000466c8       ?GetInterface@ClassDesc@@UEAAPEAVFPInterface@@VInterface_ID@@@Z 00000001800476c8 f   core:core.dll
 0001:000466ce       ?GetInterface@MtlBase@@UEAAPEAXK@Z 00000001800476ce f   core:core.dll
 0001:000466d4       ?GetPStamp@MtlBase@@UEAAPEAVPStamp@@H@Z 00000001800476d4 f   core:core.dll
 0001:000466da       ?GetProperty@MtlBase@@UEAAPEAXK@Z 00000001800476da f   core:core.dll
 0001:000466e0       ?GetRsrcString@ClassDesc@@UEAAPEB_W_J@Z 00000001800476e0 f   core:core.dll
 0001:000466e6       ?GetTimeRange@Animatable@@UEAA?AVInterval@@K@Z 00000001800476e6 f   core:core.dll
 0001:000466ec       ?GetVPDisplayDIB@Texmap@@UEAAPEAUtagBITMAPINFO@@HAEAVTexHandleMaker@@AEAVInterval@@HHH@Z 00000001800476ec f   core:core.dll
 0001:000466f2       ?IsAnimated@Animatable@@UEAAHXZ 00000001800476f2 f   core:core.dll
 0001:000466f8       ?IsOutputMeaningful@Texmap@@UEAA_NAEAVShadeContext@@@Z 00000001800476f8 f   core:core.dll
 0001:000466fe       ?Load@MtlBase@@UEAA?AW4IOResult@@PEAVILoad@@@Z 00000001800476fe f   core:core.dll
 0001:00046704       ?MapKeys@Animatable@@UEAAXPEAVTimeMap@@K@Z 0000000180047704 f   core:core.dll
 0001:0004670a       ?MouseCycleCompleted@Animatable@@UEAAXH@Z 000000018004770a f   core:core.dll
 0001:00046710       ?MouseCycleStarted@Animatable@@UEAAXH@Z 0000000180047710 f   core:core.dll
 0001:00046716       ?NodeName@Animatable@@UEAA?AVWStr@@XZ 0000000180047716 f   core:core.dll
 0001:0004671c       ?NotifyDependents@ReferenceTarget@@UEAA?AW4RefResult@@AEBVInterval@@_KIKHPEAV1@W4NotifyDependentsOption@@@Z 000000018004771c f   core:core.dll
 0001:00046722       ?RefAdded@Texmap@@UEAAXPEAVReferenceMaker@@@Z 0000000180047722 f   core:core.dll
 0001:00046728       ?ReleaseInterface@Animatable@@UEAAXKPEAX@Z 0000000180047728 f   core:core.dll
 0001:0004672e       ?RenderBitmap@Texmap@@UEAAXHPEAVBitmap@@MH@Z 000000018004772e f   core:core.dll
 0001:00046734       ?Requirements@MtlBase@@UEAAKH@Z 0000000180047734 f   core:core.dll
 0001:0004673a       ?RescaleWorldUnits@ReferenceMaker@@UEAAXM@Z 000000018004773a f   core:core.dll
 0001:00046740       ?Save@MtlBase@@UEAA?AW4IOResult@@PEAVISave@@@Z 0000000180047740 f   core:core.dll
 0001:00046746       ?SaveEnum@ReferenceMaker@@UEAAXAEAVSaveEnumProc@@H@Z 0000000180047746 f   core:core.dll
 0001:0004674c       ?SetProperty@MtlBase@@UEAAHKPEAX@Z 000000018004774c f   core:core.dll
 0001:00046752       ?SpecifySaveReferences@ReferenceMaker@@UEAA_NAEAVReferenceSaveManager@@@Z 0000000180047752 f   core:core.dll
 0001:00046758       ?SubAnimCommitSetKeyBuffer@Animatable@@UEAAXHH@Z 0000000180047758 f   core:core.dll
 0001:0004675e       ?SubAnimRevertSetKeyBuffer@Animatable@@UEAAXH@Z 000000018004775e f   core:core.dll
 0001:00046764       ?SubAnimSetKeyBufferPresent@Animatable@@UEAAHH@Z 0000000180047764 f   core:core.dll
 0001:0004676a       ?SvCanConcludeLink@Animatable@@UEAA_NPEAVIGraphObjectManager@@PEAVIGraphNode@@1@Z 000000018004776a f   core:core.dll
 0001:00046770       ?SvCanDetach@Animatable@@UEAA_NPEAVIGraphObjectManager@@PEAVIGraphNode@@@Z 0000000180047770 f   core:core.dll
 0001:00046776       ?SvCanDetachRel@Animatable@@UEAA_NPEAVIGraphObjectManager@@PEAVIGraphNode@@H1@Z 0000000180047776 f   core:core.dll
 0001:0004677c       ?SvCanInitiateLink@Animatable@@UEAA_NPEAVIGraphObjectManager@@PEAVIGraphNode@@@Z 000000018004777c f   core:core.dll
 0001:00046782       ?SvCanRemoveThis@Animatable@@UEAA_NPEAVIGraphObjectManager@@PEAVIGraphNode@@@Z 0000000180047782 f   core:core.dll
 0001:00046788       ?SvCanSelect@MtlBase@@UEAA_NPEAVIGraphObjectManager@@PEAVIGraphNode@@@Z 0000000180047788 f   core:core.dll
 0001:0004678e       ?SvCanSetName@MtlBase@@UEAA_NPEAVIGraphObjectManager@@PEAVIGraphNode@@@Z 000000018004778e f   core:core.dll
 0001:00046794       ?SvDetach@Animatable@@UEAA_NPEAVIGraphObjectManager@@PEAVIGraphNode@@@Z 0000000180047794 f   core:core.dll
 0001:0004679a       ?SvDetachRel@Animatable@@UEAA_NPEAVIGraphObjectManager@@PEAVIGraphNode@@H1@Z 000000018004779a f   core:core.dll
 0001:000467a0       ?SvEditProperties@Animatable@@UEAA_NPEAVIGraphObjectManager@@PEAVIGraphNode@@@Z 00000001800477a0 f   core:core.dll
 0001:000467a6       ?SvGetMultiSelectCallback@MtlBase@@UEAAPEAVMultiSelectCallback@@PEAVIGraphObjectManager@@PEAVIGraphNode@@@Z 00000001800477a6 f   core:core.dll
 0001:000467ac       ?SvGetName@MtlBase@@UEAA?AVWStr@@PEAVIGraphObjectManager@@PEAVIGraphNode@@_N@Z 00000001800477ac f   core:core.dll
 0001:000467b2       ?SvGetRefTip@Animatable@@UEAA?AVWStr@@PEAVIGraphObjectManager@@PEAVIGraphNode@@1@Z 00000001800477b2 f   core:core.dll
 0001:000467b8       ?SvGetRelTip@Animatable@@UEAA?AVWStr@@PEAVIGraphObjectManager@@PEAVIGraphNode@@H1@Z 00000001800477b8 f   core:core.dll
 0001:000467be       ?SvGetSwatchColor@Animatable@@UEAAKPEAVIGraphObjectManager@@PEAVIGraphNode@@@Z 00000001800477be f   core:core.dll
 0001:000467c4       ?SvGetTip@Animatable@@UEAA?AVWStr@@PEAVIGraphObjectManager@@PEAVIGraphNode@@@Z 00000001800477c4 f   core:core.dll
 0001:000467ca       ?SvHandleDoubleClick@MtlBase@@UEAA_NPEAVIGraphObjectManager@@PEAVIGraphNode@@@Z 00000001800477ca f   core:core.dll
 0001:000467d0       ?SvHandleRelDoubleClick@Animatable@@UEAA_NPEAVIGraphObjectManager@@PEAVIGraphNode@@H1@Z 00000001800477d0 f   core:core.dll
 0001:000467d6       ?SvHighlightColor@MtlBase@@UEAAKPEAVIGraphObjectManager@@PEAVIGraphNode@@@Z 00000001800477d6 f   core:core.dll
 0001:000467dc       ?SvIsHighlighted@Animatable@@UEAA_NPEAVIGraphObjectManager@@PEAVIGraphNode@@@Z 00000001800477dc f   core:core.dll
 0001:000467e2       ?SvIsInactive@Animatable@@UEAA_NPEAVIGraphObjectManager@@PEAVIGraphNode@@@Z 00000001800477e2 f   core:core.dll
 0001:000467e8       ?SvIsSelected@MtlBase@@UEAA_NPEAVIGraphObjectManager@@PEAVIGraphNode@@@Z 00000001800477e8 f   core:core.dll
 0001:000467ee       ?SvLinkChild@Animatable@@UEAA_NPEAVIGraphObjectManager@@PEAVIGraphNode@@1@Z 00000001800477ee f   core:core.dll
 0001:000467f4       ?SvRemoveThis@Animatable@@UEAA_NPEAVIGraphObjectManager@@PEAVIGraphNode@@@Z 00000001800477f4 f   core:core.dll
 0001:000467fa       ?SvSetName@MtlBase@@UEAA_NPEAVIGraphObjectManager@@PEAVIGraphNode@@AEBVWStr@@@Z 00000001800477fa f   core:core.dll
 0001:00046800       ?SvTraverseAnimGraph@Texmap@@UEAA?AVSvGraphNodeReference@@PEAVIGraphObjectManager@@PEAVAnimatable@@HK@Z 0000000180047800 f   core:core.dll
 0001:00046806       ?VectorFromNoScale@ShadeContext@@UEAA?AVPoint3@@AEBV2@W4RefFrame@@@Z 0000000180047806 f   core:core.dll
 0001:0004680c       ?VectorToNoScale@ShadeContext@@UEAA?AVPoint3@@AEBV2@W4RefFrame@@@Z 000000018004780c f   core:core.dll
 0001:00046812       ??0OutOfRangeException@Util@MaxSDK@@QEAA@AEBV012@@Z 0000000180047812 f   maxutil:maxutil.dll
 0001:00046818       ??0Exception@Util@MaxSDK@@QEAA@AEBV012@@Z 0000000180047818 f   maxutil:maxutil.dll
 0001:0004681e       ?GetInterface@BaseInterfaceServer@@UEAAPEAVBaseInterface@@VInterface_ID@@@Z 000000018004781e f   maxutil:maxutil.dll
 0001:00046824       ?GetInterface@InterfaceServer@@UEAAPEAVBaseInterface@@VInterface_ID@@@Z 0000000180047824 f   maxutil:maxutil.dll
 0001:0004682a       ?GetInterfaceAt@BaseInterfaceServer@@UEBAPEAVBaseInterface@@H@Z 000000018004782a f   maxutil:maxutil.dll
 0001:00046830       ?NumInterfaces@BaseInterfaceServer@@UEBAHXZ 0000000180047830 f   maxutil:maxutil.dll
 0001:00046836       ?MakeAutoParamBlocks@ClassDesc2@@UEAAXPEAVReferenceMaker@@@Z 0000000180047836 f   paramblk2:ParamBlk2.dll
 0001:0004683c       ?AddParamBlockDesc@ClassDesc2@@UEAAXPEAVParamBlockDesc2@@@Z 000000018004783c f   paramblk2:ParamBlk2.dll
 0001:00046842       ?BeginEditParams@ClassDesc2@@UEAAXPEAVIObjParam@@PEAVReferenceMaker@@KPEAVAnimatable@@@Z 0000000180047842 f   paramblk2:ParamBlk2.dll
 0001:00046848       ?EndEditParams@ClassDesc2@@UEAAXPEAVIObjParam@@PEAVReferenceMaker@@KPEAVAnimatable@@@Z 0000000180047848 f   paramblk2:ParamBlk2.dll
 0001:0004684e       ?GetParamBlockDesc@ClassDesc2@@UEAAPEAVParamBlockDesc2@@H@Z 000000018004784e f   paramblk2:ParamBlk2.dll
 0001:00046854       ?GetParamBlockDescByID@ClassDesc2@@UEAAPEAVParamBlockDesc2@@F@Z 0000000180047854 f   paramblk2:ParamBlk2.dll
 0001:0004685a       ?GetParamMap@ClassDesc2@@UEAAPEAVIParamMap2@@H@Z 000000018004785a f   paramblk2:ParamBlk2.dll
 0001:00046860       ?InvalidateUI@ClassDesc2@@UEAAXPEAVParamBlockDesc2@@@Z 0000000180047860 f   paramblk2:ParamBlk2.dll
 0001:00046866       ?NumParamBlockDescs@ClassDesc2@@UEAAHXZ 0000000180047866 f   paramblk2:ParamBlk2.dll
 0001:0004686c       ?NumParamMaps@ClassDesc2@@UEAAHXZ 000000018004786c f   paramblk2:ParamBlk2.dll
 0001:00046872       ?ResetClassParams@ClassDesc2@@UEAAXH@Z 0000000180047872 f   paramblk2:ParamBlk2.dll
 0001:00046878       ?_Lock@?$basic_streambuf@_WU?$char_traits@_W@std@@@std@@UEAAXXZ 0000000180047878 f   msvcprtd:MSVCP140D.dll
 0001:0004687e       ?_Unlock@?$basic_streambuf@_WU?$char_traits@_W@std@@@std@@UEAAXXZ 000000018004787e f   msvcprtd:MSVCP140D.dll
 0001:00046884       ?imbue@?$basic_streambuf@_WU?$char_traits@_W@std@@@std@@MEAAXAEBVlocale@2@@Z 0000000180047884 f   msvcprtd:MSVCP140D.dll
 0001:0004688a       ?setbuf@?$basic_streambuf@_WU?$char_traits@_W@std@@@std@@MEAAPEAV12@PEA_W_J@Z 000000018004788a f   msvcprtd:MSVCP140D.dll
 0001:00046890       ?showmanyc@?$basic_streambuf@_WU?$char_traits@_W@std@@@std@@MEAA_JXZ 0000000180047890 f   msvcprtd:MSVCP140D.dll
 0001:00046896       ?sync@?$basic_streambuf@_WU?$char_traits@_W@std@@@std@@MEAAHXZ 0000000180047896 f   msvcprtd:MSVCP140D.dll
 0001:0004689c       ?uflow@?$basic_streambuf@_WU?$char_traits@_W@std@@@std@@MEAAGXZ 000000018004789c f   msvcprtd:MSVCP140D.dll
 0001:000468a2       ?xsgetn@?$basic_streambuf@_WU?$char_traits@_W@std@@@std@@MEAA_JPEA_W_J@Z 00000001800478a2 f   msvcprtd:MSVCP140D.dll
 0001:000468a8       ?xsputn@?$basic_streambuf@_WU?$char_traits@_W@std@@@std@@MEAA_JPEB_W_J@Z 00000001800478a8 f   msvcprtd:MSVCP140D.dll
 0001:000468b0       __GSHandlerCheck           00000001800478b0 f   MSVCRTD:_gshandler_.obj
 0001:000468f0       __GSHandlerCheckCommon     00000001800478f0 f   MSVCRTD:_gshandler_.obj
 0001:00046a00       __security_check_cookie    0000000180047a00 f   MSVCRTD:_amdsecgs_.obj
 0001:00046a30       ??$__crt_fast_encode_pointer@P6AXPEAU_RTL_CONDITION_VARIABLE@@@Z@@YAP6AXPEAU_RTL_CONDITION_VARIABLE@@@ZQ6AX0@Z@Z 0000000180047a30 f i MSVCRTD:thread_safe_statics.obj
 0001:00046a30       ??$__crt_fast_encode_pointer@P6AHPEAU_RTL_CONDITION_VARIABLE@@PEAU_RTL_CRITICAL_SECTION@@K@Z@@YAP6AHPEAU_RTL_CONDITION_VARIABLE@@PEAU_RTL_CRITICAL_SECTION@@K@ZQ6AH01K@Z@Z 0000000180047a30 f i MSVCRTD:thread_safe_statics.obj
 0001:00046a30       ??$__crt_fast_encode_pointer@PEAP6AXXZ@@YAPEAP6AXXZQEAP6AXXZ@Z 0000000180047a30 f i MSVCRTD:utility.obj
 0001:00046a70       ?__crt_rotate_pointer_value@@YA_K_KH@Z 0000000180047a70 f i MSVCRTD:utility.obj
 0001:00046a90       ?configure_argv@__scrt_narrow_argv_policy@@SAHXZ 0000000180047a90 f i MSVCRTD:utility.obj
 0001:00046c10       NtCurrentTeb               0000000180047c10 f i MSVCRTD:utility.obj
 0001:00046c20       __scrt_acquire_startup_lock 0000000180047c20 f   MSVCRTD:utility.obj
 0001:00046c90       __scrt_dllmain_after_initialize_c 0000000180047c90 f   MSVCRTD:utility.obj
 0001:00046cc0       __scrt_dllmain_before_initialize_c 0000000180047cc0 f   MSVCRTD:utility.obj
 0001:00046ce0       __scrt_dllmain_crt_thread_attach 0000000180047ce0 f   MSVCRTD:utility.obj
 0001:00046d10       __scrt_dllmain_crt_thread_detach 0000000180047d10 f   MSVCRTD:utility.obj
 0001:00046d30       __scrt_dllmain_exception_filter 0000000180047d30 f   MSVCRTD:utility.obj
 0001:00046d90       __scrt_dllmain_uninitialize_c 0000000180047d90 f   MSVCRTD:utility.obj
 0001:00046dc0       __scrt_dllmain_uninitialize_critical 0000000180047dc0 f   MSVCRTD:utility.obj
 0001:00046de0       __scrt_initialize_crt      0000000180047de0 f   MSVCRTD:utility.obj
 0001:00046e30       __scrt_initialize_onexit_tables 0000000180047e30 f   MSVCRTD:utility.obj
 0001:00046f30       __scrt_is_nonwritable_in_current_image 0000000180047f30 f   MSVCRTD:utility.obj
 0001:00046fc0       __scrt_release_startup_lock 0000000180047fc0 f   MSVCRTD:utility.obj
 0001:00046ff0       __scrt_uninitialize_crt    0000000180047ff0 f   MSVCRTD:utility.obj
 0001:00047030       _onexit                    0000000180048030 f   MSVCRTD:utility.obj
 0001:000470c0       atexit                     00000001800480c0 f   MSVCRTD:utility.obj
 0001:00047100       __GSHandlerCheck_EH        0000000180048100 f   MSVCRTD:gshandlereh.obj
 0001:000471b0       ??1type_info@@UEAA@XZ      00000001800481b0 f   MSVCRTD:std_type_info_static.obj
 0001:000471d0       ??_Gtype_info@@UEAAPEAXI@Z 00000001800481d0 f i MSVCRTD:std_type_info_static.obj
 0001:000471d0       ??_Etype_info@@UEAAPEAXI@Z 00000001800481d0 f i MSVCRTD:std_type_info_static.obj
 0001:00047210       ??2@YAPEAX_K@Z             0000000180048210 f   MSVCRTD:new_scalar.obj
 0001:00047260       ??3@YAXPEAX_K@Z            0000000180048260 f   MSVCRTD:delete_scalar_size.obj
 0001:00047280       ??_V@YAXPEAX@Z             0000000180048280 f   MSVCRTD:delete_array.obj
 0001:000473d0       ??$__crt_fast_decode_pointer@PEAP6AXXZ@@YAPEAP6AXXZQEAP6AXXZ@Z 00000001800483d0 f i MSVCRTD:utility.obj
 0001:000473d0       ??$__crt_fast_decode_pointer@P6AXPEAU_RTL_CONDITION_VARIABLE@@@Z@@YAP6AXPEAU_RTL_CONDITION_VARIABLE@@@ZQ6AX0@Z@Z 00000001800483d0 f i MSVCRTD:thread_safe_statics.obj
 0001:000473d0       ??$__crt_fast_decode_pointer@P6AHPEAU_RTL_CONDITION_VARIABLE@@PEAU_RTL_CRITICAL_SECTION@@K@Z@@YAP6AHPEAU_RTL_CONDITION_VARIABLE@@PEAU_RTL_CRITICAL_SECTION@@K@ZQ6AH01K@Z@Z 00000001800483d0 f i MSVCRTD:thread_safe_statics.obj
 0001:00047440       _Init_thread_abort         0000000180048440 f   MSVCRTD:thread_safe_statics.obj
 0001:00047470       _Init_thread_footer        0000000180048470 f   MSVCRTD:thread_safe_statics.obj
 0001:000474d0       _Init_thread_header        00000001800484d0 f   MSVCRTD:thread_safe_statics.obj
 0001:00047560       _Init_thread_lock          0000000180048560 f   MSVCRTD:thread_safe_statics.obj
 0001:00047580       _Init_thread_notify        0000000180048580 f   MSVCRTD:thread_safe_statics.obj
 0001:000475e0       _Init_thread_unlock        00000001800485e0 f   MSVCRTD:thread_safe_statics.obj
 0001:00047600       _Init_thread_wait          0000000180048600 f   MSVCRTD:thread_safe_statics.obj
 0001:000476f0       ??3@YAXPEAX@Z              00000001800486f0 f   MSVCRTD:delete_scalar.obj
 0001:00047720       _alloca_probe              0000000180048720 f   MSVCRTD:_chkstk_.obj
 0001:00047720       __chkstk                   0000000180048720 f   MSVCRTD:_chkstk_.obj
 0001:00047780       ??_U@YAPEAX_K@Z            0000000180048780 f   MSVCRTD:new_array.obj
 0001:00047b90       _DllMainCRTStartup         0000000180048b90 f   MSVCRTD:dll_dllmain.obj
 0001:00047bd0       __raise_securityfailure    0000000180048bd0 f   MSVCRTD:gs_report.obj
 0001:00047c10       __report_gsfailure         0000000180048c10 f   MSVCRTD:gs_report.obj
 0001:00047db0       __isa_available_init       0000000180048db0 f   MSVCRTD:_cpu_disp_.obj
 0001:00048130       ?LibShutdown@@YAHXZ        0000000180049130 f   DllEntry.obj
 0001:00048130       _get_startup_argv_mode     0000000180049130 f   MSVCRTD:argv_mode.obj
 0001:00048130       ?LibInitialize@@YAHXZ      0000000180049130 f   DllEntry.obj
 0001:00048140       __scrt_is_ucrt_dll_in_use  0000000180049140 f   MSVCRTD:ucrt_detection.obj
 0001:00048170       __crt_debugger_hook        0000000180049170 f   MSVCRTD:utility_desktop.obj
 0001:00048180       __scrt_fastfail            0000000180049180 f   MSVCRTD:utility_desktop.obj
 0001:00048320       _guard_check_icall         0000000180049320 f i MSVCRTD:checkcfg.obj
 0001:00048340       ??0bad_alloc@std@@AEAA@QEBD@Z 0000000180049340 f i MSVCRTD:throw_bad_alloc.obj
 0001:00048380       ??0bad_alloc@std@@QEAA@AEBV01@@Z 0000000180049380 f i MSVCRTD:throw_bad_alloc.obj
 0001:000483c0       ??0bad_alloc@std@@QEAA@XZ  00000001800493c0 f i MSVCRTD:throw_bad_alloc.obj
 0001:00048400       ??0bad_array_new_length@std@@QEAA@AEBV01@@Z 0000000180049400 f i MSVCRTD:throw_bad_alloc.obj
 0001:00048440       ??0bad_array_new_length@std@@QEAA@XZ 0000000180049440 f i MSVCRTD:throw_bad_alloc.obj
 0001:00048480       ??0exception@std@@QEAA@AEBV01@@Z 0000000180049480 f i MSVCRTD:throw_bad_alloc.obj
 0001:000484e0       ??0exception@std@@QEAA@QEBDH@Z 00000001800494e0 f i MSVCRTD:throw_bad_alloc.obj
 0001:00048530       ??1bad_alloc@std@@UEAA@XZ  0000000180049530 f i MSVCRTD:throw_bad_alloc.obj
 0001:00048550       ??1bad_array_new_length@std@@UEAA@XZ 0000000180049550 f i MSVCRTD:throw_bad_alloc.obj
 0001:00048570       ??1exception@std@@UEAA@XZ  0000000180049570 f i MSVCRTD:throw_bad_alloc.obj
 0001:000485a0       ??_Ebad_alloc@std@@UEAAPEAXI@Z 00000001800495a0 f i MSVCRTD:throw_bad_alloc.obj
 0001:000485a0       ??_Gbad_alloc@std@@UEAAPEAXI@Z 00000001800495a0 f i MSVCRTD:throw_bad_alloc.obj
 0001:000485e0       ??_Ebad_array_new_length@std@@UEAAPEAXI@Z 00000001800495e0 f i MSVCRTD:throw_bad_alloc.obj
 0001:000485e0       ??_Gbad_array_new_length@std@@UEAAPEAXI@Z 00000001800495e0 f i MSVCRTD:throw_bad_alloc.obj
 0001:00048620       ??_Eexception@std@@UEAAPEAXI@Z 0000000180049620 f i MSVCRTD:throw_bad_alloc.obj
 0001:00048620       ??_Gexception@std@@UEAAPEAXI@Z 0000000180049620 f i MSVCRTD:throw_bad_alloc.obj
 0001:00048660       ?__scrt_throw_std_bad_alloc@@YAXXZ 0000000180049660 f   MSVCRTD:throw_bad_alloc.obj
 0001:00048690       ?__scrt_throw_std_bad_array_new_length@@YAXXZ 0000000180049690 f   MSVCRTD:throw_bad_alloc.obj
 0001:000486c0       ?what@exception@std@@UEBAPEBDXZ 00000001800496c0 f i MSVCRTD:throw_bad_alloc.obj
 0001:00048700       __security_init_cookie     0000000180049700 f   MSVCRTD:gs_support.obj
 0001:00048820       ?__scrt_initialize_type_info@@YAXXZ 0000000180049820 f   MSVCRTD:tncleanup.obj
 0001:00048840       ?__scrt_uninitialize_type_info@@YAXXZ 0000000180049840 f   MSVCRTD:tncleanup.obj
 0001:00048860       __local_stdio_printf_options 0000000180049860 f i MSVCRTD:default_local_stdio_options.obj
 0001:00048870       __local_stdio_scanf_options 0000000180049870 f i MSVCRTD:default_local_stdio_options.obj
 0001:00048880       __scrt_initialize_default_local_stdio_options 0000000180049880 f   MSVCRTD:default_local_stdio_options.obj
 0001:000488d0       __scrt_get_dyn_tls_init_callback 00000001800498d0 f   MSVCRTD:dyn_tls_init.obj
 0001:000488e0       _RTC_Initialize            00000001800498e0 f   MSVCRTD:_initsect_.obj
 0001:00048930       _RTC_Terminate             0000000180049930 f   MSVCRTD:_initsect_.obj
 0001:00048980       _purecall                  0000000180049980 f   vcruntimed:VCRUNTIME140D.dll
 0001:00048986       _CxxThrowException         0000000180049986 f   vcruntimed:VCRUNTIME140D.dll
 0001:0004898c       __CxxFrameHandler3         000000018004998c f   vcruntimed:VCRUNTIME140D.dll
 0001:00048992       memcpy                     0000000180049992 f   vcruntimed:VCRUNTIME140D.dll
 0001:00048998       __C_specific_handler       0000000180049998 f   vcruntimed:VCRUNTIME140D.dll
 0001:0004899e       __vcrt_InitializeCriticalSectionEx 000000018004999e f   vcruntimed:VCRUNTIME140D.dll
 0001:000489a4       __std_exception_copy       00000001800499a4 f   vcruntimed:VCRUNTIME140D.dll
 0001:000489aa       __std_exception_destroy    00000001800499aa f   vcruntimed:VCRUNTIME140D.dll
 0001:000489b0       __std_type_info_destroy_list 00000001800499b0 f   vcruntimed:VCRUNTIME140D.dll
 0001:000489b6       fabs                       00000001800499b6 f   ucrtd:ucrtbased.dll
 0001:000489bc       _CrtDbgReportW             00000001800499bc f   ucrtd:ucrtbased.dll
 0001:000489c2       sqrt                       00000001800499c2 f   ucrtd:ucrtbased.dll
 0001:000489c8       _seh_filter_dll            00000001800499c8 f   ucrtd:ucrtbased.dll
 0001:000489ce       _configure_narrow_argv     00000001800499ce f   ucrtd:ucrtbased.dll
 0001:000489d4       _initialize_narrow_environment 00000001800499d4 f   ucrtd:ucrtbased.dll
 0001:000489da       _initialize_onexit_table   00000001800499da f   ucrtd:ucrtbased.dll
 0001:000489e0       _register_onexit_function  00000001800499e0 f   ucrtd:ucrtbased.dll
 0001:000489e6       _execute_onexit_table      00000001800499e6 f   ucrtd:ucrtbased.dll
 0001:000489ec       _crt_atexit                00000001800499ec f   ucrtd:ucrtbased.dll
 0001:000489f2       _cexit                     00000001800499f2 f   ucrtd:ucrtbased.dll
 0001:000489f8       _callnewh                  00000001800499f8 f   ucrtd:ucrtbased.dll
 0001:000489fe       malloc                     00000001800499fe f   ucrtd:ucrtbased.dll
 0001:00048a04       _free_dbg                  0000000180049a04 f   ucrtd:ucrtbased.dll
 0001:00048a0a       _initterm                  0000000180049a0a f   ucrtd:ucrtbased.dll
 0001:00048a10       _initterm_e                0000000180049a10 f   ucrtd:ucrtbased.dll
 0001:00048a16       IsProcessorFeaturePresent  0000000180049a16 f   kernel32:KERNEL32.dll
 0001:00048a20       __scrt_stub_for_acrt_thread_attach 0000000180049a20 f   MSVCRTD:ucrt_stubs.obj
 0001:00048a20       __acrt_thread_attach       0000000180049a20 f   MSVCRTD:ucrt_stubs.obj
 0001:00048a20       __acrt_thread_detach       0000000180049a20 f   MSVCRTD:ucrt_stubs.obj
 0001:00048a20       __acrt_initialize          0000000180049a20 f   MSVCRTD:ucrt_stubs.obj
 0001:00048a20       __vcrt_initialize          0000000180049a20 f   MSVCRTD:ucrt_stubs.obj
 0001:00048a20       __scrt_stub_for_acrt_thread_detach 0000000180049a20 f   MSVCRTD:ucrt_stubs.obj
 0001:00048a20       __vcrt_thread_attach       0000000180049a20 f   MSVCRTD:ucrt_stubs.obj
 0001:00048a20       __vcrt_thread_detach       0000000180049a20 f   MSVCRTD:ucrt_stubs.obj
 0001:00048a20       __scrt_stub_for_acrt_initialize 0000000180049a20 f   MSVCRTD:ucrt_stubs.obj
 0001:00048a30       __scrt_stub_for_acrt_uninitialize 0000000180049a30 f   MSVCRTD:ucrt_stubs.obj
 0001:00048a30       __vcrt_uninitialize_critical 0000000180049a30 f   MSVCRTD:ucrt_stubs.obj
 0001:00048a30       __vcrt_uninitialize        0000000180049a30 f   MSVCRTD:ucrt_stubs.obj
 0001:00048a30       __acrt_uninitialize        0000000180049a30 f   MSVCRTD:ucrt_stubs.obj
 0001:00048a30       __acrt_uninitialize_critical 0000000180049a30 f   MSVCRTD:ucrt_stubs.obj
 0001:00048a30       __scrt_stub_for_acrt_uninitialize_critical 0000000180049a30 f   MSVCRTD:ucrt_stubs.obj
 0001:00048a40       _is_c_termination_complete 0000000180049a40 f   MSVCRTD:ucrt_stubs.obj
 0001:00048a40       __scrt_stub_for_is_c_termination_complete 0000000180049a40 f   MSVCRTD:ucrt_stubs.obj
 0001:00048a60       _guard_dispatch_icall_nop  0000000180049a60 f   MSVCRTD:_guard_dispatch_.obj
 0002:00000000       __imp_SetUnhandledExceptionFilter 000000018004b000     kernel32:KERNEL32.dll
 0002:00000008       __imp_UnhandledExceptionFilter 000000018004b008     kernel32:KERNEL32.dll
 0002:00000010       __imp_RtlVirtualUnwind     000000018004b010     kernel32:KERNEL32.dll
 0002:00000018       __imp_RtlLookupFunctionEntry 000000018004b018     kernel32:KERNEL32.dll
 0002:00000020       __imp_RtlCaptureContext    000000018004b020     kernel32:KERNEL32.dll
 0002:00000028       __imp_GetProcAddress       000000018004b028     kernel32:KERNEL32.dll
 0002:00000030       __imp_GetModuleHandleW     000000018004b030     kernel32:KERNEL32.dll
 0002:00000038       __imp_CreateEventW         000000018004b038     kernel32:KERNEL32.dll
 0002:00000040       __imp_WaitForSingleObjectEx 000000018004b040     kernel32:KERNEL32.dll
 0002:00000048       __imp_ResetEvent           000000018004b048     kernel32:KERNEL32.dll
 0002:00000050       __imp_SetEvent             000000018004b050     kernel32:KERNEL32.dll
 0002:00000058       __imp_DeleteCriticalSection 000000018004b058     kernel32:KERNEL32.dll
 0002:00000060       __imp_LeaveCriticalSection 000000018004b060     kernel32:KERNEL32.dll
 0002:00000068       __imp_GetCurrentProcess    000000018004b068     kernel32:KERNEL32.dll
 0002:00000070       __imp_CloseHandle          000000018004b070     kernel32:KERNEL32.dll
 0002:00000078       __imp_TerminateProcess     000000018004b078     kernel32:KERNEL32.dll
 0002:00000080       __imp_IsProcessorFeaturePresent 000000018004b080     kernel32:KERNEL32.dll
 0002:00000088       __imp_IsDebuggerPresent    000000018004b088     kernel32:KERNEL32.dll
 0002:00000090       __imp_QueryPerformanceCounter 000000018004b090     kernel32:KERNEL32.dll
 0002:00000098       __imp_DisableThreadLibraryCalls 000000018004b098     kernel32:KERNEL32.dll
 0002:000000a0       __imp_GetCurrentProcessId  000000018004b0a0     kernel32:KERNEL32.dll
 0002:000000a8       __imp_GetCurrentThreadId   000000018004b0a8     kernel32:KERNEL32.dll
 0002:000000b0       __imp_GetSystemTimeAsFileTime 000000018004b0b0     kernel32:KERNEL32.dll
 0002:000000b8       __imp_EnterCriticalSection 000000018004b0b8     kernel32:KERNEL32.dll
 0002:000000c0       __imp_InitializeSListHead  000000018004b0c0     kernel32:KERNEL32.dll
 0002:000000c8       \177KERNEL32_NULL_THUNK_DATA 000000018004b0c8     kernel32:KERNEL32.dll
 0002:000000d0       __imp_?egptr@?$basic_streambuf@_WU?$char_traits@_W@std@@@std@@IEBAPEA_WXZ 000000018004b0d0     msvcprtd:MSVCP140D.dll
 0002:000000d8       __imp_?pptr@?$basic_streambuf@_WU?$char_traits@_W@std@@@std@@IEBAPEA_WXZ 000000018004b0d8     msvcprtd:MSVCP140D.dll
 0002:000000e0       __imp_?pbase@?$basic_streambuf@_WU?$char_traits@_W@std@@@std@@IEBAPEA_WXZ 000000018004b0e0     msvcprtd:MSVCP140D.dll
 0002:000000e8       __imp_?gptr@?$basic_streambuf@_WU?$char_traits@_W@std@@@std@@IEBAPEA_WXZ 000000018004b0e8     msvcprtd:MSVCP140D.dll
 0002:000000f0       __imp_?eback@?$basic_streambuf@_WU?$char_traits@_W@std@@@std@@IEBAPEA_WXZ 000000018004b0f0     msvcprtd:MSVCP140D.dll
 0002:000000f8       __imp_??1?$basic_streambuf@_WU?$char_traits@_W@std@@@std@@UEAA@XZ 000000018004b0f8     msvcprtd:MSVCP140D.dll
 0002:00000100       __imp_??0?$basic_streambuf@_WU?$char_traits@_W@std@@@std@@IEAA@XZ 000000018004b100     msvcprtd:MSVCP140D.dll
 0002:00000108       __imp_?_Xout_of_range@std@@YAXPEBD@Z 000000018004b108     msvcprtd:MSVCP140D.dll
 0002:00000110       __imp_?_Xlength_error@std@@YAXPEBD@Z 000000018004b110     msvcprtd:MSVCP140D.dll
 0002:00000118       __imp_?_Xbad_alloc@std@@YAXXZ 000000018004b118     msvcprtd:MSVCP140D.dll
 0002:00000120       __imp_?_Debug_message@std@@YAXPEB_W0I@Z 000000018004b120     msvcprtd:MSVCP140D.dll
 0002:00000128       __imp_??1_Lockit@std@@QEAA@XZ 000000018004b128     msvcprtd:MSVCP140D.dll
 0002:00000130       __imp_??0_Lockit@std@@QEAA@H@Z 000000018004b130     msvcprtd:MSVCP140D.dll
 0002:00000138       __imp_?gbump@?$basic_streambuf@_WU?$char_traits@_W@std@@@std@@IEAAXH@Z 000000018004b138     msvcprtd:MSVCP140D.dll
 0002:00000140       __imp_?setg@?$basic_streambuf@_WU?$char_traits@_W@std@@@std@@IEAAXPEA_W00@Z 000000018004b140     msvcprtd:MSVCP140D.dll
 0002:00000148       __imp_?epptr@?$basic_streambuf@_WU?$char_traits@_W@std@@@std@@IEBAPEA_WXZ 000000018004b148     msvcprtd:MSVCP140D.dll
 0002:00000150       __imp_?pbump@?$basic_streambuf@_WU?$char_traits@_W@std@@@std@@IEAAXH@Z 000000018004b150     msvcprtd:MSVCP140D.dll
 0002:00000158       __imp_?setp@?$basic_streambuf@_WU?$char_traits@_W@std@@@std@@IEAAXPEA_W0@Z 000000018004b158     msvcprtd:MSVCP140D.dll
 0002:00000160       __imp_?_Pninc@?$basic_streambuf@_WU?$char_traits@_W@std@@@std@@IEAAPEA_WXZ 000000018004b160     msvcprtd:MSVCP140D.dll
 0002:00000168       __imp_??1?$basic_ios@_WU?$char_traits@_W@std@@@std@@UEAA@XZ 000000018004b168     msvcprtd:MSVCP140D.dll
 0002:00000170       __imp_??0?$basic_ios@_WU?$char_traits@_W@std@@@std@@IEAA@XZ 000000018004b170     msvcprtd:MSVCP140D.dll
 0002:00000178       __imp_??5?$basic_istream@_WU?$char_traits@_W@std@@@std@@QEAAAEAV01@AEAN@Z 000000018004b178     msvcprtd:MSVCP140D.dll
 0002:00000180       __imp_??0?$basic_iostream@_WU?$char_traits@_W@std@@@std@@QEAA@PEAV?$basic_streambuf@_WU?$char_traits@_W@std@@@1@@Z 000000018004b180     msvcprtd:MSVCP140D.dll
 0002:00000188       __imp_??1?$basic_iostream@_WU?$char_traits@_W@std@@@std@@UEAA@XZ 000000018004b188     msvcprtd:MSVCP140D.dll
 0002:00000190       __imp_?_Lock@?$basic_streambuf@_WU?$char_traits@_W@std@@@std@@UEAAXXZ 000000018004b190     msvcprtd:MSVCP140D.dll
 0002:00000198       __imp_?_Unlock@?$basic_streambuf@_WU?$char_traits@_W@std@@@std@@UEAAXXZ 000000018004b198     msvcprtd:MSVCP140D.dll
 0002:000001a0       __imp_?imbue@?$basic_streambuf@_WU?$char_traits@_W@std@@@std@@MEAAXAEBVlocale@2@@Z 000000018004b1a0     msvcprtd:MSVCP140D.dll
 0002:000001a8       __imp_?setbuf@?$basic_streambuf@_WU?$char_traits@_W@std@@@std@@MEAAPEAV12@PEA_W_J@Z 000000018004b1a8     msvcprtd:MSVCP140D.dll
 0002:000001b0       __imp_?showmanyc@?$basic_streambuf@_WU?$char_traits@_W@std@@@std@@MEAA_JXZ 000000018004b1b0     msvcprtd:MSVCP140D.dll
 0002:000001b8       __imp_?sync@?$basic_streambuf@_WU?$char_traits@_W@std@@@std@@MEAAHXZ 000000018004b1b8     msvcprtd:MSVCP140D.dll
 0002:000001c0       __imp_?uflow@?$basic_streambuf@_WU?$char_traits@_W@std@@@std@@MEAAGXZ 000000018004b1c0     msvcprtd:MSVCP140D.dll
 0002:000001c8       __imp_?xsgetn@?$basic_streambuf@_WU?$char_traits@_W@std@@@std@@MEAA_JPEA_W_J@Z 000000018004b1c8     msvcprtd:MSVCP140D.dll
 0002:000001d0       __imp_?xsputn@?$basic_streambuf@_WU?$char_traits@_W@std@@@std@@MEAA_JPEB_W_J@Z 000000018004b1d0     msvcprtd:MSVCP140D.dll
 0002:000001d8       __imp_?_BADOFF@std@@3_JB   000000018004b1d8     msvcprtd:MSVCP140D.dll
 0002:000001e0       __imp_?setp@?$basic_streambuf@_WU?$char_traits@_W@std@@@std@@IEAAXPEA_W00@Z 000000018004b1e0     msvcprtd:MSVCP140D.dll
 0002:000001e8       \177MSVCP140D_NULL_THUNK_DATA 000000018004b1e8     msvcprtd:MSVCP140D.dll
 0002:000001f0       __imp_?ResetClassParams@ClassDesc2@@UEAAXH@Z 000000018004b1f0     paramblk2:ParamBlk2.dll
 0002:000001f8       __imp_?NumParamMaps@ClassDesc2@@UEAAHXZ 000000018004b1f8     paramblk2:ParamBlk2.dll
 0002:00000200       __imp_?NumParamBlockDescs@ClassDesc2@@UEAAHXZ 000000018004b200     paramblk2:ParamBlk2.dll
 0002:00000208       __imp_?InvalidateUI@ClassDesc2@@UEAAXPEAVParamBlockDesc2@@@Z 000000018004b208     paramblk2:ParamBlk2.dll
 0002:00000210       __imp_?GetParamMap@ClassDesc2@@UEAAPEAVIParamMap2@@H@Z 000000018004b210     paramblk2:ParamBlk2.dll
 0002:00000218       __imp_?GetParamBlockDescByID@ClassDesc2@@UEAAPEAVParamBlockDesc2@@F@Z 000000018004b218     paramblk2:ParamBlk2.dll
 0002:00000220       __imp_?GetParamBlockDesc@ClassDesc2@@UEAAPEAVParamBlockDesc2@@H@Z 000000018004b220     paramblk2:ParamBlk2.dll
 0002:00000228       __imp_?EndEditParams@ClassDesc2@@UEAAXPEAVIObjParam@@PEAVReferenceMaker@@KPEAVAnimatable@@@Z 000000018004b228     paramblk2:ParamBlk2.dll
 0002:00000230       __imp_?BeginEditParams@ClassDesc2@@UEAAXPEAVIObjParam@@PEAVReferenceMaker@@KPEAVAnimatable@@@Z 000000018004b230     paramblk2:ParamBlk2.dll
 0002:00000238       __imp_?AddParamBlockDesc@ClassDesc2@@UEAAXPEAVParamBlockDesc2@@@Z 000000018004b238     paramblk2:ParamBlk2.dll
 0002:00000240       __imp_?SetUserDlgProc@ParamBlockDesc2@@QEAAXFPEAVParamMap2UserDlgProc@@@Z 000000018004b240     paramblk2:ParamBlk2.dll
 0002:00000248       __imp_?InvalidateUI@ParamBlockDesc2@@QEAAXFH@Z 000000018004b248     paramblk2:ParamBlk2.dll
 0002:00000250       __imp_??1ParamBlockDesc2@@UEAA@XZ 000000018004b250     paramblk2:ParamBlk2.dll
 0002:00000258       __imp_??0ParamBlockDesc2@@QEAA@FPEB_W_JPEAVClassDesc2@@GZZ 000000018004b258     paramblk2:ParamBlk2.dll
 0002:00000260       __imp_?CreateParamDlgs@ClassDesc2@@QEAAPEAVIAutoMParamDlg@@PEAUHWND__@@PEAVIMtlParams@@PEAVReferenceTarget@@@Z 000000018004b260     paramblk2:ParamBlk2.dll
 0002:00000268       __imp_?SetUserDlgProc@ClassDesc2@@QEAA_NPEAVParamBlockDesc2@@FPEAVParamMap2UserDlgProc@@@Z 000000018004b268     paramblk2:ParamBlk2.dll
 0002:00000270       __imp_?MakeAutoParamBlocks@ClassDesc2@@UEAAXPEAVReferenceMaker@@@Z 000000018004b270     paramblk2:ParamBlk2.dll
 0002:00000278       __imp_??1ClassDesc2@@UEAA@XZ 000000018004b278     paramblk2:ParamBlk2.dll
 0002:00000280       __imp_??0ClassDesc2@@QEAA@XZ 000000018004b280     paramblk2:ParamBlk2.dll
 0002:00000288       \177ParamBlk2_NULL_THUNK_DATA 000000018004b288     paramblk2:ParamBlk2.dll
 0002:00000290       __imp_GetWindowRect        000000018004b290     user32:USER32.dll
 0002:00000298       __imp_InvalidateRect       000000018004b298     user32:USER32.dll
 0002:000002a0       __imp_SetWindowLongPtrW    000000018004b2a0     user32:USER32.dll
 0002:000002a8       __imp_DestroyWindow        000000018004b2a8     user32:USER32.dll
 0002:000002b0       __imp_GetDlgItem           000000018004b2b0     user32:USER32.dll
 0002:000002b8       __imp_SendMessageW         000000018004b2b8     user32:USER32.dll
 0002:000002c0       __imp_LoadStringW          000000018004b2c0     user32:USER32.dll
 0002:000002c8       \177USER32_NULL_THUNK_DATA 000000018004b2c8     user32:USER32.dll
 0002:000002d0       __imp___std_exception_copy 000000018004b2d0     vcruntimed:VCRUNTIME140D.dll
 0002:000002d8       __imp__CxxThrowException   000000018004b2d8     vcruntimed:VCRUNTIME140D.dll
 0002:000002e0       __imp___CxxFrameHandler3   000000018004b2e0     vcruntimed:VCRUNTIME140D.dll
 0002:000002e8       __imp_memcpy               000000018004b2e8     vcruntimed:VCRUNTIME140D.dll
 0002:000002f0       __imp_memmove              000000018004b2f0     vcruntimed:VCRUNTIME140D.dll
 0002:000002f8       __imp___std_type_info_destroy_list 000000018004b2f8     vcruntimed:VCRUNTIME140D.dll
 0002:00000300       __imp___std_exception_destroy 000000018004b300     vcruntimed:VCRUNTIME140D.dll
 0002:00000308       __imp__purecall            000000018004b308     vcruntimed:VCRUNTIME140D.dll
 0002:00000310       __imp___vcrt_InitializeCriticalSectionEx 000000018004b310     vcruntimed:VCRUNTIME140D.dll
 0002:00000318       __imp___C_specific_handler 000000018004b318     vcruntimed:VCRUNTIME140D.dll
 0002:00000320       \177VCRUNTIME140D_NULL_THUNK_DATA 000000018004b320     vcruntimed:VCRUNTIME140D.dll
 0002:00000328       __imp_?DoEnumDependentsImpl@ReferenceTarget@@MEAAHPEAVDependentEnumProc@@@Z 000000018004b328     core:core.dll
 0002:00000330       __imp_?DiscardPStamp@MtlBase@@UEAAXH@Z 000000018004b330     core:core.dll
 0002:00000338       __imp_?DiffuseIllum@ShadeContext@@UEAA?AVColor@@XZ 000000018004b338     core:core.dll
 0002:00000340       __imp_?DeleteAllRefsToMe@ReferenceTarget@@UEAA?AW4RefResult@@XZ 000000018004b340     core:core.dll
 0002:00000348       __imp_?EnumAuxFiles@MtlBase@@UEAAXAEAVAssetEnumCallback@@K@Z 000000018004b348     core:core.dll
 0002:00000350       __imp_?EvalEnvironMap@ShadeContext@@UEAA?AVAColor@@PEAVTexmap@@VPoint3@@@Z 000000018004b350     core:core.dll
 0002:00000358       __imp_?GetFullName@MtlBase@@UEAA?AVWStr@@XZ 000000018004b358     core:core.dll
 0002:00000360       __imp_?GetInterface@ClassDesc@@UEAAPEAVFPInterface@@PEB_W@Z 000000018004b360     core:core.dll
 0002:00000368       __imp_?GetInterface@ClassDesc@@UEAAPEAVFPInterface@@VInterface_ID@@@Z 000000018004b368     core:core.dll
 0002:00000370       __imp_?GetInterface@MtlBase@@UEAAPEAXK@Z 000000018004b370     core:core.dll
 0002:00000378       __imp_?GetPStamp@MtlBase@@UEAAPEAVPStamp@@H@Z 000000018004b378     core:core.dll
 0002:00000380       __imp_?GetProperty@MtlBase@@UEAAPEAXK@Z 000000018004b380     core:core.dll
 0002:00000388       __imp_?GetRsrcString@ClassDesc@@UEAAPEB_W_J@Z 000000018004b388     core:core.dll
 0002:00000390       __imp_?GetTimeRange@Animatable@@UEAA?AVInterval@@K@Z 000000018004b390     core:core.dll
 0002:00000398       __imp_?GetVPDisplayDIB@Texmap@@UEAAPEAUtagBITMAPINFO@@HAEAVTexHandleMaker@@AEAVInterval@@HHH@Z 000000018004b398     core:core.dll
 0002:000003a0       __imp_?IsAnimated@Animatable@@UEAAHXZ 000000018004b3a0     core:core.dll
 0002:000003a8       __imp_?CreatePStamp@MtlBase@@UEAAPEAVPStamp@@HH@Z 000000018004b3a8     core:core.dll
 0002:000003b0       __imp_?Load@MtlBase@@UEAA?AW4IOResult@@PEAVILoad@@@Z 000000018004b3b0     core:core.dll
 0002:000003b8       __imp_?MapKeys@Animatable@@UEAAXPEAVTimeMap@@K@Z 000000018004b3b8     core:core.dll
 0002:000003c0       __imp_?MouseCycleCompleted@Animatable@@UEAAXH@Z 000000018004b3c0     core:core.dll
 0002:000003c8       __imp_?MouseCycleStarted@Animatable@@UEAAXH@Z 000000018004b3c8     core:core.dll
 0002:000003d0       __imp_?NodeName@Animatable@@UEAA?AVWStr@@XZ 000000018004b3d0     core:core.dll
 0002:000003d8       __imp_?NotifyDependents@ReferenceTarget@@UEAA?AW4RefResult@@AEBVInterval@@_KIKHPEAV1@W4NotifyDependentsOption@@@Z 000000018004b3d8     core:core.dll
 0002:000003e0       __imp_?RefAdded@Texmap@@UEAAXPEAVReferenceMaker@@@Z 000000018004b3e0     core:core.dll
 0002:000003e8       __imp_?threshold@@YAMMMM@Z 000000018004b3e8     core:core.dll
 0002:000003f0       __imp_?GetNewDefaultTextureOutput@@YAPEAVTextureOutput@@XZ 000000018004b3f0     core:core.dll
 0002:000003f8       __imp_?DeleteMe@ReferenceMaker@@QEAAXXZ 000000018004b3f8     core:core.dll
 0002:00000400       __imp_?ReleaseICustEdit@@YAXPEAVICustEdit@@@Z 000000018004b400     core:core.dll
 0002:00000408       __imp_?GetICustEdit@@YAPEAVICustEdit@@PEAUHWND__@@@Z 000000018004b408     core:core.dll
 0002:00000410       __imp_?CreateInstance@@YAPEAXKVClass_ID@@@Z 000000018004b410     core:core.dll
 0002:00000418       __imp_?TEXMAP_CAT_3D@@3PA_WA 000000018004b418     core:core.dll
 0002:00000420       __imp_?defaultDim@@3PEAVParamDimension@@EA 000000018004b420     core:core.dll
 0002:00000428       __imp_?VectorToNoScale@ShadeContext@@UEAA?AVPoint3@@AEBV2@W4RefFrame@@@Z 000000018004b428     core:core.dll
 0002:00000430       __imp_?VectorFromNoScale@ShadeContext@@UEAA?AVPoint3@@AEBV2@W4RefFrame@@@Z 000000018004b430     core:core.dll
 0002:00000438       __imp_?SvTraverseAnimGraph@Texmap@@UEAA?AVSvGraphNodeReference@@PEAVIGraphObjectManager@@PEAVAnimatable@@HK@Z 000000018004b438     core:core.dll
 0002:00000440       __imp_?SvSetName@MtlBase@@UEAA_NPEAVIGraphObjectManager@@PEAVIGraphNode@@AEBVWStr@@@Z 000000018004b440     core:core.dll
 0002:00000448       __imp_?SvRemoveThis@Animatable@@UEAA_NPEAVIGraphObjectManager@@PEAVIGraphNode@@@Z 000000018004b448     core:core.dll
 0002:00000450       __imp_?SvLinkChild@Animatable@@UEAA_NPEAVIGraphObjectManager@@PEAVIGraphNode@@1@Z 000000018004b450     core:core.dll
 0002:00000458       __imp_?SvIsSelected@MtlBase@@UEAA_NPEAVIGraphObjectManager@@PEAVIGraphNode@@@Z 000000018004b458     core:core.dll
 0002:00000460       __imp_?SvIsInactive@Animatable@@UEAA_NPEAVIGraphObjectManager@@PEAVIGraphNode@@@Z 000000018004b460     core:core.dll
 0002:00000468       __imp_?SvIsHighlighted@Animatable@@UEAA_NPEAVIGraphObjectManager@@PEAVIGraphNode@@@Z 000000018004b468     core:core.dll
 0002:00000470       __imp_?SvHighlightColor@MtlBase@@UEAAKPEAVIGraphObjectManager@@PEAVIGraphNode@@@Z 000000018004b470     core:core.dll
 0002:00000478       __imp_?SvHandleRelDoubleClick@Animatable@@UEAA_NPEAVIGraphObjectManager@@PEAVIGraphNode@@H1@Z 000000018004b478     core:core.dll
 0002:00000480       __imp_?SvHandleDoubleClick@MtlBase@@UEAA_NPEAVIGraphObjectManager@@PEAVIGraphNode@@@Z 000000018004b480     core:core.dll
 0002:00000488       __imp_?BaseClone@MtlBase@@UEAAXPEAVReferenceTarget@@0AEAVRemapDir@@@Z 000000018004b488     core:core.dll
 0002:00000490       __imp_?AutoDelete@ReferenceTarget@@UEAA?AW4RefResult@@XZ 000000018004b490     core:core.dll
 0002:00000498       __imp_?AddInterface@ClassDesc@@UEAAXPEAVFPInterface@@@Z 000000018004b498     core:core.dll
 0002:000004a0       __imp_??0Texmap@@QEAA@XZ   000000018004b4a0     core:core.dll
 0002:000004a8       __imp_??4MtlBase@@QEAAAEAV0@AEBV0@@Z 000000018004b4a8     core:core.dll
 0002:000004b0       __imp_??1MtlBase@@UEAA@XZ  000000018004b4b0     core:core.dll
 0002:000004b8       __imp_?GetSubTexmapTVName@ISubMap@@QEAA?AVWStr@@H@Z 000000018004b4b8     core:core.dll
 0002:000004c0       __imp_?GetInterface@ReferenceTarget@@UEAAPEAVBaseInterface@@VInterface_ID@@@Z 000000018004b4c0     core:core.dll
 0002:000004c8       __imp_?DeleteReference@ReferenceMaker@@QEAA?AW4RefResult@@H@Z 000000018004b4c8     core:core.dll
 0002:000004d0       __imp_?ReplaceReference@ReferenceMaker@@QEAA?AW4RefResult@@HPEAVReferenceTarget@@H@Z 000000018004b4d0     core:core.dll
 0002:000004d8       __imp_??IInterval@@QEBA?AV0@V0@@Z 000000018004b4d8     core:core.dll
 0002:000004e0       __imp_?InInterval@Interval@@QEBAHH@Z 000000018004b4e0     core:core.dll
 0002:000004e8       __imp_?ReleaseICustButton@@YAXPEAVICustButton@@@Z 000000018004b4e8     core:core.dll
 0002:000004f0       __imp_?GetICustButton@@YAPEAVICustButton@@PEAUHWND__@@@Z 000000018004b4f0     core:core.dll
 0002:000004f8       __imp_?GetCOREInterface@@YAPEAVInterface@@XZ 000000018004b4f8     core:core.dll
 0002:00000500       __imp_?SetupUniverseSpinner@@YAPEAVISpinnerControl@@PEAUHWND__@@HHMMMM@Z 000000018004b500     core:core.dll
 0002:00000508       __imp_?SetupFloatSpinner@@YAPEAVISpinnerControl@@PEAUHWND__@@HHMMMM@Z 000000018004b508     core:core.dll
 0002:00000510       __imp_?ReleaseISpinner@@YAXPEAVISpinnerControl@@@Z 000000018004b510     core:core.dll
 0002:00000518       __imp_?IsOutputMeaningful@Texmap@@UEAA_NAEAVShadeContext@@@Z 000000018004b518     core:core.dll
 0002:00000520       __imp_?SvDetachRel@Animatable@@UEAA_NPEAVIGraphObjectManager@@PEAVIGraphNode@@H1@Z 000000018004b520     core:core.dll
 0002:00000528       __imp_?SvGetTip@Animatable@@UEAA?AVWStr@@PEAVIGraphObjectManager@@PEAVIGraphNode@@@Z 000000018004b528     core:core.dll
 0002:00000530       __imp_?SvGetSwatchColor@Animatable@@UEAAKPEAVIGraphObjectManager@@PEAVIGraphNode@@@Z 000000018004b530     core:core.dll
 0002:00000538       __imp_?SvGetRelTip@Animatable@@UEAA?AVWStr@@PEAVIGraphObjectManager@@PEAVIGraphNode@@H1@Z 000000018004b538     core:core.dll
 0002:00000540       __imp_?SvGetRefTip@Animatable@@UEAA?AVWStr@@PEAVIGraphObjectManager@@PEAVIGraphNode@@1@Z 000000018004b540     core:core.dll
 0002:00000548       __imp_?SvGetName@MtlBase@@UEAA?AVWStr@@PEAVIGraphObjectManager@@PEAVIGraphNode@@_N@Z 000000018004b548     core:core.dll
 0002:00000550       __imp_?SvGetMultiSelectCallback@MtlBase@@UEAAPEAVMultiSelectCallback@@PEAVIGraphObjectManager@@PEAVIGraphNode@@@Z 000000018004b550     core:core.dll
 0002:00000558       __imp_?SvEditProperties@Animatable@@UEAA_NPEAVIGraphObjectManager@@PEAVIGraphNode@@@Z 000000018004b558     core:core.dll
 0002:00000560       __imp_??0Interval@@QEAA@HH@Z 000000018004b560     core:core.dll
 0002:00000568       __imp_?SvDetach@Animatable@@UEAA_NPEAVIGraphObjectManager@@PEAVIGraphNode@@@Z 000000018004b568     core:core.dll
 0002:00000570       __imp_?SvCanSetName@MtlBase@@UEAA_NPEAVIGraphObjectManager@@PEAVIGraphNode@@@Z 000000018004b570     core:core.dll
 0002:00000578       __imp_?SvCanSelect@MtlBase@@UEAA_NPEAVIGraphObjectManager@@PEAVIGraphNode@@@Z 000000018004b578     core:core.dll
 0002:00000580       __imp_?SvCanRemoveThis@Animatable@@UEAA_NPEAVIGraphObjectManager@@PEAVIGraphNode@@@Z 000000018004b580     core:core.dll
 0002:00000588       __imp_?SvCanInitiateLink@Animatable@@UEAA_NPEAVIGraphObjectManager@@PEAVIGraphNode@@@Z 000000018004b588     core:core.dll
 0002:00000590       __imp_?SvCanDetachRel@Animatable@@UEAA_NPEAVIGraphObjectManager@@PEAVIGraphNode@@H1@Z 000000018004b590     core:core.dll
 0002:00000598       __imp_?SvCanDetach@Animatable@@UEAA_NPEAVIGraphObjectManager@@PEAVIGraphNode@@@Z 000000018004b598     core:core.dll
 0002:000005a0       __imp_?SvCanConcludeLink@Animatable@@UEAA_NPEAVIGraphObjectManager@@PEAVIGraphNode@@1@Z 000000018004b5a0     core:core.dll
 0002:000005a8       __imp_?SubAnimSetKeyBufferPresent@Animatable@@UEAAHH@Z 000000018004b5a8     core:core.dll
 0002:000005b0       __imp_?SubAnimRevertSetKeyBuffer@Animatable@@UEAAXH@Z 000000018004b5b0     core:core.dll
 0002:000005b8       __imp_?SubAnimCommitSetKeyBuffer@Animatable@@UEAAXHH@Z 000000018004b5b8     core:core.dll
 0002:000005c0       __imp_?SpecifySaveReferences@ReferenceMaker@@UEAA_NAEAVReferenceSaveManager@@@Z 000000018004b5c0     core:core.dll
 0002:000005c8       __imp_?SetProperty@MtlBase@@UEAAHKPEAX@Z 000000018004b5c8     core:core.dll
 0002:000005d0       __imp_?SaveEnum@ReferenceMaker@@UEAAXAEAVSaveEnumProc@@H@Z 000000018004b5d0     core:core.dll
 0002:000005d8       __imp_?Save@MtlBase@@UEAA?AW4IOResult@@PEAVISave@@@Z 000000018004b5d8     core:core.dll
 0002:000005e0       __imp_?RescaleWorldUnits@ReferenceMaker@@UEAAXM@Z 000000018004b5e0     core:core.dll
 0002:000005e8       __imp_?Requirements@MtlBase@@UEAAKH@Z 000000018004b5e8     core:core.dll
 0002:000005f0       __imp_?RenderBitmap@Texmap@@UEAAXHPEAVBitmap@@MH@Z 000000018004b5f0     core:core.dll
 0002:000005f8       __imp_?ReleaseInterface@Animatable@@UEAAXKPEAX@Z 000000018004b5f8     core:core.dll
 0002:00000600       \177core_NULL_THUNK_DATA   000000018004b600     core:core.dll
 0002:00000608       __imp_??0Point2@@QEAA@XZ   000000018004b608     geom:geom.dll
 0002:00000610       __imp_??0Point3@@QEAA@XZ   000000018004b610     geom:geom.dll
 0002:00000618       __imp_??0Point3@@QEAA@MMM@Z 000000018004b618     geom:geom.dll
 0002:00000620       __imp_??0Point3@@QEAA@AEBV0@@Z 000000018004b620     geom:geom.dll
 0002:00000628       __imp_??GPoint3@@QEBA?AV0@AEBV0@@Z 000000018004b628     geom:geom.dll
 0002:00000630       __imp_??HPoint3@@QEBA?AV0@AEBV0@@Z 000000018004b630     geom:geom.dll
 0002:00000638       __imp_??TPoint3@@QEBA?AV0@AEBV0@@Z 000000018004b638     geom:geom.dll
 0002:00000640       __imp_?Normalize@@YA?AVPoint3@@AEBV1@@Z 000000018004b640     geom:geom.dll
 0002:00000648       __imp_??D@YA?AVPoint3@@AEBVMatrix3@@AEBV0@@Z 000000018004b648     geom:geom.dll
 0002:00000650       __imp_?VectorTransform@@YA?AVPoint3@@AEBVMatrix3@@AEBV1@@Z 000000018004b650     geom:geom.dll
 0002:00000658       __imp_?IdentityMatrix@Matrix3@@QEAAXXZ 000000018004b658     geom:geom.dll
 0002:00000660       __imp_?Translate@Matrix3@@QEAAXAEBVPoint3@@@Z 000000018004b660     geom:geom.dll
 0002:00000668       __imp_?RotateY@Matrix3@@QEAAXM@Z 000000018004b668     geom:geom.dll
 0002:00000670       __imp_?RotateZ@Matrix3@@QEAAXM@Z 000000018004b670     geom:geom.dll
 0002:00000678       __imp_?Scale@Matrix3@@QEAAXAEBVPoint3@@H@Z 000000018004b678     geom:geom.dll
 0002:00000680       __imp_?Invert@Matrix3@@QEAAXXZ 000000018004b680     geom:geom.dll
 0002:00000688       __imp_??0Point2@@QEAA@NN@Z 000000018004b688     geom:geom.dll
 0002:00000690       __imp_??0Point3@@QEAA@HHH@Z 000000018004b690     geom:geom.dll
 0002:00000698       __imp_??YPoint3@@QEAAAEAV0@AEBV0@@Z 000000018004b698     geom:geom.dll
 0002:000006a0       __imp_?Length@@YAMAEBVPoint3@@@Z 000000018004b6a0     geom:geom.dll
 0002:000006a8       __imp_??APoint3@@QEAAAEAMH@Z 000000018004b6a8     geom:geom.dll
 0002:000006b0       __imp_??GPoint3@@QEBA?AV0@XZ 000000018004b6b0     geom:geom.dll
 0002:000006b8       __imp_?FNormalize@@YA?AVPoint3@@AEBV1@@Z 000000018004b6b8     geom:geom.dll
 0002:000006c0       __imp_??XPoint3@@QEAAAEAV0@M@Z 000000018004b6c0     geom:geom.dll
 0002:000006c8       __imp_??_0Point3@@QEAAAEAV0@M@Z 000000018004b6c8     geom:geom.dll
 0002:000006d0       __imp_?ClampMinMax@Color@@QEAAXXZ 000000018004b6d0     geom:geom.dll
 0002:000006d8       __imp_?CreateBitArrayImpl@BitArray@@AEAAXH@Z 000000018004b6d8     geom:geom.dll
 0002:000006e0       __imp_?SetAllImpl@BitArray@@AEAAXXZ 000000018004b6e0     geom:geom.dll
 0002:000006e8       __imp_?FreeBitsImpl@BitArray@@AEAAXXZ 000000018004b6e8     geom:geom.dll
 0002:000006f0       __imp_?Length@Point3@@QEBAMXZ 000000018004b6f0     geom:geom.dll
 0002:000006f8       __imp_??ZPoint3@@QEAAAEAV0@AEBV0@@Z 000000018004b6f8     geom:geom.dll
 0002:00000700       __imp_?RotateX@Matrix3@@QEAAXM@Z 000000018004b700     geom:geom.dll
 0002:00000708       \177geom_NULL_THUNK_DATA   000000018004b708     geom:geom.dll
 0002:00000710       __imp_??0WStr@@QEAA@AEBV0@@Z 000000018004b710     maxutil:maxutil.dll
 0002:00000718       __imp_??0WStr@@QEAA@XZ     000000018004b718     maxutil:maxutil.dll
 0002:00000720       __imp_??_VMaxHeapOperators@@SAXPEAX@Z 000000018004b720     maxutil:maxutil.dll
 0002:00000728       __imp_?NumInterfaces@BaseInterfaceServer@@UEBAHXZ 000000018004b728     maxutil:maxutil.dll
 0002:00000730       __imp_?GetInterfaceAt@BaseInterfaceServer@@UEBAPEAVBaseInterface@@H@Z 000000018004b730     maxutil:maxutil.dll
 0002:00000738       __imp_?GetInterface@InterfaceServer@@UEAAPEAVBaseInterface@@VInterface_ID@@@Z 000000018004b738     maxutil:maxutil.dll
 0002:00000740       __imp_?GetInterface@BaseInterfaceServer@@UEAAPEAVBaseInterface@@VInterface_ID@@@Z 000000018004b740     maxutil:maxutil.dll
 0002:00000748       __imp_??0Exception@Util@MaxSDK@@QEAA@AEBV012@@Z 000000018004b748     maxutil:maxutil.dll
 0002:00000750       __imp_??1BaseInterfaceServer@@UEAA@XZ 000000018004b750     maxutil:maxutil.dll
 0002:00000758       __imp_??1InterfaceServer@@UEAA@XZ 000000018004b758     maxutil:maxutil.dll
 0002:00000760       __imp_??4WStr@@QEAAAEAV0@PEB_W@Z 000000018004b760     maxutil:maxutil.dll
 0002:00000768       __imp_??1WStr@@QEAA@XZ     000000018004b768     maxutil:maxutil.dll
 0002:00000770       __imp_??0WStr@@QEAA@PEB_W@Z 000000018004b770     maxutil:maxutil.dll
 0002:00000778       __imp_?zfree@@YAXPEAPEAX@Z 000000018004b778     maxutil:maxutil.dll
 0002:00000780       __imp_??0OutOfRangeException@Util@MaxSDK@@QEAA@AEBV012@@Z 000000018004b780     maxutil:maxutil.dll
 0002:00000788       __imp_??1OutOfRangeException@Util@MaxSDK@@UEAA@XZ 000000018004b788     maxutil:maxutil.dll
 0002:00000790       __imp_?UseLanguagePackLocale@Util@MaxSDK@@YAXPEAUHINSTANCE__@@@Z 000000018004b790     maxutil:maxutil.dll
 0002:00000798       __imp_??2MaxHeapOperators@@SAPEAX_K@Z 000000018004b798     maxutil:maxutil.dll
 0002:000007a0       __imp_??3MaxHeapOperators@@SAXPEAX@Z 000000018004b7a0     maxutil:maxutil.dll
 0002:000007a8       __imp_??0OutOfRangeException@Util@MaxSDK@@QEAA@PEB_W@Z 000000018004b7a8     maxutil:maxutil.dll
 0002:000007b0       __imp_??_UMaxHeapOperators@@SAPEAX_K@Z 000000018004b7b0     maxutil:maxutil.dll
 0002:000007b8       \177maxutil_NULL_THUNK_DATA 000000018004b7b8     maxutil:maxutil.dll
 0002:000007c0       __imp__initterm            000000018004b7c0     ucrtd:ucrtbased.dll
 0002:000007c8       __imp__initterm_e          000000018004b7c8     ucrtd:ucrtbased.dll
 0002:000007d0       __imp__free_dbg            000000018004b7d0     ucrtd:ucrtbased.dll
 0002:000007d8       __imp_malloc               000000018004b7d8     ucrtd:ucrtbased.dll
 0002:000007e0       __imp__callnewh            000000018004b7e0     ucrtd:ucrtbased.dll
 0002:000007e8       __imp__cexit               000000018004b7e8     ucrtd:ucrtbased.dll
 0002:000007f0       __imp_rand                 000000018004b7f0     ucrtd:ucrtbased.dll
 0002:000007f8       __imp_srand                000000018004b7f8     ucrtd:ucrtbased.dll
 0002:00000800       __imp__crt_atexit          000000018004b800     ucrtd:ucrtbased.dll
 0002:00000808       __imp__execute_onexit_table 000000018004b808     ucrtd:ucrtbased.dll
 0002:00000810       __imp__register_onexit_function 000000018004b810     ucrtd:ucrtbased.dll
 0002:00000818       __imp__initialize_onexit_table 000000018004b818     ucrtd:ucrtbased.dll
 0002:00000820       __imp__initialize_narrow_environment 000000018004b820     ucrtd:ucrtbased.dll
 0002:00000828       __imp__configure_narrow_argv 000000018004b828     ucrtd:ucrtbased.dll
 0002:00000830       __imp__seh_filter_dll      000000018004b830     ucrtd:ucrtbased.dll
 0002:00000838       __imp_fabs                 000000018004b838     ucrtd:ucrtbased.dll
 0002:00000840       __imp_fmodf                000000018004b840     ucrtd:ucrtbased.dll
 0002:00000848       __imp_sinf                 000000018004b848     ucrtd:ucrtbased.dll
 0002:00000850       __imp_cosf                 000000018004b850     ucrtd:ucrtbased.dll
 0002:00000858       __imp_powf                 000000018004b858     ucrtd:ucrtbased.dll
 0002:00000860       __imp__CrtDbgReportW       000000018004b860     ucrtd:ucrtbased.dll
 0002:00000868       __imp_wcslen               000000018004b868     ucrtd:ucrtbased.dll
 0002:00000870       __imp__invalid_parameter   000000018004b870     ucrtd:ucrtbased.dll
 0002:00000878       __imp_sqrtf                000000018004b878     ucrtd:ucrtbased.dll
 0002:00000880       __imp_acosf                000000018004b880     ucrtd:ucrtbased.dll
 0002:00000888       __imp_sqrt                 000000018004b888     ucrtd:ucrtbased.dll
 0002:00000890       \177ucrtbased_NULL_THUNK_DATA 000000018004b890     ucrtd:ucrtbased.dll
 0002:00000898       __guard_check_icall_fptr   000000018004b898     MSVCRTD:guard_support.obj
 0002:000008a0       __guard_dispatch_icall_fptr 000000018004b8a0     MSVCRTD:guard_support.obj
 0002:000008a8       __xc_a                     000000018004b8a8     MSVCRTD:initializers.obj
 0002:00000ab8       __xc_z                     000000018004bab8     MSVCRTD:initializers.obj
 0002:00000ac0       __xi_a                     000000018004bac0     MSVCRTD:initializers.obj
 0002:00000ad0       __xi_z                     000000018004bad0     MSVCRTD:initializers.obj
 0002:00000ad8       __xl_a                     000000018004bad8     MSVCRTD:tlssup.obj
 0002:00000ae0       __xl_z                     000000018004bae0     MSVCRTD:tlssup.obj
 0002:00000ae8       __xp_a                     000000018004bae8     MSVCRTD:initializers.obj
 0002:00000af0       __xp_z                     000000018004baf0     MSVCRTD:initializers.obj
 0002:00000af8       __xt_a                     000000018004baf8     MSVCRTD:initializers.obj
 0002:00000b00       __xt_z                     000000018004bb00     MSVCRTD:initializers.obj
 0002:00000b10       __real@38d1b717            000000018004bb10     BerconCommon.obj
 0002:00000b14       __real@3c8efa35            000000018004bb14     BerconCommon.obj
 0002:00000b18       __real@3dcccccd            000000018004bb18     BerconCommon.obj
 0002:00000b1c       __real@3f000000            000000018004bb1c     BerconCommon.obj
 0002:00000b20       __real@3f800000            000000018004bb20     BerconCommon.obj
 0002:00000b24       __real@40000000            000000018004bb24     BerconCommon.obj
 0002:00000b28       __real@46fffe00            000000018004bb28     BerconCommon.obj
 0002:00000b2c       __real@49742400            000000018004bb2c     BerconCommon.obj
 0002:00000b30       __real@c9742400            000000018004bb30     BerconCommon.obj
 0002:00000b40       __xmm@80000000800000008000000080000000 000000018004bb40     BerconCommon.obj
 0002:00001038       ??_7TabOutOfRangeException@Util@MaxSDK@@6B@ 000000018004c038     BerconDistortion.obj
 0002:00001050       ??_C@_1EK@FOLBONAG@?$AAM?$AAa?$AAx?$AAS?$AAD?$AAK?$AA?3?$AA?3?$AAU?$AAt?$AAi?$AAl?$AA?3?$AA?3?$AAT?$AAa?$AAb?$AAO?$AAu?$AAt?$AAO?$AAf?$AAR?$AAa?$AAn?$AAg?$AAe?$AAE?$AAx?$AAc?$AAe?$AAp@ 000000018004c050     BerconDistortion.obj
 0002:000010a8       ??_7InterfaceServer@@6B@   000000018004c0a8     BerconDistortion.obj
 0002:000010c0       ??_7BaseInterfaceServer@@6B@ 000000018004c0c0     BerconDistortion.obj
 0002:000010e8       ??_7ShadeOutput@@6B@       000000018004c0e8     BerconDistortion.obj
 0002:00001110       ??_7ShadeContext@@6B@      000000018004c110     BerconDistortion.obj
 0002:00001358       ??_7ParamMap2UserDlgProc@@6B@ 000000018004c358     BerconDistortion.obj
 0002:00001398       ??_7XYZ_Desc@@6B@          000000018004c398     BerconDistortion.obj
 0002:000013b8       ??_C@_1BM@LCALCDFD@?$AAx?$AAy?$AAz?$AA_?$AAf?$AAi?$AAl?$AAt?$AAe?$AAr?$AAi?$AAn?$AAg?$AA?$AA@ 000000018004c3b8     BerconDistortion.obj
 0002:000013d8       ??_C@_1BC@JCCAEAIN@?$AAx?$AAy?$AAz?$AA_?$AAl?$AAo?$AAc?$AAk?$AA?$AA@ 000000018004c3d8     BerconDistortion.obj
 0002:000013f0       ??_C@_1BK@FLPLJMAJ@?$AAx?$AAy?$AAz?$AA_?$AAa?$AAn?$AAg?$AAl?$AAe?$AA_?$AAz?$AA2?$AA?$AA@ 000000018004c3f0     BerconDistortion.obj
 0002:00001410       ??_C@_1BK@NNGPOOKH@?$AAx?$AAy?$AAz?$AA_?$AAa?$AAn?$AAg?$AAl?$AAe?$AA_?$AAy?$AA2?$AA?$AA@ 000000018004c410     BerconDistortion.obj
 0002:00001430       ??_C@_1BK@BGDDDNAC@?$AAx?$AAy?$AAz?$AA_?$AAa?$AAn?$AAg?$AAl?$AAe?$AA_?$AAx?$AA2?$AA?$AA@ 000000018004c430     BerconDistortion.obj
 0002:00001450       ??_C@_1BI@MHJCJGME@?$AAx?$AAy?$AAz?$AA_?$AAs?$AAi?$AAz?$AAe?$AA_?$AAz?$AA2?$AA?$AA@ 000000018004c450     BerconDistortion.obj
 0002:00001468       ??_C@_1BI@EBAGOEGK@?$AAx?$AAy?$AAz?$AA_?$AAs?$AAi?$AAz?$AAe?$AA_?$AAy?$AA2?$AA?$AA@ 000000018004c468     BerconDistortion.obj
 0002:00001480       ??_C@_1BI@IKFKDHMP@?$AAx?$AAy?$AAz?$AA_?$AAs?$AAi?$AAz?$AAe?$AA_?$AAx?$AA2?$AA?$AA@ 000000018004c480     BerconDistortion.obj
 0002:00001498       ??_C@_1BM@HJOOPID@?$AAx?$AAy?$AAz?$AA_?$AAo?$AAf?$AAf?$AAs?$AAe?$AAt?$AA_?$AAz?$AA2?$AA?$AA@ 000000018004c498     BerconDistortion.obj
 0002:000014b8       ??_C@_1BM@IBAKJNCN@?$AAx?$AAy?$AAz?$AA_?$AAo?$AAf?$AAf?$AAs?$AAe?$AAt?$AA_?$AAy?$AA2?$AA?$AA@ 000000018004c4b8     BerconDistortion.obj
 0002:000014d8       ??_C@_1BM@EKFGEOII@?$AAx?$AAy?$AAz?$AA_?$AAo?$AAf?$AAf?$AAs?$AAe?$AAt?$AA_?$AAx?$AA2?$AA?$AA@ 000000018004c4d8     BerconDistortion.obj
 0002:000014f8       ??_C@_1BE@PALBIMHK@?$AAr?$AAa?$AAn?$AAd?$AAB?$AAy?$AAP?$AAa?$AAr?$AA?$AA@ 000000018004c4f8     BerconDistortion.obj
 0002:00001510       ??_C@_1BE@EGBDKCCD@?$AAr?$AAa?$AAn?$AAd?$AAB?$AAy?$AAO?$AAb?$AAj?$AA?$AA@ 000000018004c510     BerconDistortion.obj
 0002:00001528       ??_C@_1BE@DCGEPHFM@?$AAr?$AAa?$AAn?$AAd?$AAB?$AAy?$AAM?$AAa?$AAt?$AA?$AA@ 000000018004c528     BerconDistortion.obj
 0002:00001540       ??_C@_19HFHNPJHA@?$AAs?$AAe?$AAe?$AAd?$AA?$AA@ 000000018004c540     BerconDistortion.obj
 0002:00001550       ??_C@_1BG@EDCBABDD@?$AAx?$AAy?$AAz?$AA_?$AAt?$AAi?$AAl?$AAe?$AA_?$AAz?$AA?$AA@ 000000018004c550     BerconDistortion.obj
 0002:00001568       ??_C@_1BG@FBJEKONN@?$AAx?$AAy?$AAz?$AA_?$AAt?$AAi?$AAl?$AAe?$AA_?$AAy?$AA?$AA@ 000000018004c568     BerconDistortion.obj
 0002:00001580       ??_C@_1BG@OJCIMJLI@?$AAx?$AAy?$AAz?$AA_?$AAt?$AAi?$AAl?$AAe?$AA_?$AAx?$AA?$AA@ 000000018004c580     BerconDistortion.obj
 0002:00001598       ??_C@_1BI@LALGELMD@?$AAx?$AAy?$AAz?$AA_?$AAa?$AAn?$AAg?$AAl?$AAe?$AA_?$AAz?$AA?$AA@ 000000018004c598     BerconDistortion.obj
 0002:000015b0       ??_C@_1BI@KCADOECN@?$AAx?$AAy?$AAz?$AA_?$AAa?$AAn?$AAg?$AAl?$AAe?$AA_?$AAy?$AA?$AA@ 000000018004c5b0     BerconDistortion.obj
 0002:000015c8       ??_C@_1BI@BKLPIDEI@?$AAx?$AAy?$AAz?$AA_?$AAa?$AAn?$AAg?$AAl?$AAe?$AA_?$AAx?$AA?$AA@ 000000018004c5c8     BerconDistortion.obj
 0002:000015e0       ??_C@_1BG@MFMFKFM@?$AAx?$AAy?$AAz?$AA_?$AAs?$AAi?$AAz?$AAe?$AA_?$AAz?$AA?$AA@ 000000018004c5e0     BerconDistortion.obj
 0002:000015f8       ??_C@_1BG@BOOJPFLC@?$AAx?$AAy?$AAz?$AA_?$AAs?$AAi?$AAz?$AAe?$AA_?$AAy?$AA?$AA@ 000000018004c5f8     BerconDistortion.obj
 0002:00001610       ??_C@_1BG@KGFFJCNH@?$AAx?$AAy?$AAz?$AA_?$AAs?$AAi?$AAz?$AAe?$AA_?$AAx?$AA?$AA@ 000000018004c610     BerconDistortion.obj
 0002:00001628       ??_C@_1BK@HPJLBIGD@?$AAx?$AAy?$AAz?$AA_?$AAo?$AAf?$AAf?$AAs?$AAe?$AAt?$AA_?$AAz?$AA?$AA@ 000000018004c628     BerconDistortion.obj
 0002:00001648       ??_C@_1BK@GNCOLHIN@?$AAx?$AAy?$AAz?$AA_?$AAo?$AAf?$AAf?$AAs?$AAe?$AAt?$AA_?$AAy?$AA?$AA@ 000000018004c648     BerconDistortion.obj
 0002:00001668       ??_C@_1BK@NFJCNAOI@?$AAx?$AAy?$AAz?$AA_?$AAo?$AAf?$AAf?$AAs?$AAe?$AAt?$AA_?$AAx?$AA?$AA@ 000000018004c668     BerconDistortion.obj
 0002:00001688       ??_C@_1BC@BDPIEDCA@?$AAx?$AAy?$AAz?$AA_?$AAc?$AAh?$AAa?$AAn?$AA?$AA@ 000000018004c688     BerconDistortion.obj
 0002:000016a0       ??_C@_1BA@JOBDKJKA@?$AAx?$AAy?$AAz?$AA_?$AAm?$AAa?$AAp?$AA?$AA@ 000000018004c6a0     BerconDistortion.obj
 0002:000016b0       ??_C@_1BA@KMAKHADK@?$AAM?$AAa?$AAp?$AAp?$AAi?$AAn?$AAg?$AA?$AA@ 000000018004c6b0     BerconDistortion.obj
 0002:000016c8       ??_7BerconXYZDlgProc@@6B@  000000018004c6c8     BerconDistortion.obj
 0002:00001700       ??_C@_13PHJMHGG@?$AAL?$AA?$AA@ 000000018004c700     BerconDistortion.obj
 0002:00001710       ??_7BerconDistortion@@6BReferenceTarget@@@ 000000018004c710     BerconDistortion.obj
 0002:00001d88       ??_7BerconDistortion@@6BISubMap@@@ 000000018004cd88     BerconDistortion.obj
 0002:00001dd8       ??_7BerconDistortionClassDesc@@6B@ 000000018004cdd8     BerconDistortion.obj
 0002:00001f70       ??_C@_1BM@IANNOHHL@?$AAB?$AAe?$AAr?$AAc?$AAo?$AAn?$AAM?$AAa?$AAp?$AAp?$AAi?$AAn?$AAg?$AA?$AA@ 000000018004cf70     BerconDistortion.obj
 0002:00001f98       ??_7BerconSC@@6B@          000000018004cf98     BerconDistortion.obj
 0002:000021e0       ??_C@_1GI@NLEIFPEJ@?$AAI?$AAn?$AAv?$AAa?$AAl?$AAi?$AAd?$AA?5?$AAi?$AAn?$AAd?$AAe?$AAx?$AA?5?$AAp?$AAa?$AAs?$AAs?$AAe?$AAd?$AA?5?$AAi?$AAn?$AAt?$AAo?$AA?5?$AAa?$AA?5?$AAM?$AAa?$AAx?$AA?5@ 000000018004d1e0     BerconDistortion.obj
 0002:00002248       __real@3f1a36e2e0000000    000000018004d248     BerconDistortion.obj
 0002:00002250       __real@3f50624de0000000    000000018004d250     BerconDistortion.obj
 0002:00002258       __real@3fb99999a0000000    000000018004d258     BerconDistortion.obj
 0002:00002260       __real@3ff0000000000000    000000018004d260     BerconDistortion.obj
 0002:00002268       __real@408f400000000000    000000018004d268     BerconDistortion.obj
 0002:00002270       __real@412e848000000000    000000018004d270     BerconDistortion.obj
 0002:00002278       __real@bff0000000000000    000000018004d278     BerconDistortion.obj
 0002:00002280       __real@c12e848000000000    000000018004d280     BerconDistortion.obj
 0002:00002970       ??_7ICustomControl@@6B@    000000018004d970     BerconGradient.obj
 0002:000029c0       ??_7ResourceMakerCallback@@6B@ 000000018004d9c0     BerconGradient.obj
 0002:000029f0       ??_7GradientMap@@6B@       000000018004d9f0     BerconGradient.obj
 0002:00002a20       ??_7IGradient@@6B@         000000018004da20     BerconGradient.obj
 0002:00002a70       ??_7BerconGradient@@6BReferenceTarget@@@ 000000018004da70     BerconGradient.obj
 0002:000030e8       ??_7BerconGradient@@6BISubMap@@@ 000000018004e0e8     BerconGradient.obj
 0002:00003138       ??_7BerconGradient@@6BGradientMap@@@ 000000018004e138     BerconGradient.obj
 0002:00003168       ??_7BerconGradient@@6BResourceMakerCallback@@@ 000000018004e168     BerconGradient.obj
 0002:00003198       ??_7BerconGradientClassDesc@@6B@ 000000018004e198     BerconGradient.obj
 0002:00003330       ??_C@_1BO@EFFEGJBE@?$AAB?$AAe?$AAr?$AAc?$AAo?$AAn?$AAG?$AAr?$AAa?$AAd?$AAi?$AAe?$AAn?$AAt?$AA?$AA@ 000000018004e330     BerconGradient.obj
 0002:00003358       ??_7BerconCurveDlgProcGRADIENT@@6B@ 000000018004e358     BerconGradient.obj
 0002:00003398       ??_7BerconGradientDlgProc@@6B@ 000000018004e398     BerconGradient.obj
 0002:000033d0       __real@3a83126f            000000018004e3d0     BerconGradient.obj
 0002:000033d4       __real@3d4ccccd            000000018004e3d4     BerconGradient.obj
 0002:000033d8       __real@3fcccccd            000000018004e3d8     BerconGradient.obj
 0002:000033e0       __real@3fe921fb54442d18    000000018004e3e0     BerconGradient.obj
 0002:000033e8       __real@3ff99999a0000000    000000018004e3e8     BerconGradient.obj
 0002:000033f0       __real@40400000            000000018004e3f0     BerconGradient.obj
 0002:000033f4       __real@40490fdb            000000018004e3f4     BerconGradient.obj
 0002:000033f8       __real@40800000            000000018004e3f8     BerconGradient.obj
 0002:00003400       __real@40dfffc000000000    000000018004e400     BerconGradient.obj
 0002:00003ba8       ??_7BerconNoise@@6BReferenceTarget@@@ 000000018004eba8     BerconNoise.obj
 0002:00004220       ??_7BerconNoise@@6BISubMap@@@ 000000018004f220     BerconNoise.obj
 0002:00004270       ??_7BerconNoise@@6B@       000000018004f270     BerconNoise.obj
 0002:000042a0       ??_7BerconNoiseClassDesc@@6B@ 000000018004f2a0     BerconNoise.obj
 0002:00004438       ??_C@_1BI@OFHJLFOO@?$AAB?$AAe?$AAr?$AAc?$AAo?$AAn?$AAN?$AAo?$AAi?$AAs?$AAe?$AA?$AA@ 000000018004f438     BerconNoise.obj
 0002:00004458       ??_7BerconCurveDlgProcNOISE@@6B@ 000000018004f458     BerconNoise.obj
 0002:00004498       ??_7BerconNoiseDlgProc@@6B@ 000000018004f498     BerconNoise.obj
 0002:000044d0       __real@4008000000000000    000000018004f4d0     BerconNoise.obj
 0002:000044d8       __real@4034000000000000    000000018004f4d8     BerconNoise.obj
 0002:000044e0       __real@4039000000000000    000000018004f4e0     BerconNoise.obj
 0002:000044e8       __real@4059000000000000    000000018004f4e8     BerconNoise.obj
 0002:000044f0       __real@40a00000            000000018004f4f0     BerconNoise.obj
 0002:000044f4       __real@41c80000            000000018004f4f4     BerconNoise.obj
 0002:000044f8       __real@c08f400000000000    000000018004f4f8     BerconNoise.obj
 0002:00005060       ??_C@_0BE@LMNLACIC@_Ptr_container?5?$CB?$DN?50?$AA@ 0000000180050060     BerconTile.obj
 0002:00005078       ??_C@_1DG@HGDKEBPG@?$AA?$CC?$AA_?$AAP?$AAt?$AAr?$AA_?$AAc?$AAo?$AAn?$AAt?$AAa?$AAi?$AAn?$AAe?$AAr?$AA?5?$AA?$CB?$AA?$DN?$AA?5?$AA0?$AA?$CC?$AA?5?$AA?$CG?$AA?$CG?$AA?5?$AA0?$AA?$AA@ 0000000180050078     BerconTile.obj
 0002:000050b0       ??_C@_17CNPHIMPH@?$AA?$CF?$AAl?$AAs?$AA?$AA@ 00000001800500b0     BerconTile.obj
 0002:000050c0       ??_C@_1JA@DKOIEICI@?$AAc?$AA?3?$AA?2?$AAp?$AAr?$AAo?$AAg?$AAr?$AAa?$AAm?$AA?5?$AAf?$AAi?$AAl?$AAe?$AAs?$AA?5?$AA?$CI?$AAx?$AA8?$AA6?$AA?$CJ?$AA?2?$AAm?$AAi?$AAc?$AAr?$AAo?$AAs?$AAo?$AAf?$AAt@ 00000001800500c0     BerconTile.obj
 0002:00005150       ??_C@_1BO@NKFMJPA@?$AAs?$AAt?$AAd?$AA?3?$AA?3?$AA_?$AAA?$AAl?$AAl?$AAo?$AAc?$AAa?$AAt?$AAe?$AA?$AA@ 0000000180050150     BerconTile.obj
 0002:00005170       ??_C@_1CG@JNLFBNGN@?$AA?$CC?$AAi?$AAn?$AAv?$AAa?$AAl?$AAi?$AAd?$AA?5?$AAa?$AAr?$AAg?$AAu?$AAm?$AAe?$AAn?$AAt?$AA?$CC?$AA?$AA@ 0000000180050170     BerconTile.obj
 0002:00005198       ??_C@_09GLJCAGLP@_Ptr?5?$CB?$DN?50?$AA@ 0000000180050198     BerconTile.obj
 0002:000051a8       ??_C@_1CC@GKJLLHIM@?$AA?$CC?$AA_?$AAP?$AAt?$AAr?$AA?5?$AA?$CB?$AA?$DN?$AA?5?$AA0?$AA?$CC?$AA?5?$AA?$CG?$AA?$CG?$AA?5?$AA0?$AA?$AA@ 00000001800501a8     BerconTile.obj
 0002:000051d0       ??_C@_0BN@HMCJOMKN@_Count?5?$DM?$DN?5?$CIsize_t?$CJ?$CI?91?$CJ?5?1?5_Sz?$AA@ 00000001800501d0     BerconTile.obj
 0002:000051f0       ??_C@_1EI@MLOBABC@?$AA?$CC?$AA_?$AAC?$AAo?$AAu?$AAn?$AAt?$AA?5?$AA?$DM?$AA?$DN?$AA?5?$AA?$CI?$AAs?$AAi?$AAz?$AAe?$AA_?$AAt?$AA?$CJ?$AA?$CI?$AA?9?$AA1?$AA?$CJ?$AA?5?$AA?1?$AA?5?$AA_?$AAS?$AAz?$AA?$CC?$AA?5?$AA?$CG@ 00000001800501f0     BerconTile.obj
 0002:00005238       ??_C@_1CC@LOFJFFDB@?$AAs?$AAt?$AAd?$AA?3?$AA?3?$AA_?$AAD?$AAe?$AAa?$AAl?$AAl?$AAo?$AAc?$AAa?$AAt?$AAe?$AA?$AA@ 0000000180050238     BerconTile.obj
 0002:00005260       ??_C@_0DD@GBGGGKGG@?$CI_Ptr_user?5?$CG?5?$CI_BIG_ALLOCATION_AL@ 0000000180050260     BerconTile.obj
 0002:000052a0       ??_C@_1HE@CDMBFOKC@?$AA?$CC?$AA?$CI?$AA_?$AAP?$AAt?$AAr?$AA_?$AAu?$AAs?$AAe?$AAr?$AA?5?$AA?$CG?$AA?5?$AA?$CI?$AA_?$AAB?$AAI?$AAG?$AA_?$AAA?$AAL?$AAL?$AAO?$AAC?$AAA?$AAT?$AAI?$AAO?$AAN?$AA_?$AAA@ 00000001800502a0     BerconTile.obj
 0002:00005320       ??_C@_0EI@NOJHEJCJ@reinterpret_cast?$DMuintptr_t?5?$CK?$DO?$CI_P@ 0000000180050320     BerconTile.obj
 0002:00005370       ??_C@_1JO@EKLKIEHP@?$AA?$CC?$AAr?$AAe?$AAi?$AAn?$AAt?$AAe?$AAr?$AAp?$AAr?$AAe?$AAt?$AA_?$AAc?$AAa?$AAs?$AAt?$AA?$DM?$AAu?$AAi?$AAn?$AAt?$AAp?$AAt?$AAr?$AA_?$AAt?$AA?5?$AA?$CK?$AA?$DO?$AA?$CI?$AA_@ 0000000180050370     BerconTile.obj
 0002:00005410       ??_C@_0BL@OCKMEJON@_Ptr_container?5?$DM?5_Ptr_user?$AA@ 0000000180050410     BerconTile.obj
 0002:00005430       ??_C@_1EE@PDHAHDDC@?$AA?$CC?$AA_?$AAP?$AAt?$AAr?$AA_?$AAc?$AAo?$AAn?$AAt?$AAa?$AAi?$AAn?$AAe?$AAr?$AA?5?$AA?$DM?$AA?5?$AA_?$AAP?$AAt?$AAr?$AA_?$AAu?$AAs?$AAe?$AAr?$AA?$CC?$AA?5?$AA?$CG?$AA?$CG?$AA?5@ 0000000180050430     BerconTile.obj
 0002:00005478       ??_C@_0DB@GLFJLNCE@2?5?$CK?5sizeof?$CIvoid?5?$CK?$CJ?5?$DM?$DN?5_Ptr_user?5@ 0000000180050478     BerconTile.obj
 0002:000054b0       ??_C@_1HA@NAPGMHAO@?$AA?$CC?$AA2?$AA?5?$AA?$CK?$AA?5?$AAs?$AAi?$AAz?$AAe?$AAo?$AAf?$AA?$CI?$AAv?$AAo?$AAi?$AAd?$AA?5?$AA?$CK?$AA?$CJ?$AA?5?$AA?$DM?$AA?$DN?$AA?5?$AA_?$AAP?$AAt?$AAr?$AA_?$AAu?$AAs?$AAe?$AAr@ 00000001800504b0     BerconTile.obj
 0002:00005520       ??_C@_0CN@BLHJCAL@_Ptr_user?5?9?5_Ptr_container?5?$DM?$DN?5_N@ 0000000180050520     BerconTile.obj
 0002:00005550       ??_C@_1GI@DHJGPFNI@?$AA?$CC?$AA_?$AAP?$AAt?$AAr?$AA_?$AAu?$AAs?$AAe?$AAr?$AA?5?$AA?9?$AA?5?$AA_?$AAP?$AAt?$AAr?$AA_?$AAc?$AAo?$AAn?$AAt?$AAa?$AAi?$AAn?$AAe?$AAr?$AA?5?$AA?$DM?$AA?$DN?$AA?5?$AA_@ 0000000180050550     BerconTile.obj
 0002:000055c0       ??_7BerconTile@@6BReferenceTarget@@@ 00000001800505c0     BerconTile.obj
 0002:00005c38       ??_7BerconTile@@6BISubMap@@@ 0000000180050c38     BerconTile.obj
 0002:00005c88       ??_7BerconTile@@6B@        0000000180050c88     BerconTile.obj
 0002:00005cb8       ??_7BerconTileClassDesc@@6B@ 0000000180050cb8     BerconTile.obj
 0002:00005e50       ??_C@_1BG@HMMMJDJP@?$AAB?$AAe?$AAr?$AAc?$AAo?$AAn?$AAT?$AAi?$AAl?$AAe?$AA?$AA@ 0000000180050e50     BerconTile.obj
 0002:00005e70       ??_7BerconTileDlgProc@@6B@ 0000000180050e70     BerconTile.obj
 0002:00005eb0       ??_C@_1IM@NCODKBJH@?$AAc?$AA?3?$AA?2?$AAp?$AAr?$AAo?$AAg?$AAr?$AAa?$AAm?$AA?5?$AAf?$AAi?$AAl?$AAe?$AAs?$AA?5?$AA?$CI?$AAx?$AA8?$AA6?$AA?$CJ?$AA?2?$AAm?$AAi?$AAc?$AAr?$AAo?$AAs?$AAo?$AAf?$AAt@ 0000000180050eb0     BerconTile.obj
 0002:00005f40       ??_C@_1DM@LHGCHCBA@?$AAv?$AAe?$AAc?$AAt?$AAo?$AAr?$AA?5?$AAs?$AAu?$AAb?$AAs?$AAc?$AAr?$AAi?$AAp?$AAt?$AA?5?$AAo?$AAu?$AAt?$AA?5?$AAo?$AAf?$AA?5?$AAr?$AAa?$AAn?$AAg?$AAe?$AA?$AA@ 0000000180050f40     BerconTile.obj
 0002:00005f80       ??_C@_0CE@OFMIGAMM@Standard?5C?$CL?$CL?5Libraries?5Out?5of?5Ra@ 0000000180050f80     BerconTile.obj
 0002:00005fb0       ??_C@_1FG@IBPIFFN@?$AA?$CC?$AAS?$AAt?$AAa?$AAn?$AAd?$AAa?$AAr?$AAd?$AA?5?$AAC?$AA?$CL?$AA?$CL?$AA?5?$AAL?$AAi?$AAb?$AAr?$AAa?$AAr?$AAi?$AAe?$AAs?$AA?5?$AAO?$AAu?$AAt?$AA?5?$AAo?$AAf?$AA?5?$AAR@ 0000000180050fb0     BerconTile.obj
 0002:00006010       ??_C@_1JK@CCDJIDIF@?$AAs?$AAt?$AAd?$AA?3?$AA?3?$AAv?$AAe?$AAc?$AAt?$AAo?$AAr?$AA?$DM?$AAc?$AAl?$AAa?$AAs?$AAs?$AA?5?$AAT?$AAi?$AAl?$AAe?$AAR?$AAo?$AAw?$AA?0?$AAc?$AAl?$AAa?$AAs?$AAs?$AA?5@ 0000000180051010     BerconTile.obj
 0002:000060b0       ??_C@_1BO@MEPPHOO@?$AA?$CC?$AAo?$AAu?$AAt?$AA?5?$AAo?$AAf?$AA?5?$AAr?$AAa?$AAn?$AAg?$AAe?$AA?$CC?$AA?$AA@ 00000001800510b0     BerconTile.obj
 0002:000060d0       ??_C@_1HK@EJDBECKJ@?$AAs?$AAt?$AAd?$AA?3?$AA?3?$AAv?$AAe?$AAc?$AAt?$AAo?$AAr?$AA?$DM?$AAf?$AAl?$AAo?$AAa?$AAt?$AA?0?$AAc?$AAl?$AAa?$AAs?$AAs?$AA?5?$AAs?$AAt?$AAd?$AA?3?$AA?3?$AAa?$AAl?$AAl@ 00000001800510d0     BerconTile.obj
 0002:00006150       ??_C@_1IO@EADHKMNI@?$AAc?$AA?3?$AA?2?$AAp?$AAr?$AAo?$AAg?$AAr?$AAa?$AAm?$AA?5?$AAf?$AAi?$AAl?$AAe?$AAs?$AA?5?$AA?$CI?$AAx?$AA8?$AA6?$AA?$CJ?$AA?2?$AAm?$AAi?$AAc?$AAr?$AAo?$AAs?$AAo?$AAf?$AAt@ 0000000180051150     BerconTile.obj
 0002:000061e0       ??_C@_0BA@JFNIOLAK@string?5too?5long?$AA@ 00000001800511e0     BerconTile.obj
 0002:000061f0       ??_C@_0BI@CFPLBAOH@invalid?5string?5position?$AA@ 00000001800511f0     BerconTile.obj
 0002:00006208       ??_C@_1CK@EOPGIILJ@?$AAi?$AAn?$AAv?$AAa?$AAl?$AAi?$AAd?$AA?5?$AAn?$AAu?$AAl?$AAl?$AA?5?$AAp?$AAo?$AAi?$AAn?$AAt?$AAe?$AAr?$AA?$AA@ 0000000180051208     BerconTile.obj
 0002:00006234       __real@00000000            0000000180051234     BerconTile.obj
 0002:00006238       __real@3fd3333340000000    0000000180051238     BerconTile.obj
 0002:00006240       __real@4000000000000000    0000000180051240     BerconTile.obj
 0002:00006248       __real@4010000000000000    0000000180051248     BerconTile.obj
 0002:00006250       __real@4066800000000000    0000000180051250     BerconTile.obj
 0002:00006258       __real@42c80000            0000000180051258     BerconTile.obj
 0002:0000625c       __real@43340000            000000018005125c     BerconTile.obj
 0002:00006260       __real@43480000            0000000180051260     BerconTile.obj
 0002:00006264       __real@bf000000            0000000180051264     BerconTile.obj
 0002:00006ac8       ??_7BerconWood@@6BReferenceTarget@@@ 0000000180051ac8     BerconWood.obj
 0002:00007140       ??_7BerconWood@@6BISubMap@@@ 0000000180052140     BerconWood.obj
 0002:00007190       ??_7BerconWood@@6B@        0000000180052190     BerconWood.obj
 0002:000071c0       ??_7BerconWoodClassDesc@@6B@ 00000001800521c0     BerconWood.obj
 0002:00007358       ??_C@_1BG@GPLMDENA@?$AAB?$AAe?$AAr?$AAc?$AAo?$AAn?$AAW?$AAo?$AAo?$AAd?$AA?$AA@ 0000000180052358     BerconWood.obj
 0002:00007378       ??_7BerconCurveDlgProc@@6B@ 0000000180052378     BerconWood.obj
 0002:000073b8       ??_7BerconWoodDlgProc@@6B@ 00000001800523b8     BerconWood.obj
 0002:000073f0       __real@3c23d70a            00000001800523f0     BerconWood.obj
 0002:000073f4       __real@3d23d70a            00000001800523f4     BerconWood.obj
 0002:000073f8       __real@3e4ccccd            00000001800523f8     BerconWood.obj
 0002:000073fc       __real@3e78d4fe            00000001800523fc     BerconWood.obj
 0002:00007400       __real@3e800000            0000000180052400     BerconWood.obj
 0002:00007404       __real@3e99999a            0000000180052404     BerconWood.obj
 0002:00007408       __real@3eac8b44            0000000180052408     BerconWood.obj
 0002:0000740c       __real@3ec8b439            000000018005240c     BerconWood.obj
 0002:00007410       __real@3f0c8b44            0000000180052410     BerconWood.obj
 0002:00007414       __real@3f116873            0000000180052414     BerconWood.obj
 0002:00007418       __real@3f400000            0000000180052418     BerconWood.obj
 0002:0000741c       __real@3f449ba6            000000018005241c     BerconWood.obj
 0002:00007420       __real@3f50624dd2f1a9fc    0000000180052420     BerconWood.obj
 0002:00007428       __real@3f847ae140000000    0000000180052428     BerconWood.obj
 0002:00007430       __real@3fa47ae140000000    0000000180052430     BerconWood.obj
 0002:00007438       __real@3fc99999a0000000    0000000180052438     BerconWood.obj
 0002:00007440       __real@3fd0000000000000    0000000180052440     BerconWood.obj
 0002:00007448       __real@3fe0000000000000    0000000180052448     BerconWood.obj
 0002:00007450       __real@3fe8000000000000    0000000180052450     BerconWood.obj
 0002:00007458       __real@4014000000000000    0000000180052458     BerconWood.obj
 0002:00007460       __real@4028b0a3e0000000    0000000180052460     BerconWood.obj
 0002:00007468       __real@402e000000000000    0000000180052468     BerconWood.obj
 0002:00007470       __real@4145851f            0000000180052470     BerconWood.obj
 0002:00007474       __real@41700000            0000000180052474     BerconWood.obj
 0002:00007540       __real@43000000            0000000180052540     curvectrl.obj
 0002:00007544       __real@43800000            0000000180052544     curvectrl.obj
 0002:00007570       __real@0000000000000000    0000000180052570     fractal.obj
 0002:000075c8       __real@3f900000            00000001800525c8     noise.obj
 0002:000075cc       __real@4049999a            00000001800525cc     noise.obj
 0002:000075d0       __real@40b00000            00000001800525d0     noise.obj
 0002:000075d4       __real@40e33333            00000001800525d4     noise.obj
 0002:000075d8       __real@4129999a            00000001800525d8     noise.obj
 0002:000075dc       __real@439d1127            00000001800525dc     noise.obj
 0002:000075e0       __real@b8d1b717            00000001800525e0     noise.obj
 0002:000075e4       __real@3e0d8369            00000001800525e4     perlin.obj
 0002:000075e8       __real@3e2aaaab            00000001800525e8     perlin.obj
 0002:000075ec       __real@3e58658c            00000001800525ec     perlin.obj
 0002:000075f0       __real@3e8d8369            00000001800525f0     perlin.obj
 0002:000075f4       __real@3e9e377a            00000001800525f4     perlin.obj
 0002:000075f8       __real@3eaaaaab            00000001800525f8     perlin.obj
 0002:000075fc       __real@3ebb67ae            00000001800525fc     perlin.obj
 0002:00007600       __real@3eca4588            0000000180052600     perlin.obj
 0002:00007604       __real@3ed4451e            0000000180052604     perlin.obj
 0002:00007608       __real@3ed8658c            0000000180052608     perlin.obj
 0002:0000760c       __real@3f01cac1            000000018005260c     perlin.obj
 0002:00007610       __real@3f19999a            0000000180052610     perlin.obj
 0002:00007614       __real@3f5eb852            0000000180052614     perlin.obj
 0002:00007618       __real@3f6f9db2            0000000180052618     perlin.obj
 0002:0000761c       __real@3f7ff972            000000018005261c     perlin.obj
 0002:00007620       __real@3f99999a            0000000180052620     perlin.obj
 0002:00007624       __real@400ccccd            0000000180052624     perlin.obj
 0002:00007628       __real@40c00000            0000000180052628     perlin.obj
 0002:0000762c       __real@41200000            000000018005262c     perlin.obj
 0002:00007630       __real@41d80000            0000000180052630     perlin.obj
 0002:00007634       __real@42000000            0000000180052634     perlin.obj
 0002:00007638       __real@42200000            0000000180052638     perlin.obj
 0002:0000763c       __real@bee4f92e            000000018005263c     perlin.obj
 0002:00007640       __real@c0000000            0000000180052640     perlin.obj
 0002:00008310       ??_C@_1JA@MHADJNIL@?$AAc?$AA?3?$AA?2?$AAp?$AAr?$AAo?$AAg?$AAr?$AAa?$AAm?$AA?5?$AAf?$AAi?$AAl?$AAe?$AAs?$AA?5?$AA?$CI?$AAx?$AA8?$AA6?$AA?$CJ?$AA?2?$AAm?$AAi?$AAc?$AAr?$AAo?$AAs?$AAo?$AAf?$AAt@ 0000000180053310     tile.obj
 0002:000083a0       ??_C@_1DC@POOIKBAO@?$AAI?$AAT?$AAE?$AAR?$AAA?$AAT?$AAO?$AAR?$AA?5?$AAL?$AAI?$AAS?$AAT?$AA?5?$AAC?$AAO?$AAR?$AAR?$AAU?$AAP?$AAT?$AAE?$AAD?$AA?$CB?$AA?$AA@ 00000001800533a0     tile.obj
 0002:000083d8       ?npos@?$basic_string@_WU?$char_traits@_W@std@@V?$allocator@_W@2@@std@@2_KB 00000001800533d8     tile.obj
 0002:000083e8       ??_7?$basic_stringbuf@_WU?$char_traits@_W@std@@V?$allocator@_W@2@@std@@6B@ 00000001800533e8     tile.obj
 0002:00008468       ??_7?$basic_stringstream@_WU?$char_traits@_W@std@@V?$allocator@_W@2@@std@@6B@ 0000000180053468     tile.obj
 0002:00008470       ??_8?$basic_stringstream@_WU?$char_traits@_W@std@@V?$allocator@_W@2@@std@@7B?$basic_istream@_WU?$char_traits@_W@std@@@1@@ 0000000180053470     tile.obj
 0002:00008478       ??_8?$basic_stringstream@_WU?$char_traits@_W@std@@V?$allocator@_W@2@@std@@7B?$basic_ostream@_WU?$char_traits@_W@std@@@1@@ 0000000180053478     tile.obj
 0002:00008480       ??_C@_1BOI@OCMBMPPD@?$AAs?$AAt?$AAd?$AA?3?$AA?3?$AAv?$AAe?$AAc?$AAt?$AAo?$AAr?$AA?$DM?$AAc?$AAl?$AAa?$AAs?$AAs?$AA?5?$AAs?$AAt?$AAd?$AA?3?$AA?3?$AAb?$AAa?$AAs?$AAi?$AAc?$AA_?$AAs?$AAt?$AAr@ 0000000180053480     tile.obj
 0002:00008668       ??_C@_0BD@OLBABOEK@vector?$DMT?$DO?5too?5long?$AA@ 0000000180053668     tile.obj
 0002:0000867c       __real@3dfcb924            000000018005367c     tile.obj
 0002:00008680       __real@3f490fdb            0000000180053680     tile.obj
 0002:00008684       __real@3f9d70a4            0000000180053684     tile.obj
 0002:00008688       __real@3fa9999a            0000000180053688     tile.obj
 0002:0000868c       __real@3fb504f3            000000018005368c     tile.obj
 0002:00008690       __real@3fc00000            0000000180053690     tile.obj
 0002:00008694       __real@3fc90fdb            0000000180053694     tile.obj
 0002:00008698       __real@403f666666666666    0000000180053698     tile.obj
 0002:000086a0       __real@4048f5c3            00000001800536a0     tile.obj
 0002:000086a4       __real@41fb4c0b            00000001800536a4     tile.obj
 0002:000086a8       __real@bf800000            00000001800536a8     tile.obj
 0002:000086b0       __real@3df0000000000000    00000001800536b0     worley.obj
 0002:000086b8       __real@3fd97b4a2339c0ec    00000001800536b8     worley.obj
 0002:000086c0       __real@400417ca3f5539e6    00000001800536c0     worley.obj
 0002:000086c8       __real@412e847fcccccccd    00000001800536c8     worley.obj
 0002:000086d0       GUID_NULL                  00000001800536d0     uuid:cguid_i.obj
 0002:000086e8       ??_7type_info@@6B@         00000001800536e8     MSVCRTD:std_type_info_static.obj
 0002:000086f0       ??_C@_1BK@MGMFAEKH@?$AAk?$AAe?$AAr?$AAn?$AAe?$AAl?$AA3?$AA2?$AA?4?$AAd?$AAl?$AAl?$AA?$AA@ 00000001800536f0     MSVCRTD:thread_safe_statics.obj
 0002:00008710       ??_C@_0BM@HLJJNPAH@InitializeConditionVariable?$AA@ 0000000180053710     MSVCRTD:thread_safe_statics.obj
 0002:00008730       ??_C@_0BJ@JEBJOJFJ@SleepConditionVariableCS?$AA@ 0000000180053730     MSVCRTD:thread_safe_statics.obj
 0002:00008750       ??_C@_0BJ@PGPPEPCC@WakeAllConditionVariable?$AA@ 0000000180053750     MSVCRTD:thread_safe_statics.obj
 0002:00008770       ??_C@_1HK@LKKBAJNK@?$AAf?$AA?3?$AA?2?$AAd?$AAd?$AA?2?$AAv?$AAc?$AAt?$AAo?$AAo?$AAl?$AAs?$AA?2?$AAc?$AAr?$AAt?$AA?2?$AAv?$AAc?$AAs?$AAt?$AAa?$AAr?$AAt?$AAu?$AAp?$AA?2?$AAs?$AAr?$AAc?$AA?2@ 0000000180053770     MSVCRTD:thread_safe_statics.obj
 0002:000087f0       _pRawDllMain               00000001800537f0     MSVCRTD:dll_dllmain.obj
 0002:000087f0       _pDefaultRawDllMain        00000001800537f0     MSVCRTD:dll_dllmain.obj
 0002:00008810       ??_7exception@std@@6B@     0000000180053810     MSVCRTD:throw_bad_alloc.obj
 0002:00008820       ??_C@_0BC@EOODALEL@Unknown?5exception?$AA@ 0000000180053820     MSVCRTD:throw_bad_alloc.obj
 0002:00008840       ??_7bad_alloc@std@@6B@     0000000180053840     MSVCRTD:throw_bad_alloc.obj
 0002:00008850       ??_C@_0P@GHFPNOJB@bad?5allocation?$AA@ 0000000180053850     MSVCRTD:throw_bad_alloc.obj
 0002:00008868       ??_7bad_array_new_length@std@@6B@ 0000000180053868     MSVCRTD:throw_bad_alloc.obj
 0002:00008878       ??_C@_0BF@KINCDENJ@bad?5array?5new?5length?$AA@ 0000000180053878     MSVCRTD:throw_bad_alloc.obj
 0002:000088f0       _load_config_used          00000001800538f0     MSVCRTD:loadcfg.obj
 0002:00008988       _tls_used                  0000000180053988     MSVCRTD:tlssup.obj
 0002:000089b0       ??_R4TabOutOfRangeException@Util@MaxSDK@@6B@ 00000001800539b0     BerconDistortion.obj
 0002:000089d8       ??_R3TabOutOfRangeException@Util@MaxSDK@@8 00000001800539d8     BerconDistortion.obj
 0002:000089f0       ??_R2TabOutOfRangeException@Util@MaxSDK@@8 00000001800539f0     BerconDistortion.obj
 0002:00008a18       ??_R1A@?0A@EA@TabOutOfRangeException@Util@MaxSDK@@8 0000000180053a18     BerconDistortion.obj
 0002:00008a40       ??_R1A@?0A@EA@OutOfRangeException@Util@MaxSDK@@8 0000000180053a40     BerconDistortion.obj
 0002:00008a68       ??_R3OutOfRangeException@Util@MaxSDK@@8 0000000180053a68     BerconDistortion.obj
 0002:00008a80       ??_R2OutOfRangeException@Util@MaxSDK@@8 0000000180053a80     BerconDistortion.obj
 0002:00008aa0       ??_R1A@?0A@EA@Exception@Util@MaxSDK@@8 0000000180053aa0     BerconDistortion.obj
 0002:00008ac8       ??_R3Exception@Util@MaxSDK@@8 0000000180053ac8     BerconDistortion.obj
 0002:00008ae0       ??_R2Exception@Util@MaxSDK@@8 0000000180053ae0     BerconDistortion.obj
 0002:00008af8       ??_R17?0A@EA@MaxHeapOperators@@8 0000000180053af8     BerconDistortion.obj
 0002:00008b20       ??_R3MaxHeapOperators@@8   0000000180053b20     BerconDistortion.obj
 0002:00008b38       ??_R2MaxHeapOperators@@8   0000000180053b38     BerconDistortion.obj
 0002:00008b48       ??_R1A@?0A@EA@MaxHeapOperators@@8 0000000180053b48     BerconDistortion.obj
 0002:00008b70       ??_R1A@?0A@EA@InterfaceServer@@8 0000000180053b70     BerconDistortion.obj
 0002:00008b98       ??_R3InterfaceServer@@8    0000000180053b98     BerconDistortion.obj
 0002:00008bb0       ??_R2InterfaceServer@@8    0000000180053bb0     BerconDistortion.obj
 0002:00008bc8       ??_R4InterfaceServer@@6B@  0000000180053bc8     BerconDistortion.obj
 0002:00008bf0       ??_R4BaseInterfaceServer@@6B@ 0000000180053bf0     BerconDistortion.obj
 0002:00008c18       ??_R3BaseInterfaceServer@@8 0000000180053c18     BerconDistortion.obj
 0002:00008c30       ??_R2BaseInterfaceServer@@8 0000000180053c30     BerconDistortion.obj
 0002:00008c50       ??_R1A@?0A@EA@BaseInterfaceServer@@8 0000000180053c50     BerconDistortion.obj
 0002:00008c78       ??_R1A@?0A@EA@ReferenceTarget@@8 0000000180053c78     BerconDistortion.obj
 0002:00008ca0       ??_R3ReferenceTarget@@8    0000000180053ca0     BerconDistortion.obj
 0002:00008cb8       ??_R2ReferenceTarget@@8    0000000180053cb8     BerconDistortion.obj
 0002:00008cf8       ??_R1A@?0A@EA@ReferenceMaker@@8 0000000180053cf8     BerconDistortion.obj
 0002:00008d20       ??_R3ReferenceMaker@@8     0000000180053d20     BerconDistortion.obj
 0002:00008d38       ??_R2ReferenceMaker@@8     0000000180053d38     BerconDistortion.obj
 0002:00008d70       ??_R1A@?0A@EA@Animatable@@8 0000000180053d70     BerconDistortion.obj
 0002:00008d98       ??_R3Animatable@@8         0000000180053d98     BerconDistortion.obj
 0002:00008db0       ??_R2Animatable@@8         0000000180053db0     BerconDistortion.obj
 0002:00008de0       ??_R17?0A@EC@MaxHeapOperators@@8 0000000180053de0     BerconDistortion.obj
 0002:00008e08       ??_R18?0A@EA@Noncopyable@Util@MaxSDK@@8 0000000180053e08     BerconDistortion.obj
 0002:00008e30       ??_R3Noncopyable@Util@MaxSDK@@8 0000000180053e30     BerconDistortion.obj
 0002:00008e48       ??_R2Noncopyable@Util@MaxSDK@@8 0000000180053e48     BerconDistortion.obj
 0002:00008e60       ??_R1A@?0A@EA@Noncopyable@Util@MaxSDK@@8 0000000180053e60     BerconDistortion.obj
 0002:00008e88       ??_R18?0A@EC@MaxHeapOperators@@8 0000000180053e88     BerconDistortion.obj
 0002:00008eb0       ??_R1EI@?0A@EC@MaxHeapOperators@@8 0000000180053eb0     BerconDistortion.obj
 0002:00008ed8       ??_R4ParamMap2UserDlgProc@@6B@ 0000000180053ed8     BerconDistortion.obj
 0002:00008f00       ??_R3ParamMap2UserDlgProc@@8 0000000180053f00     BerconDistortion.obj
 0002:00008f18       ??_R2ParamMap2UserDlgProc@@8 0000000180053f18     BerconDistortion.obj
 0002:00008f30       ??_R1A@?0A@EA@ParamMap2UserDlgProc@@8 0000000180053f30     BerconDistortion.obj
 0002:00008f58       ??_R3ClassDesc@@8          0000000180053f58     BerconDistortion.obj
 0002:00008f70       ??_R2ClassDesc@@8          0000000180053f70     BerconDistortion.obj
 0002:00008f88       ??_R1A@?0A@EA@ClassDesc@@8 0000000180053f88     BerconDistortion.obj
 0002:00008fb0       ??_R4ShadeContext@@6B@     0000000180053fb0     BerconDistortion.obj
 0002:00008fd8       ??_R3ShadeContext@@8       0000000180053fd8     BerconDistortion.obj
 0002:00008ff0       ??_R2ShadeContext@@8       0000000180053ff0     BerconDistortion.obj
 0002:00009010       ??_R1A@?0A@EA@ShadeContext@@8 0000000180054010     BerconDistortion.obj
 0002:00009038       ??_R4ShadeOutput@@6B@      0000000180054038     BerconDistortion.obj
 0002:00009060       ??_R3ShadeOutput@@8        0000000180054060     BerconDistortion.obj
 0002:00009078       ??_R2ShadeOutput@@8        0000000180054078     BerconDistortion.obj
 0002:000090a0       ??_R1A@?0A@EA@ShadeOutput@@8 00000001800540a0     BerconDistortion.obj
 0002:000090c8       ??_R3ISubMap@@8            00000001800540c8     BerconDistortion.obj
 0002:000090e0       ??_R2ISubMap@@8            00000001800540e0     BerconDistortion.obj
 0002:000090f8       ??_R1A@?0A@EA@ISubMap@@8   00000001800540f8     BerconDistortion.obj
 0002:00009120       ??_R4XYZ_Desc@@6B@         0000000180054120     BerconDistortion.obj
 0002:00009148       ??_R3XYZ_Desc@@8           0000000180054148     BerconDistortion.obj
 0002:00009160       ??_R2XYZ_Desc@@8           0000000180054160     BerconDistortion.obj
 0002:00009190       ??_R1A@?0A@EA@XYZ_Desc@@8  0000000180054190     BerconDistortion.obj
 0002:000091b8       ??_R1A@?0A@EA@ParamBlockDesc2@@8 00000001800541b8     BerconDistortion.obj
 0002:000091e0       ??_R3ParamBlockDesc2@@8    00000001800541e0     BerconDistortion.obj
 0002:000091f8       ??_R2ParamBlockDesc2@@8    00000001800541f8     BerconDistortion.obj
 0002:00009220       ??_R4BerconXYZDlgProc@@6B@ 0000000180054220     BerconDistortion.obj
 0002:00009248       ??_R3BerconXYZDlgProc@@8   0000000180054248     BerconDistortion.obj
 0002:00009260       ??_R2BerconXYZDlgProc@@8   0000000180054260     BerconDistortion.obj
 0002:00009280       ??_R1A@?0A@EA@BerconXYZDlgProc@@8 0000000180054280     BerconDistortion.obj
 0002:000092a8       ??_R4BerconDistortion@@6BReferenceTarget@@@ 00000001800542a8     BerconDistortion.obj
 0002:000092d0       ??_R3BerconDistortion@@8   00000001800542d0     BerconDistortion.obj
 0002:000092f0       ??_R2BerconDistortion@@8   00000001800542f0     BerconDistortion.obj
 0002:00009358       ??_R1A@?0A@EA@BerconDistortion@@8 0000000180054358     BerconDistortion.obj
 0002:00009380       ??_R1A@?0A@EA@Texmap@@8    0000000180054380     BerconDistortion.obj
 0002:000093a8       ??_R3Texmap@@8             00000001800543a8     BerconDistortion.obj
 0002:000093c0       ??_R2Texmap@@8             00000001800543c0     BerconDistortion.obj
 0002:00009420       ??_R1A@?0A@EA@MtlBase@@8   0000000180054420     BerconDistortion.obj
 0002:00009448       ??_R3MtlBase@@8            0000000180054448     BerconDistortion.obj
 0002:00009460       ??_R2MtlBase@@8            0000000180054460     BerconDistortion.obj
 0002:000094b8       ??_R1EA@?0A@EA@ISubMap@@8  00000001800544b8     BerconDistortion.obj
 0002:000094e0       ??_R4BerconDistortion@@6BISubMap@@@ 00000001800544e0     BerconDistortion.obj
 0002:00009508       ??_R4BerconDistortionClassDesc@@6B@ 0000000180054508     BerconDistortion.obj
 0002:00009530       ??_R3BerconDistortionClassDesc@@8 0000000180054530     BerconDistortion.obj
 0002:00009548       ??_R2BerconDistortionClassDesc@@8 0000000180054548     BerconDistortion.obj
 0002:00009570       ??_R1A@?0A@EA@BerconDistortionClassDesc@@8 0000000180054570     BerconDistortion.obj
 0002:00009598       ??_R1A@?0A@EA@ClassDesc2@@8 0000000180054598     BerconDistortion.obj
 0002:000095c0       ??_R3ClassDesc2@@8         00000001800545c0     BerconDistortion.obj
 0002:000095d8       ??_R2ClassDesc2@@8         00000001800545d8     BerconDistortion.obj
 0002:000095f8       ??_R4BerconSC@@6B@         00000001800545f8     BerconDistortion.obj
 0002:00009620       ??_R3BerconSC@@8           0000000180054620     BerconDistortion.obj
 0002:00009638       ??_R2BerconSC@@8           0000000180054638     BerconDistortion.obj
 0002:00009660       ??_R1A@?0A@EA@BerconSC@@8  0000000180054660     BerconDistortion.obj
 0002:00009688       ??_R4ICustomControl@@6B@   0000000180054688     BerconGradient.obj
 0002:000096b0       ??_R3ICustomControl@@8     00000001800546b0     BerconGradient.obj
 0002:000096c8       ??_R2ICustomControl@@8     00000001800546c8     BerconGradient.obj
 0002:000096e8       ??_R1A@?0A@EA@ICustomControl@@8 00000001800546e8     BerconGradient.obj
 0002:00009710       ??_R4ResourceMakerCallback@@6B@ 0000000180054710     BerconGradient.obj
 0002:00009738       ??_R3ResourceMakerCallback@@8 0000000180054738     BerconGradient.obj
 0002:00009750       ??_R2ResourceMakerCallback@@8 0000000180054750     BerconGradient.obj
 0002:00009768       ??_R1A@?0A@EA@ResourceMakerCallback@@8 0000000180054768     BerconGradient.obj
 0002:00009790       ??_R4GradientMap@@6B@      0000000180054790     BerconGradient.obj
 0002:000097b8       ??_R3GradientMap@@8        00000001800547b8     BerconGradient.obj
 0002:000097d0       ??_R2GradientMap@@8        00000001800547d0     BerconGradient.obj
 0002:000097e0       ??_R1A@?0A@EA@GradientMap@@8 00000001800547e0     BerconGradient.obj
 0002:00009808       ??_R4IGradient@@6B@        0000000180054808     BerconGradient.obj
 0002:00009830       ??_R3IGradient@@8          0000000180054830     BerconGradient.obj
 0002:00009848       ??_R2IGradient@@8          0000000180054848     BerconGradient.obj
 0002:00009870       ??_R1A@?0A@EA@IGradient@@8 0000000180054870     BerconGradient.obj
 0002:00009898       ??_R4BerconGradient@@6BReferenceTarget@@@ 0000000180054898     BerconGradient.obj
 0002:000098c0       ??_R3BerconGradient@@8     00000001800548c0     BerconGradient.obj
 0002:000098e0       ??_R2BerconGradient@@8     00000001800548e0     BerconGradient.obj
 0002:00009960       ??_R1A@?0A@EA@BerconGradient@@8 0000000180054960     BerconGradient.obj
 0002:00009988       ??_R1II@?0A@EA@GradientMap@@8 0000000180054988     BerconGradient.obj
 0002:000099b0       ??_R1JA@?0A@EA@ResourceMakerCallback@@8 00000001800549b0     BerconGradient.obj
 0002:000099d8       ??_R1JI@?0A@EC@MaxHeapOperators@@8 00000001800549d8     BerconGradient.obj
 0002:00009a00       ??_R4BerconGradient@@6BISubMap@@@ 0000000180054a00     BerconGradient.obj
 0002:00009a28       ??_R4BerconGradient@@6BGradientMap@@@ 0000000180054a28     BerconGradient.obj
 0002:00009a50       ??_R4BerconGradient@@6BResourceMakerCallback@@@ 0000000180054a50     BerconGradient.obj
 0002:00009a78       ??_R4BerconGradientClassDesc@@6B@ 0000000180054a78     BerconGradient.obj
 0002:00009aa0       ??_R3BerconGradientClassDesc@@8 0000000180054aa0     BerconGradient.obj
 0002:00009ab8       ??_R2BerconGradientClassDesc@@8 0000000180054ab8     BerconGradient.obj
 0002:00009ae0       ??_R1A@?0A@EA@BerconGradientClassDesc@@8 0000000180054ae0     BerconGradient.obj
 0002:00009b08       ??_R4BerconCurveDlgProcGRADIENT@@6B@ 0000000180054b08     BerconGradient.obj
 0002:00009b30       ??_R3BerconCurveDlgProcGRADIENT@@8 0000000180054b30     BerconGradient.obj
 0002:00009b48       ??_R2BerconCurveDlgProcGRADIENT@@8 0000000180054b48     BerconGradient.obj
 0002:00009b68       ??_R1A@?0A@EA@BerconCurveDlgProcGRADIENT@@8 0000000180054b68     BerconGradient.obj
 0002:00009b90       ??_R4BerconGradientDlgProc@@6B@ 0000000180054b90     BerconGradient.obj
 0002:00009bb8       ??_R3BerconGradientDlgProc@@8 0000000180054bb8     BerconGradient.obj
 0002:00009bd0       ??_R2BerconGradientDlgProc@@8 0000000180054bd0     BerconGradient.obj
 0002:00009bf0       ??_R1A@?0A@EA@BerconGradientDlgProc@@8 0000000180054bf0     BerconGradient.obj
 0002:00009c18       ??_R4BerconNoise@@6BReferenceTarget@@@ 0000000180054c18     BerconNoise.obj
 0002:00009c40       ??_R3BerconNoise@@8        0000000180054c40     BerconNoise.obj
 0002:00009c60       ??_R2BerconNoise@@8        0000000180054c60     BerconNoise.obj
 0002:00009cd8       ??_R1A@?0A@EA@BerconNoise@@8 0000000180054cd8     BerconNoise.obj
 0002:00009d00       ??_R4BerconNoise@@6BISubMap@@@ 0000000180054d00     BerconNoise.obj
 0002:00009d28       ??_R4BerconNoise@@6B@      0000000180054d28     BerconNoise.obj
 0002:00009d50       ??_R4BerconNoiseClassDesc@@6B@ 0000000180054d50     BerconNoise.obj
 0002:00009d78       ??_R3BerconNoiseClassDesc@@8 0000000180054d78     BerconNoise.obj
 0002:00009d90       ??_R2BerconNoiseClassDesc@@8 0000000180054d90     BerconNoise.obj
 0002:00009db8       ??_R1A@?0A@EA@BerconNoiseClassDesc@@8 0000000180054db8     BerconNoise.obj
 0002:00009de0       ??_R4BerconCurveDlgProcNOISE@@6B@ 0000000180054de0     BerconNoise.obj
 0002:00009e08       ??_R3BerconCurveDlgProcNOISE@@8 0000000180054e08     BerconNoise.obj
 0002:00009e20       ??_R2BerconCurveDlgProcNOISE@@8 0000000180054e20     BerconNoise.obj
 0002:00009e40       ??_R1A@?0A@EA@BerconCurveDlgProcNOISE@@8 0000000180054e40     BerconNoise.obj
 0002:00009e68       ??_R4BerconNoiseDlgProc@@6B@ 0000000180054e68     BerconNoise.obj
 0002:00009e90       ??_R3BerconNoiseDlgProc@@8 0000000180054e90     BerconNoise.obj
 0002:00009ea8       ??_R2BerconNoiseDlgProc@@8 0000000180054ea8     BerconNoise.obj
 0002:00009ec8       ??_R1A@?0A@EA@BerconNoiseDlgProc@@8 0000000180054ec8     BerconNoise.obj
 0002:00009ef0       ??_R4BerconTile@@6BReferenceTarget@@@ 0000000180054ef0     BerconTile.obj
 0002:00009f18       ??_R3BerconTile@@8         0000000180054f18     BerconTile.obj
 0002:00009f30       ??_R2BerconTile@@8         0000000180054f30     BerconTile.obj
 0002:00009fa8       ??_R1A@?0A@EA@BerconTile@@8 0000000180054fa8     BerconTile.obj
 0002:00009fd0       ??_R4BerconTile@@6BISubMap@@@ 0000000180054fd0     BerconTile.obj
 0002:00009ff8       ??_R4BerconTile@@6B@       0000000180054ff8     BerconTile.obj
 0002:0000a020       ??_R4BerconTileClassDesc@@6B@ 0000000180055020     BerconTile.obj
 0002:0000a048       ??_R3BerconTileClassDesc@@8 0000000180055048     BerconTile.obj
 0002:0000a060       ??_R2BerconTileClassDesc@@8 0000000180055060     BerconTile.obj
 0002:0000a088       ??_R1A@?0A@EA@BerconTileClassDesc@@8 0000000180055088     BerconTile.obj
 0002:0000a0b0       ??_R4BerconTileDlgProc@@6B@ 00000001800550b0     BerconTile.obj
 0002:0000a0d8       ??_R3BerconTileDlgProc@@8  00000001800550d8     BerconTile.obj
 0002:0000a0f0       ??_R2BerconTileDlgProc@@8  00000001800550f0     BerconTile.obj
 0002:0000a110       ??_R1A@?0A@EA@BerconTileDlgProc@@8 0000000180055110     BerconTile.obj
 0002:0000a138       ??_R4BerconWood@@6BReferenceTarget@@@ 0000000180055138     BerconWood.obj
 0002:0000a160       ??_R3BerconWood@@8         0000000180055160     BerconWood.obj
 0002:0000a180       ??_R2BerconWood@@8         0000000180055180     BerconWood.obj
 0002:0000a1f8       ??_R1A@?0A@EA@BerconWood@@8 00000001800551f8     BerconWood.obj
 0002:0000a220       ??_R4BerconWood@@6BISubMap@@@ 0000000180055220     BerconWood.obj
 0002:0000a248       ??_R4BerconWood@@6B@       0000000180055248     BerconWood.obj
 0002:0000a270       ??_R4BerconWoodClassDesc@@6B@ 0000000180055270     BerconWood.obj
 0002:0000a298       ??_R3BerconWoodClassDesc@@8 0000000180055298     BerconWood.obj
 0002:0000a2b0       ??_R2BerconWoodClassDesc@@8 00000001800552b0     BerconWood.obj
 0002:0000a2d8       ??_R1A@?0A@EA@BerconWoodClassDesc@@8 00000001800552d8     BerconWood.obj
 0002:0000a300       ??_R4BerconCurveDlgProc@@6B@ 0000000180055300     BerconWood.obj
 0002:0000a328       ??_R3BerconCurveDlgProc@@8 0000000180055328     BerconWood.obj
 0002:0000a340       ??_R2BerconCurveDlgProc@@8 0000000180055340     BerconWood.obj
 0002:0000a360       ??_R1A@?0A@EA@BerconCurveDlgProc@@8 0000000180055360     BerconWood.obj
 0002:0000a388       ??_R4BerconWoodDlgProc@@6B@ 0000000180055388     BerconWood.obj
 0002:0000a3b0       ??_R3BerconWoodDlgProc@@8  00000001800553b0     BerconWood.obj
 0002:0000a3c8       ??_R2BerconWoodDlgProc@@8  00000001800553c8     BerconWood.obj
 0002:0000a3e8       ??_R1A@?0A@EA@BerconWoodDlgProc@@8 00000001800553e8     BerconWood.obj
 0002:0000a410       ??_R4?$basic_stringbuf@_WU?$char_traits@_W@std@@V?$allocator@_W@2@@std@@6B@ 0000000180055410     tile.obj
 0002:0000a438       ??_R3?$basic_stringbuf@_WU?$char_traits@_W@std@@V?$allocator@_W@2@@std@@8 0000000180055438     tile.obj
 0002:0000a450       ??_R2?$basic_stringbuf@_WU?$char_traits@_W@std@@V?$allocator@_W@2@@std@@8 0000000180055450     tile.obj
 0002:0000a468       ??_R1A@?0A@EA@?$basic_stringbuf@_WU?$char_traits@_W@std@@V?$allocator@_W@2@@std@@8 0000000180055468     tile.obj
 0002:0000a490       ??_R1A@?0A@EA@?$basic_streambuf@_WU?$char_traits@_W@std@@@std@@8 0000000180055490     tile.obj
 0002:0000a4b8       ??_R3?$basic_streambuf@_WU?$char_traits@_W@std@@@std@@8 00000001800554b8     tile.obj
 0002:0000a4d0       ??_R2?$basic_streambuf@_WU?$char_traits@_W@std@@@std@@8 00000001800554d0     tile.obj
 0002:0000a4e0       ??_R4?$basic_stringstream@_WU?$char_traits@_W@std@@V?$allocator@_W@2@@std@@6B@ 00000001800554e0     tile.obj
 0002:0000a508       ??_R3?$basic_stringstream@_WU?$char_traits@_W@std@@V?$allocator@_W@2@@std@@8 0000000180055508     tile.obj
 0002:0000a520       ??_R2?$basic_stringstream@_WU?$char_traits@_W@std@@V?$allocator@_W@2@@std@@8 0000000180055520     tile.obj
 0002:0000a578       ??_R1A@?0A@EA@?$basic_stringstream@_WU?$char_traits@_W@std@@V?$allocator@_W@2@@std@@8 0000000180055578     tile.obj
 0002:0000a5a0       ??_R1A@?0A@EA@?$basic_iostream@_WU?$char_traits@_W@std@@@std@@8 00000001800555a0     tile.obj
 0002:0000a5c8       ??_R3?$basic_iostream@_WU?$char_traits@_W@std@@@std@@8 00000001800555c8     tile.obj
 0002:0000a5e0       ??_R2?$basic_iostream@_WU?$char_traits@_W@std@@@std@@8 00000001800555e0     tile.obj
 0002:0000a630       ??_R1A@?0A@EA@?$basic_istream@_WU?$char_traits@_W@std@@@std@@8 0000000180055630     tile.obj
 0002:0000a658       ??_R3?$basic_istream@_WU?$char_traits@_W@std@@@std@@8 0000000180055658     tile.obj
 0002:0000a670       ??_R2?$basic_istream@_WU?$char_traits@_W@std@@@std@@8 0000000180055670     tile.obj
 0002:0000a698       ??_R1A@A@3FA@?$basic_ios@_WU?$char_traits@_W@std@@@std@@8 0000000180055698     tile.obj
 0002:0000a6c0       ??_R3?$basic_ios@_WU?$char_traits@_W@std@@@std@@8 00000001800556c0     tile.obj
 0002:0000a6d8       ??_R2?$basic_ios@_WU?$char_traits@_W@std@@@std@@8 00000001800556d8     tile.obj
 0002:0000a6f8       ??_R1A@?0A@EA@?$basic_ios@_WU?$char_traits@_W@std@@@std@@8 00000001800556f8     tile.obj
 0002:0000a720       ??_R1A@?0A@EA@ios_base@std@@8 0000000180055720     tile.obj
 0002:0000a748       ??_R3ios_base@std@@8       0000000180055748     tile.obj
 0002:0000a760       ??_R2ios_base@std@@8       0000000180055760     tile.obj
 0002:0000a778       ??_R17?0A@EA@?$_Iosb@H@std@@8 0000000180055778     tile.obj
 0002:0000a7a0       ??_R3?$_Iosb@H@std@@8      00000001800557a0     tile.obj
 0002:0000a7b8       ??_R2?$_Iosb@H@std@@8      00000001800557b8     tile.obj
 0002:0000a7c8       ??_R1A@?0A@EA@?$_Iosb@H@std@@8 00000001800557c8     tile.obj
 0002:0000a7f0       ??_R1A@A@3EA@ios_base@std@@8 00000001800557f0     tile.obj
 0002:0000a818       ??_R17A@3EA@?$_Iosb@H@std@@8 0000000180055818     tile.obj
 0002:0000a840       ??_R1BA@?0A@EA@?$basic_ostream@_WU?$char_traits@_W@std@@@std@@8 0000000180055840     tile.obj
 0002:0000a868       ??_R3?$basic_ostream@_WU?$char_traits@_W@std@@@std@@8 0000000180055868     tile.obj
 0002:0000a880       ??_R2?$basic_ostream@_WU?$char_traits@_W@std@@@std@@8 0000000180055880     tile.obj
 0002:0000a8a8       ??_R1A@?0A@EA@?$basic_ostream@_WU?$char_traits@_W@std@@@std@@8 00000001800558a8     tile.obj
 0002:0000a8d0       ??_R4type_info@@6B@        00000001800558d0     MSVCRTD:std_type_info_static.obj
 0002:0000a8f8       ??_R3type_info@@8          00000001800558f8     MSVCRTD:std_type_info_static.obj
 0002:0000a910       ??_R2type_info@@8          0000000180055910     MSVCRTD:std_type_info_static.obj
 0002:0000a920       ??_R1A@?0A@EA@type_info@@8 0000000180055920     MSVCRTD:std_type_info_static.obj
 0002:0000a948       ??_R4exception@std@@6B@    0000000180055948     MSVCRTD:throw_bad_alloc.obj
 0002:0000a970       ??_R3exception@std@@8      0000000180055970     MSVCRTD:throw_bad_alloc.obj
 0002:0000a988       ??_R2exception@std@@8      0000000180055988     MSVCRTD:throw_bad_alloc.obj
 0002:0000a998       ??_R1A@?0A@EA@exception@std@@8 0000000180055998     MSVCRTD:throw_bad_alloc.obj
 0002:0000a9c0       ??_R4bad_alloc@std@@6B@    00000001800559c0     MSVCRTD:throw_bad_alloc.obj
 0002:0000a9e8       ??_R3bad_alloc@std@@8      00000001800559e8     MSVCRTD:throw_bad_alloc.obj
 0002:0000aa00       ??_R2bad_alloc@std@@8      0000000180055a00     MSVCRTD:throw_bad_alloc.obj
 0002:0000aa18       ??_R1A@?0A@EA@bad_alloc@std@@8 0000000180055a18     MSVCRTD:throw_bad_alloc.obj
 0002:0000aa40       ??_R4bad_array_new_length@std@@6B@ 0000000180055a40     MSVCRTD:throw_bad_alloc.obj
 0002:0000aa68       ??_R3bad_array_new_length@std@@8 0000000180055a68     MSVCRTD:throw_bad_alloc.obj
 0002:0000aa80       ??_R2bad_array_new_length@std@@8 0000000180055a80     MSVCRTD:throw_bad_alloc.obj
 0002:0000aaa0       ??_R1A@?0A@EA@bad_array_new_length@std@@8 0000000180055aa0     MSVCRTD:throw_bad_alloc.obj
 0002:0000ae88       __rtc_iaa                  0000000180055e88     MSVCRTD:_initsect_.obj
 0002:0000ae90       __rtc_izz                  0000000180055e90     MSVCRTD:_initsect_.obj
 0002:0000ae98       __rtc_taa                  0000000180055e98     MSVCRTD:_initsect_.obj
 0002:0000aea0       __rtc_tzz                  0000000180055ea0     MSVCRTD:_initsect_.obj
 0002:0000dec0       _CT??_R0?AVMaxHeapOperators@@@818 0000000180058ec0     BerconDistortion.obj
 0002:0000dee8       _TI4?AVTabOutOfRangeException@Util@MaxSDK@@ 0000000180058ee8     BerconDistortion.obj
 0002:0000df08       _CTA4?AVTabOutOfRangeException@Util@MaxSDK@@ 0000000180058f08     BerconDistortion.obj
 0002:0000df30       _CT??_R0?AVTabOutOfRangeException@Util@MaxSDK@@@8??0TabOutOfRangeException@Util@MaxSDK@@QEAA@AEBV012@@Z16 0000000180058f30     BerconDistortion.obj
 0002:0000df58       _CT??_R0?AVOutOfRangeException@Util@MaxSDK@@@8??0OutOfRangeException@Util@MaxSDK@@QEAA@AEBV012@@Z16 0000000180058f58     BerconDistortion.obj
 0002:0000df80       _CT??_R0?AVException@Util@MaxSDK@@@8??0Exception@Util@MaxSDK@@QEAA@AEBV012@@Z16 0000000180058f80     BerconDistortion.obj
 0002:0000dfa8       _TI2?AVbad_alloc@std@@     0000000180058fa8     MSVCRTD:throw_bad_alloc.obj
 0002:0000dfc8       _CTA2?AVbad_alloc@std@@    0000000180058fc8     MSVCRTD:throw_bad_alloc.obj
 0002:0000dfe0       _CT??_R0?AVbad_alloc@std@@@8??0bad_alloc@std@@QEAA@AEBV01@@Z24 0000000180058fe0     MSVCRTD:throw_bad_alloc.obj
 0002:0000e008       _CT??_R0?AVexception@std@@@8??0exception@std@@QEAA@AEBV01@@Z24 0000000180059008     MSVCRTD:throw_bad_alloc.obj
 0002:0000e030       _TI3?AVbad_array_new_length@std@@ 0000000180059030     MSVCRTD:throw_bad_alloc.obj
 0002:0000e050       _CTA3?AVbad_array_new_length@std@@ 0000000180059050     MSVCRTD:throw_bad_alloc.obj
 0002:0000e070       _CT??_R0?AVbad_array_new_length@std@@@8??0bad_array_new_length@std@@QEAA@AEBV01@@Z24 0000000180059070     MSVCRTD:throw_bad_alloc.obj
 0002:0000e16c       __IMPORT_DESCRIPTOR_core   000000018005916c     core:core.dll
 0002:0000e180       __IMPORT_DESCRIPTOR_geom   0000000180059180     geom:geom.dll
 0002:0000e194       __IMPORT_DESCRIPTOR_maxutil 0000000180059194     maxutil:maxutil.dll
 0002:0000e1a8       __IMPORT_DESCRIPTOR_ParamBlk2 00000001800591a8     paramblk2:ParamBlk2.dll
 0002:0000e1bc       __IMPORT_DESCRIPTOR_KERNEL32 00000001800591bc     kernel32:KERNEL32.dll
 0002:0000e1d0       __IMPORT_DESCRIPTOR_USER32 00000001800591d0     user32:USER32.dll
 0002:0000e1e4       __IMPORT_DESCRIPTOR_MSVCP140D 00000001800591e4     msvcprtd:MSVCP140D.dll
 0002:0000e1f8       __IMPORT_DESCRIPTOR_VCRUNTIME140D 00000001800591f8     vcruntimed:VCRUNTIME140D.dll
 0002:0000e20c       __IMPORT_DESCRIPTOR_ucrtbased 000000018005920c     ucrtd:ucrtbased.dll
 0002:0000e220       __NULL_IMPORT_DESCRIPTOR   0000000180059220     core:core.dll
 0003:000004b0       __security_cookie          000000018005d4b0     MSVCRTD:gs_cookie.obj
 0003:000004b8       __security_cookie_complement 000000018005d4b8     MSVCRTD:gs_cookie.obj
 0003:000004c0       _fltused                   000000018005d4c0     MSVCRTD:dllsupp.obj
 0003:000004c4       __scrt_native_dllmain_reason 000000018005d4c4     MSVCRTD:utility.obj
 0003:000004c8       _Init_global_epoch         000000018005d4c8     MSVCRTD:thread_safe_statics.obj
 0003:000004d0       __isa_available            000000018005d4d0     MSVCRTD:_cpu_disp_.obj
 0003:000004d4       __isa_enabled              000000018005d4d4     MSVCRTD:_cpu_disp_.obj
 0003:000004d8       __memcpy_nt_iters          000000018005d4d8     MSVCRTD:_cpu_disp_.obj
 0003:000004e0       __scrt_ucrt_dll_is_in_use  000000018005d4e0     MSVCRTD:ucrt_stubs.obj
 0003:000004f0       ??_R0?AVClassDesc2@@@8     000000018005d4f0     BerconDistortion.obj
 0003:00000518       ??_R0?AVMaxHeapOperators@@@8 000000018005d518     BerconDistortion.obj
 0003:00000540       ??_R0?AVTabOutOfRangeException@Util@MaxSDK@@@8 000000018005d540     BerconDistortion.obj
 0003:00000580       ??_R0?AVOutOfRangeException@Util@MaxSDK@@@8 000000018005d580     BerconDistortion.obj
 0003:000005b8       ??_R0?AVException@Util@MaxSDK@@@8 000000018005d5b8     BerconDistortion.obj
 0003:000005e8       ??_R0?AVInterfaceServer@@@8 000000018005d5e8     BerconDistortion.obj
 0003:00000610       ??_R0?AVBaseInterfaceServer@@@8 000000018005d610     BerconDistortion.obj
 0003:00000640       ??_R0?AVReferenceTarget@@@8 000000018005d640     BerconDistortion.obj
 0003:00000668       ??_R0?AVReferenceMaker@@@8 000000018005d668     BerconDistortion.obj
 0003:00000690       ??_R0?AVAnimatable@@@8     000000018005d690     BerconDistortion.obj
 0003:000006b8       ??_R0?AVNoncopyable@Util@MaxSDK@@@8 000000018005d6b8     BerconDistortion.obj
 0003:000006e8       ??_R0?AVParamMap2UserDlgProc@@@8 000000018005d6e8     BerconDistortion.obj
 0003:00000718       ??_R0?AVClassDesc@@@8      000000018005d718     BerconDistortion.obj
 0003:00000738       ??_R0?AVShadeContext@@@8   000000018005d738     BerconDistortion.obj
 0003:00000760       ??_R0?AVShadeOutput@@@8    000000018005d760     BerconDistortion.obj
 0003:00000788       ??_R0?AVISubMap@@@8        000000018005d788     BerconDistortion.obj
 0003:000007a8       ??_R0?AVXYZ_Desc@@@8       000000018005d7a8     BerconDistortion.obj
 0003:000007c8       ??_R0?AVParamBlockDesc2@@@8 000000018005d7c8     BerconDistortion.obj
 0003:000007f0       ??_R0?AVBerconXYZDlgProc@@@8 000000018005d7f0     BerconDistortion.obj
 0003:00000818       ??_R0?AVBerconDistortion@@@8 000000018005d818     BerconDistortion.obj
 0003:00000840       ??_R0?AVTexmap@@@8         000000018005d840     BerconDistortion.obj
 0003:00000860       ??_R0?AVMtlBase@@@8        000000018005d860     BerconDistortion.obj
 0003:00000880       ??_R0?AVBerconDistortionClassDesc@@@8 000000018005d880     BerconDistortion.obj
 0003:000008b0       ??_R0?AVBerconSC@@@8       000000018005d8b0     BerconDistortion.obj
 0003:000008d0       ??_R0?AVICustomControl@@@8 000000018005d8d0     BerconGradient.obj
 0003:000008f8       ??_R0?AVResourceMakerCallback@@@8 000000018005d8f8     BerconGradient.obj
 0003:00000928       ??_R0?AVGradientMap@@@8    000000018005d928     BerconGradient.obj
 0003:00000950       ??_R0?AVIGradient@@@8      000000018005d950     BerconGradient.obj
 0003:00000970       ??_R0?AVBerconGradient@@@8 000000018005d970     BerconGradient.obj
 0003:00000998       ??_R0?AVBerconGradientClassDesc@@@8 000000018005d998     BerconGradient.obj
 0003:000009c8       ??_R0?AVBerconCurveDlgProcGRADIENT@@@8 000000018005d9c8     BerconGradient.obj
 0003:00000a00       ??_R0?AVBerconGradientDlgProc@@@8 000000018005da00     BerconGradient.obj
 0003:00000a30       ??_R0?AVBerconNoise@@@8    000000018005da30     BerconNoise.obj
 0003:00000a58       ??_R0?AVBerconNoiseClassDesc@@@8 000000018005da58     BerconNoise.obj
 0003:00000a88       ??_R0?AVBerconCurveDlgProcNOISE@@@8 000000018005da88     BerconNoise.obj
 0003:00000ab8       ??_R0?AVBerconNoiseDlgProc@@@8 000000018005dab8     BerconNoise.obj
 0003:00000ae8       ??_R0?AVBerconTile@@@8     000000018005dae8     BerconTile.obj
 0003:00000b10       ??_R0?AVBerconTileClassDesc@@@8 000000018005db10     BerconTile.obj
 0003:00000b40       ??_R0?AVBerconTileDlgProc@@@8 000000018005db40     BerconTile.obj
 0003:00000b68       ??_R0?AVBerconWood@@@8     000000018005db68     BerconWood.obj
 0003:00000b90       ??_R0?AVBerconWoodClassDesc@@@8 000000018005db90     BerconWood.obj
 0003:00000bc0       ??_R0?AVBerconCurveDlgProc@@@8 000000018005dbc0     BerconWood.obj
 0003:00000bf0       ??_R0?AVBerconWoodDlgProc@@@8 000000018005dbf0     BerconWood.obj
 0003:00000c20       ??_R0?AV?$basic_stringbuf@_WU?$char_traits@_W@std@@V?$allocator@_W@2@@std@@@8 000000018005dc20     tile.obj
 0003:00000c80       ??_R0?AV?$basic_streambuf@_WU?$char_traits@_W@std@@@std@@@8 000000018005dc80     tile.obj
 0003:00000cd0       ??_R0?AV?$basic_stringstream@_WU?$char_traits@_W@std@@V?$allocator@_W@2@@std@@@8 000000018005dcd0     tile.obj
 0003:00000d30       ??_R0?AV?$basic_iostream@_WU?$char_traits@_W@std@@@std@@@8 000000018005dd30     tile.obj
 0003:00000d80       ??_R0?AV?$basic_istream@_WU?$char_traits@_W@std@@@std@@@8 000000018005dd80     tile.obj
 0003:00000dd0       ??_R0?AV?$basic_ios@_WU?$char_traits@_W@std@@@std@@@8 000000018005ddd0     tile.obj
 0003:00000e10       ??_R0?AVios_base@std@@@8   000000018005de10     tile.obj
 0003:00000e38       ??_R0?AV?$_Iosb@H@std@@@8  000000018005de38     tile.obj
 0003:00000e60       ??_R0?AV?$basic_ostream@_WU?$char_traits@_W@std@@@std@@@8 000000018005de60     tile.obj
 0003:00000ea8       ??_R0?AVtype_info@@@8      000000018005dea8     MSVCRTD:std_type_info_static.obj
 0003:00000ec8       ??_R0?AVbad_alloc@std@@@8  000000018005dec8     MSVCRTD:throw_bad_alloc.obj
 0003:00000ef0       ??_R0?AVexception@std@@@8  000000018005def0     MSVCRTD:throw_bad_alloc.obj
 0003:00000f18       ??_R0?AVbad_array_new_length@std@@@8 000000018005df18     MSVCRTD:throw_bad_alloc.obj
 0003:00000f50       ?controlsInit@@3HA         000000018005df50     DllEntry.obj
 0003:00000f58       ?hInstance@@3PEAUHINSTANCE__@@EA 000000018005df58     DllEntry.obj
 0003:00001310       ?texoutDlg@BerconGradient@@2PEAVParamDlg@@EA 000000018005e310     BerconGradient.obj
 0003:00001560       ?texoutDlg@BerconNoise@@2PEAVParamDlg@@EA 000000018005e560     BerconNoise.obj
 0003:000017e0       ?texoutDlg@BerconTile@@2PEAVParamDlg@@EA 000000018005e7e0     BerconTile.obj
 0003:000019e0       ?texoutDlg@BerconWood@@2PEAVParamDlg@@EA 000000018005e9e0     BerconWood.obj
 0003:00001d18       __scrt_current_native_startup_state 000000018005ed18     MSVCRTD:utility.obj
 0003:00001d20       __scrt_native_startup_lock 000000018005ed20     MSVCRTD:utility.obj
 0003:00001da8       _tls_index                 000000018005eda8     MSVCRTD:tlssup.obj
 0003:00002320       __favor                    000000018005f320     MSVCRTD:_cpu_disp_.obj
 0003:00002324       __scrt_debugger_hook_flag  000000018005f324     MSVCRTD:utility_desktop.obj
 0003:00002330       ?__type_info_root_node@@3U__type_info_node@@A 000000018005f330     MSVCRTD:tncleanup.obj
 0003:00002340       ?_OptionsStorage@?1??__local_stdio_printf_options@@9@4_KA 000000018005f340     MSVCRTD:default_local_stdio_options.obj
 0003:00002348       ?_OptionsStorage@?1??__local_stdio_scanf_options@@9@4_KA 000000018005f348     MSVCRTD:default_local_stdio_options.obj
 0003:00002350       __dyn_tls_init_callback    000000018005f350     <common>
 0006:00000000       _tls_start                 0000000180065000     MSVCRTD:tlssup.obj
 0006:00000004       _Init_thread_epoch         0000000180065004     MSVCRTD:thread_safe_statics.obj
 0006:00000008       _tls_end                   0000000180065008     MSVCRTD:tlssup.obj

 entry point at        0001:00047b90

 Static symbols

 0000:fff7d000       .debug$S                   0000000180000000     geom:geom.dll
 0000:fff7d000       .debug$S                   0000000180000000     ucrtd:ucrtbased.dll
 0000:fff7d000       .debug$S                   0000000180000000     ucrtd:ucrtbased.dll
 0000:fff7d000       .debug$S                   0000000180000000     ucrtd:ucrtbased.dll
 0000:fff7d000       .debug$S                   0000000180000000     ucrtd:ucrtbased.dll
 0000:fff7d000       .debug$S                   0000000180000000     ucrtd:ucrtbased.dll
 0000:fff7d000       .debug$S                   0000000180000000     ucrtd:ucrtbased.dll
 0000:fff7d000       .debug$S                   0000000180000000     ucrtd:ucrtbased.dll
 0000:fff7d000       .debug$S                   0000000180000000     ucrtd:ucrtbased.dll
 0000:fff7d000       .debug$S                   0000000180000000     ucrtd:ucrtbased.dll
 0000:fff7d000       .debug$S                   0000000180000000     ucrtd:ucrtbased.dll
 0000:fff7d000       .debug$S                   0000000180000000     ucrtd:ucrtbased.dll
 0000:fff7d000       .debug$S                   0000000180000000     ucrtd:ucrtbased.dll
 0000:fff7d000       .debug$S                   0000000180000000     ucrtd:ucrtbased.dll
 0000:fff7d000       .debug$S                   0000000180000000     ucrtd:ucrtbased.dll
 0000:fff7d000       .debug$S                   0000000180000000     ucrtd:ucrtbased.dll
 0000:fff7d000       .debug$S                   0000000180000000     ucrtd:ucrtbased.dll
 0000:fff7d000       .debug$S                   0000000180000000     ucrtd:ucrtbased.dll
 0000:fff7d000       .debug$S                   0000000180000000     ucrtd:ucrtbased.dll
 0000:fff7d000       .debug$S                   0000000180000000     ucrtd:ucrtbased.dll
 0000:fff7d000       .debug$S                   0000000180000000     ucrtd:ucrtbased.dll
 0000:fff7d000       .debug$S                   0000000180000000     ucrtd:ucrtbased.dll
 0000:fff7d000       .debug$S                   0000000180000000     ucrtd:ucrtbased.dll
 0000:fff7d000       .debug$S                   0000000180000000     ucrtd:ucrtbased.dll
 0000:fff7d000       .debug$S                   0000000180000000     ucrtd:ucrtbased.dll
 0000:fff7d000       .debug$S                   0000000180000000     ucrtd:ucrtbased.dll
 0000:fff7d000       .debug$S                   0000000180000000     ucrtd:ucrtbased.dll
 0000:fff7d000       .debug$S                   0000000180000000     ucrtd:ucrtbased.dll
 0000:fff7d000       .debug$S                   0000000180000000     ucrtd:ucrtbased.dll
 0000:fff7d000       .debug$S                   0000000180000000     geom:geom.dll
 0000:fff7d000       .debug$S                   0000000180000000     vcruntimed:VCRUNTIME140D.dll
 0000:fff7d000       .debug$S                   0000000180000000     vcruntimed:VCRUNTIME140D.dll
 0000:fff7d000       .debug$S                   0000000180000000     vcruntimed:VCRUNTIME140D.dll
 0000:fff7d000       .debug$S                   0000000180000000     vcruntimed:VCRUNTIME140D.dll
 0000:fff7d000       .debug$S                   0000000180000000     vcruntimed:VCRUNTIME140D.dll
 0000:fff7d000       .debug$S                   0000000180000000     vcruntimed:VCRUNTIME140D.dll
 0000:fff7d000       .debug$S                   0000000180000000     vcruntimed:VCRUNTIME140D.dll
 0000:fff7d000       .debug$S                   0000000180000000     vcruntimed:VCRUNTIME140D.dll
 0000:fff7d000       .debug$S                   0000000180000000     vcruntimed:VCRUNTIME140D.dll
 0000:fff7d000       .debug$S                   0000000180000000     vcruntimed:VCRUNTIME140D.dll
 0000:fff7d000       .debug$S                   0000000180000000     geom:geom.dll
 0000:fff7d000       .debug$S                   0000000180000000     geom:geom.dll
 0000:fff7d000       .debug$S                   0000000180000000     geom:geom.dll
 0000:fff7d000       .debug$S                   0000000180000000     geom:geom.dll
 0000:fff7d000       .debug$S                   0000000180000000     geom:geom.dll
 0000:fff7d000       .debug$S                   0000000180000000     geom:geom.dll
 0000:fff7d000       .debug$S                   0000000180000000     BerconMaps.exp
 0000:fff7d000       .debug$S                   0000000180000000     geom:geom.dll
 0000:fff7d000       .debug$S                   0000000180000000     geom:geom.dll
 0000:fff7d000       .debug$S                   0000000180000000     geom:geom.dll
 0000:fff7d000       .debug$S                   0000000180000000     geom:geom.dll
 0000:fff7d000       .debug$S                   0000000180000000     geom:geom.dll
 0000:fff7d000       .debug$S                   0000000180000000     geom:geom.dll
 0000:fff7d000       .debug$S                   0000000180000000     geom:geom.dll
 0000:fff7d000       .debug$S                   0000000180000000     geom:geom.dll
 0000:fff7d000       .debug$S                   0000000180000000     geom:geom.dll
 0000:fff7d000       .debug$S                   0000000180000000     geom:geom.dll
 0000:fff7d000       .debug$S                   0000000180000000     geom:geom.dll
 0000:fff7d000       .debug$S                   0000000180000000     msvcprtd:MSVCP140D.dll
 0000:fff7d000       .debug$S                   0000000180000000     msvcprtd:MSVCP140D.dll
 0000:fff7d000       .debug$S                   0000000180000000     geom:geom.dll
 0000:fff7d000       .debug$S                   0000000180000000     geom:geom.dll
 0000:fff7d000       .debug$S                   0000000180000000     geom:geom.dll
 0000:fff7d000       .debug$S                   0000000180000000     geom:geom.dll
 0000:fff7d000       .debug$S                   0000000180000000     geom:geom.dll
 0000:fff7d000       .debug$S                   0000000180000000     geom:geom.dll
 0000:fff7d000       .debug$S                   0000000180000000     geom:geom.dll
 0000:fff7d000       .debug$S                   0000000180000000     core:core.dll
 0000:fff7d000       .debug$S                   0000000180000000     core:core.dll
 0000:fff7d000       .debug$S                   0000000180000000     core:core.dll
 0000:fff7d000       .debug$S                   0000000180000000     core:core.dll
 0000:fff7d000       .debug$S                   0000000180000000     geom:geom.dll
 0000:fff7d000       .debug$S                   0000000180000000     core:core.dll
 0000:fff7d000       .debug$S                   0000000180000000     geom:geom.dll
 0000:fff7d000       .debug$S                   0000000180000000     core:core.dll
 0000:fff7d000       .debug$S                   0000000180000000     core:core.dll
 0000:fff7d000       .debug$S                   0000000180000000     core:core.dll
 0000:fff7d000       .debug$S                   0000000180000000     core:core.dll
 0000:fff7d000       .debug$S                   0000000180000000     geom:geom.dll
 0000:fff7d000       .debug$S                   0000000180000000     core:core.dll
 0000:fff7d000       .debug$S                   0000000180000000     geom:geom.dll
 0000:fff7d000       .debug$S                   0000000180000000     core:core.dll
 0000:fff7d000       .debug$S                   0000000180000000     core:core.dll
 0000:fff7d000       .debug$S                   0000000180000000     core:core.dll
 0000:fff7d000       .debug$S                   0000000180000000     core:core.dll
 0000:fff7d000       .debug$S                   0000000180000000     geom:geom.dll
 0000:fff7d000       .debug$S                   0000000180000000     geom:geom.dll
 0000:fff7d000       .debug$S                   0000000180000000     core:core.dll
 0000:fff7d000       .debug$S                   0000000180000000     msvcprtd:MSVCP140D.dll
 0000:fff7d000       .debug$S                   0000000180000000     msvcprtd:MSVCP140D.dll
 0000:fff7d000       .debug$S                   0000000180000000     msvcprtd:MSVCP140D.dll
 0000:fff7d000       .debug$S                   0000000180000000     msvcprtd:MSVCP140D.dll
 0000:fff7d000       .debug$S                   0000000180000000     maxutil:maxutil.dll
 0000:fff7d000       .debug$S                   0000000180000000     msvcprtd:MSVCP140D.dll
 0000:fff7d000       .debug$S                   0000000180000000     msvcprtd:MSVCP140D.dll
 0000:fff7d000       .debug$S                   0000000180000000     maxutil:maxutil.dll
 0000:fff7d000       .debug$S                   0000000180000000     msvcprtd:MSVCP140D.dll
 0000:fff7d000       .debug$S                   0000000180000000     maxutil:maxutil.dll
 0000:fff7d000       .debug$S                   0000000180000000     msvcprtd:MSVCP140D.dll
 0000:fff7d000       .debug$S                   0000000180000000     maxutil:maxutil.dll
 0000:fff7d000       .debug$S                   0000000180000000     msvcprtd:MSVCP140D.dll
 0000:fff7d000       .debug$S                   0000000180000000     maxutil:maxutil.dll
 0000:fff7d000       .debug$S                   0000000180000000     msvcprtd:MSVCP140D.dll
 0000:fff7d000       .debug$S                   0000000180000000     maxutil:maxutil.dll
 0000:fff7d000       .debug$S                   0000000180000000     msvcprtd:MSVCP140D.dll
 0000:fff7d000       .debug$S                   0000000180000000     maxutil:maxutil.dll
 0000:fff7d000       .debug$S                   0000000180000000     maxutil:maxutil.dll
 0000:fff7d000       .debug$S                   0000000180000000     msvcprtd:MSVCP140D.dll
 0000:fff7d000       .debug$S                   0000000180000000     core:core.dll
 0000:fff7d000       .debug$S                   0000000180000000     maxutil:maxutil.dll
 0000:fff7d000       .debug$S                   0000000180000000     maxutil:maxutil.dll
 0000:fff7d000       .debug$S                   0000000180000000     maxutil:maxutil.dll
 0000:fff7d000       .debug$S                   0000000180000000     maxutil:maxutil.dll
 0000:fff7d000       .debug$S                   0000000180000000     maxutil:maxutil.dll
 0000:fff7d000       .debug$S                   0000000180000000     maxutil:maxutil.dll
 0000:fff7d000       .debug$S                   0000000180000000     maxutil:maxutil.dll
 0000:fff7d000       .debug$S                   0000000180000000     maxutil:maxutil.dll
 0000:fff7d000       .debug$S                   0000000180000000     core:core.dll
 0000:fff7d000       .debug$S                   0000000180000000     maxutil:maxutil.dll
 0000:fff7d000       .debug$S                   0000000180000000     maxutil:maxutil.dll
 0000:fff7d000       .debug$S                   0000000180000000     core:core.dll
 0000:fff7d000       .debug$S                   0000000180000000     maxutil:maxutil.dll
 0000:fff7d000       .debug$S                   0000000180000000     maxutil:maxutil.dll
 0000:fff7d000       .debug$S                   0000000180000000     maxutil:maxutil.dll
 0000:fff7d000       .debug$S                   0000000180000000     paramblk2:ParamBlk2.dll
 0000:fff7d000       .debug$S                   0000000180000000     paramblk2:ParamBlk2.dll
 0000:fff7d000       .debug$S                   0000000180000000     paramblk2:ParamBlk2.dll
 0000:fff7d000       .debug$S                   0000000180000000     paramblk2:ParamBlk2.dll
 0000:fff7d000       .debug$S                   0000000180000000     paramblk2:ParamBlk2.dll
 0000:fff7d000       .debug$S                   0000000180000000     paramblk2:ParamBlk2.dll
 0000:fff7d000       .debug$S                   0000000180000000     paramblk2:ParamBlk2.dll
 0000:fff7d000       .debug$S                   0000000180000000     paramblk2:ParamBlk2.dll
 0000:fff7d000       .debug$S                   0000000180000000     core:core.dll
 0000:fff7d000       .debug$S                   0000000180000000     paramblk2:ParamBlk2.dll
 0000:fff7d000       .debug$S                   0000000180000000     paramblk2:ParamBlk2.dll
 0000:fff7d000       .debug$S                   0000000180000000     core:core.dll
 0000:fff7d000       .debug$S                   0000000180000000     paramblk2:ParamBlk2.dll
 0000:fff7d000       .debug$S                   0000000180000000     core:core.dll
 0000:fff7d000       .debug$S                   0000000180000000     core:core.dll
 0000:fff7d000       .debug$S                   0000000180000000     paramblk2:ParamBlk2.dll
 0000:fff7d000       .debug$S                   0000000180000000     paramblk2:ParamBlk2.dll
 0000:fff7d000       .debug$S                   0000000180000000     core:core.dll
 0000:fff7d000       .debug$S                   0000000180000000     paramblk2:ParamBlk2.dll
 0000:fff7d000       .debug$S                   0000000180000000     paramblk2:ParamBlk2.dll
 0000:fff7d000       .debug$S                   0000000180000000     core:core.dll
 0000:fff7d000       .debug$S                   0000000180000000     core:core.dll
 0000:fff7d000       .debug$S                   0000000180000000     core:core.dll
 0000:fff7d000       .debug$S                   0000000180000000     core:core.dll
 0000:fff7d000       .debug$S                   0000000180000000     paramblk2:ParamBlk2.dll
 0000:fff7d000       .debug$S                   0000000180000000     core:core.dll
 0000:fff7d000       .debug$S                   0000000180000000     paramblk2:ParamBlk2.dll
 0000:fff7d000       .debug$S                   0000000180000000     paramblk2:ParamBlk2.dll
 0000:fff7d000       .debug$S                   0000000180000000     core:core.dll
 0000:fff7d000       .debug$S                   0000000180000000     paramblk2:ParamBlk2.dll
 0000:fff7d000       .debug$S                   0000000180000000     core:core.dll
 0000:fff7d000       .debug$S                   0000000180000000     core:core.dll
 0000:fff7d000       .debug$S                   0000000180000000     kernel32:KERNEL32.dll
 0000:fff7d000       .debug$S                   0000000180000000     core:core.dll
 0000:fff7d000       .debug$S                   0000000180000000     kernel32:KERNEL32.dll
 0000:fff7d000       .debug$S                   0000000180000000     core:core.dll
 0000:fff7d000       .debug$S                   0000000180000000     kernel32:KERNEL32.dll
 0000:fff7d000       .debug$S                   0000000180000000     kernel32:KERNEL32.dll
 0000:fff7d000       .debug$S                   0000000180000000     core:core.dll
 0000:fff7d000       .debug$S                   0000000180000000     kernel32:KERNEL32.dll
 0000:fff7d000       .debug$S                   0000000180000000     core:core.dll
 0000:fff7d000       .debug$S                   0000000180000000     core:core.dll
 0000:fff7d000       .debug$S                   0000000180000000     core:core.dll
 0000:fff7d000       .debug$S                   0000000180000000     kernel32:KERNEL32.dll
 0000:fff7d000       .debug$S                   0000000180000000     core:core.dll
 0000:fff7d000       .debug$S                   0000000180000000     kernel32:KERNEL32.dll
 0000:fff7d000       .debug$S                   0000000180000000     kernel32:KERNEL32.dll
 0000:fff7d000       .debug$S                   0000000180000000     core:core.dll
 0000:fff7d000       .debug$S                   0000000180000000     core:core.dll
 0000:fff7d000       .debug$S                   0000000180000000     core:core.dll
 0000:fff7d000       .debug$S                   0000000180000000     core:core.dll
 0000:fff7d000       .debug$S                   0000000180000000     kernel32:KERNEL32.dll
 0000:fff7d000       .debug$S                   0000000180000000     core:core.dll
 0000:fff7d000       .debug$S                   0000000180000000     kernel32:KERNEL32.dll
 0000:fff7d000       .debug$S                   0000000180000000     core:core.dll
 0000:fff7d000       .debug$S                   0000000180000000     kernel32:KERNEL32.dll
 0000:fff7d000       .debug$S                   0000000180000000     kernel32:KERNEL32.dll
 0000:fff7d000       .debug$S                   0000000180000000     kernel32:KERNEL32.dll
 0000:fff7d000       .debug$S                   0000000180000000     core:core.dll
 0000:fff7d000       .debug$S                   0000000180000000     core:core.dll
 0000:fff7d000       .debug$S                   0000000180000000     core:core.dll
 0000:fff7d000       .debug$S                   0000000180000000     core:core.dll
 0000:fff7d000       .debug$S                   0000000180000000     kernel32:KERNEL32.dll
 0000:fff7d000       .debug$S                   0000000180000000     core:core.dll
 0000:fff7d000       .debug$S                   0000000180000000     kernel32:KERNEL32.dll
 0000:fff7d000       .debug$S                   0000000180000000     kernel32:KERNEL32.dll
 0000:fff7d000       .debug$S                   0000000180000000     core:core.dll
 0000:fff7d000       .debug$S                   0000000180000000     kernel32:KERNEL32.dll
 0000:fff7d000       .debug$S                   0000000180000000     kernel32:KERNEL32.dll
 0000:fff7d000       .debug$S                   0000000180000000     core:core.dll
 0000:fff7d000       .debug$S                   0000000180000000     kernel32:KERNEL32.dll
 0000:fff7d000       .debug$S                   0000000180000000     kernel32:KERNEL32.dll
 0000:fff7d000       .debug$S                   0000000180000000     core:core.dll
 0000:fff7d000       .debug$S                   0000000180000000     kernel32:KERNEL32.dll
 0000:fff7d000       .debug$S                   0000000180000000     core:core.dll
 0000:fff7d000       .debug$S                   0000000180000000     kernel32:KERNEL32.dll
 0000:fff7d000       .debug$S                   0000000180000000     kernel32:KERNEL32.dll
 0000:fff7d000       .debug$S                   0000000180000000     core:core.dll
 0000:fff7d000       .debug$S                   0000000180000000     core:core.dll
 0000:fff7d000       .debug$S                   0000000180000000     kernel32:KERNEL32.dll
 0000:fff7d000       .debug$S                   0000000180000000     core:core.dll
 0000:fff7d000       .debug$S                   0000000180000000     kernel32:KERNEL32.dll
 0000:fff7d000       .debug$S                   0000000180000000     kernel32:KERNEL32.dll
 0000:fff7d000       .debug$S                   0000000180000000     core:core.dll
 0000:fff7d000       .debug$S                   0000000180000000     core:core.dll
 0000:fff7d000       .debug$S                   0000000180000000     kernel32:KERNEL32.dll
 0000:fff7d000       .debug$S                   0000000180000000     core:core.dll
 0000:fff7d000       .debug$S                   0000000180000000     kernel32:KERNEL32.dll
 0000:fff7d000       .debug$S                   0000000180000000     core:core.dll
 0000:fff7d000       .debug$S                   0000000180000000     core:core.dll
 0000:fff7d000       .debug$S                   0000000180000000     core:core.dll
 0000:fff7d000       .debug$S                   0000000180000000     kernel32:KERNEL32.dll
 0000:fff7d000       .debug$S                   0000000180000000     kernel32:KERNEL32.dll
 0000:fff7d000       .debug$S                   0000000180000000     core:core.dll
 0000:fff7d000       .debug$S                   0000000180000000     core:core.dll
 0000:fff7d000       .debug$S                   0000000180000000     kernel32:KERNEL32.dll
 0000:fff7d000       .debug$S                   0000000180000000     msvcprtd:MSVCP140D.dll
 0000:fff7d000       .debug$S                   0000000180000000     kernel32:KERNEL32.dll
 0000:fff7d000       .debug$S                   0000000180000000     core:core.dll
 0000:fff7d000       .debug$S                   0000000180000000     msvcprtd:MSVCP140D.dll
 0000:fff7d000       .debug$S                   0000000180000000     core:core.dll
 0000:fff7d000       .debug$S                   0000000180000000     core:core.dll
 0000:fff7d000       .debug$S                   0000000180000000     kernel32:KERNEL32.dll
 0000:fff7d000       .debug$S                   0000000180000000     msvcprtd:MSVCP140D.dll
 0000:fff7d000       .debug$S                   0000000180000000     kernel32:KERNEL32.dll
 0000:fff7d000       .debug$S                   0000000180000000     msvcprtd:MSVCP140D.dll
 0000:fff7d000       .debug$S                   0000000180000000     kernel32:KERNEL32.dll
 0000:fff7d000       .debug$S                   0000000180000000     kernel32:KERNEL32.dll
 0000:fff7d000       .debug$S                   0000000180000000     kernel32:KERNEL32.dll
 0000:fff7d000       .debug$S                   0000000180000000     msvcprtd:MSVCP140D.dll
 0000:fff7d000       .debug$S                   0000000180000000     msvcprtd:MSVCP140D.dll
 0000:fff7d000       .debug$S                   0000000180000000     msvcprtd:MSVCP140D.dll
 0000:fff7d000       .debug$S                   0000000180000000     user32:USER32.dll
 0000:fff7d000       .debug$S                   0000000180000000     msvcprtd:MSVCP140D.dll
 0000:fff7d000       .debug$S                   0000000180000000     core:core.dll
 0000:fff7d000       .debug$S                   0000000180000000     msvcprtd:MSVCP140D.dll
 0000:fff7d000       .debug$S                   0000000180000000     user32:USER32.dll
 0000:fff7d000       .debug$S                   0000000180000000     msvcprtd:MSVCP140D.dll
 0000:fff7d000       .debug$S                   0000000180000000     msvcprtd:MSVCP140D.dll
 0000:fff7d000       .debug$S                   0000000180000000     user32:USER32.dll
 0000:fff7d000       .debug$S                   0000000180000000     msvcprtd:MSVCP140D.dll
 0000:fff7d000       .debug$S                   0000000180000000     core:core.dll
 0000:fff7d000       .debug$S                   0000000180000000     msvcprtd:MSVCP140D.dll
 0000:fff7d000       .debug$S                   0000000180000000     user32:USER32.dll
 0000:fff7d000       .debug$S                   0000000180000000     msvcprtd:MSVCP140D.dll
 0000:fff7d000       .debug$S                   0000000180000000     user32:USER32.dll
 0000:fff7d000       .debug$S                   0000000180000000     core:core.dll
 0000:fff7d000       .debug$S                   0000000180000000     user32:USER32.dll
 0000:fff7d000       .debug$S                   0000000180000000     core:core.dll
 0000:fff7d000       .debug$S                   0000000180000000     user32:USER32.dll
 0000:fff7d000       .debug$S                   0000000180000000     core:core.dll
 0000:fff7d000       .debug$S                   0000000180000000     user32:USER32.dll
 0000:fff7d000       .debug$S                   0000000180000000     msvcprtd:MSVCP140D.dll
 0000:fff7d000       .debug$S                   0000000180000000     msvcprtd:MSVCP140D.dll
 0000:fff7d000       .debug$S                   0000000180000000     user32:USER32.dll
 0000:fff7d000       .debug$S                   0000000180000000     core:core.dll
 0000:fff7d000       .debug$S                   0000000180000000     user32:USER32.dll
 0000:fff7d000       .debug$S                   0000000180000000     user32:USER32.dll
 0000:fff7d000       .debug$S                   0000000180000000     core:core.dll
 0000:fff7d000       .debug$S                   0000000180000000     core:core.dll
 0000:fff7d000       .debug$S                   0000000180000000     msvcprtd:MSVCP140D.dll
 0000:fff7d000       .debug$S                   0000000180000000     user32:USER32.dll
 0000:fff7d000       .debug$S                   0000000180000000     core:core.dll
 0000:fff7d000       .debug$S                   0000000180000000     user32:USER32.dll
 0000:fff7d000       .debug$S                   0000000180000000     core:core.dll
 0000:fff7d000       .debug$S                   0000000180000000     msvcprtd:MSVCP140D.dll
 0000:fff7d000       .debug$S                   0000000180000000     core:core.dll
 0000:fff7d000       .debug$S                   0000000180000000     user32:USER32.dll
 0000:fff7d000       .debug$S                   0000000180000000     user32:USER32.dll
 0000:fff7d000       .debug$S                   0000000180000000     core:core.dll
 0000:fff7d000       .debug$S                   0000000180000000     user32:USER32.dll
 0000:fff7d000       .debug$S                   0000000180000000     core:core.dll
 0000:fff7d000       .debug$S                   0000000180000000     user32:USER32.dll
 0000:fff7d000       .debug$S                   0000000180000000     user32:USER32.dll
 0000:fff7d000       .debug$S                   0000000180000000     core:core.dll
 0000:fff7d000       .debug$S                   0000000180000000     user32:USER32.dll
 0000:fff7d000       .debug$S                   0000000180000000     core:core.dll
 0000:fff7d000       .debug$S                   0000000180000000     core:core.dll
 0000:fff7d000       .debug$S                   0000000180000000     gdi32:GDI32.dll
 0000:fff7d000       .debug$S                   0000000180000000     gdi32:GDI32.dll
 0000:fff7d000       .debug$S                   0000000180000000     msvcprtd:MSVCP140D.dll
 0000:fff7d000       .debug$S                   0000000180000000     core:core.dll
 0000:fff7d000       .debug$S                   0000000180000000     core:core.dll
 0000:fff7d000       .debug$S                   0000000180000000     gdi32:GDI32.dll
 0000:fff7d000       .debug$S                   0000000180000000     gdi32:GDI32.dll
 0000:fff7d000       .debug$S                   0000000180000000     core:core.dll
 0000:fff7d000       .debug$S                   0000000180000000     gdi32:GDI32.dll
 0000:fff7d000       .debug$S                   0000000180000000     core:core.dll
 0000:fff7d000       .debug$S                   0000000180000000     gdi32:GDI32.dll
 0000:fff7d000       .debug$S                   0000000180000000     core:core.dll
 0000:fff7d000       .debug$S                   0000000180000000     gdi32:GDI32.dll
 0000:fff7d000       .debug$S                   0000000180000000     gdi32:GDI32.dll
 0000:fff7d000       .debug$S                   0000000180000000     core:core.dll
 0000:fff7d000       .debug$S                   0000000180000000     gdi32:GDI32.dll
 0002:fffb5000       .idata$6                   0000000180000000     gdi32:GDI32.dll
 0000:fff7d000       .debug$S                   0000000180000000     core:core.dll
 0000:fff7d000       .debug$S                   0000000180000000     core:core.dll
 0000:fff7d000       .debug$S                   0000000180000000     msvcprtd:MSVCP140D.dll
 0000:fff7d000       .debug$S                   0000000180000000     msvcprtd:MSVCP140D.dll
 0001:00000000       ??__Eintvalid@@YAXXZ       0000000180001000 f   DllEntry.obj
 0001:00000030       ??__EkInvalidId@AssetManagement@MaxSDK@@YAXXZ 0000000180001030 f   DllEntry.obj
 0001:00000050       ??__EkTriObjNormalXTCID@@YAXXZ 0000000180001050 f   DllEntry.obj
 0001:00000070       ??__Eintvalid@@YAXXZ       0000000180001070 f   BerconCommon.obj
 0001:000000a0       ??__EkInvalidId@AssetManagement@MaxSDK@@YAXXZ 00000001800010a0 f   BerconCommon.obj
 0001:000000c0       ??__EkTriObjNormalXTCID@@YAXXZ 00000001800010c0 f   BerconCommon.obj
 0001:000000e0       ??__EBerconDistortionDesc@@YAXXZ 00000001800010e0 f   BerconDistortion.obj
 0001:00000120       ??__EBerconDistortion_param_blk@@YAXXZ 0000000180001120 f   BerconDistortion.obj
 0001:000004c0       ??__Eblack@@YAXXZ          00000001800014c0 f   BerconDistortion.obj
 0001:000004f0       ??__Eintvalid@@YAXXZ       00000001800014f0 f   BerconDistortion.obj
 0001:00000520       ??__EkInvalidId@AssetManagement@MaxSDK@@YAXXZ 0000000180001520 f   BerconDistortion.obj
 0001:00000540       ??__EkTriObjNormalXTCID@@YAXXZ 0000000180001540 f   BerconDistortion.obj
 0001:00000560       ??__Exyz_blk@@YAXXZ        0000000180001560 f   BerconDistortion.obj
 0001:000005d0       ??__EBerconCurve_param_blk@@YAXXZ 00000001800015d0 f   BerconGradient.obj
 0001:00000740       ??__EBerconGradientDesc@@YAXXZ 0000000180001740 f   BerconGradient.obj
 0001:00000780       ??__Egradientmap_param_blk@@YAXXZ 0000000180001780 f   BerconGradient.obj
 0001:00001820       ??__Eintvalid@@YAXXZ       0000000180002820 f   BerconGradient.obj
 0001:00001850       ??__EkInvalidId@AssetManagement@MaxSDK@@YAXXZ 0000000180002850 f   BerconGradient.obj
 0001:00001870       ??__EkTriObjNormalXTCID@@YAXXZ 0000000180002870 f   BerconGradient.obj
 0001:00001890       ??__Exyz_blk@@YAXXZ        0000000180002890 f   BerconGradient.obj
 0001:00001900       ??__EBerconCurve_param_blk@@YAXXZ 0000000180002900 f   BerconNoise.obj
 0001:00001a70       ??__EBerconMap_param_blk@@YAXXZ 0000000180002a70 f   BerconNoise.obj
 0001:000029f0       ??__EBerconNoiseDesc@@YAXXZ 00000001800039f0 f   BerconNoise.obj
 0001:00002a30       ??__Eberconnoise_param_blk@@YAXXZ 0000000180003a30 f   BerconNoise.obj
 0001:00003ee0       ??__Eblack@@YAXXZ          0000000180004ee0 f   BerconNoise.obj
 0001:00003f10       ??__Eintvalid@@YAXXZ       0000000180004f10 f   BerconNoise.obj
 0001:00003f40       ??__EkInvalidId@AssetManagement@MaxSDK@@YAXXZ 0000000180004f40 f   BerconNoise.obj
 0001:00003f60       ??__EkTriObjNormalXTCID@@YAXXZ 0000000180004f60 f   BerconNoise.obj
 0001:00003f80       ??__Ewhite@@YAXXZ          0000000180004f80 f   BerconNoise.obj
 0001:00003fc0       ??__Exyz_blk@@YAXXZ        0000000180004fc0 f   BerconNoise.obj
 0001:00004030       ??__EBerconMap_param_blk@@YAXXZ 0000000180005030 f   BerconTile.obj
 0001:000042e0       ??__EBerconTileDesc@@YAXXZ 00000001800052e0 f   BerconTile.obj
 0001:00004320       ??__EBerconTile_param_blk@@YAXXZ 0000000180005320 f   BerconTile.obj
 0001:00006130       ??__Eblack@@YAXXZ          0000000180007130 f   BerconTile.obj
 0001:00006160       ??__Eintvalid@@YAXXZ       0000000180007160 f   BerconTile.obj
 0001:00006190       ??__EkInvalidId@AssetManagement@MaxSDK@@YAXXZ 0000000180007190 f   BerconTile.obj
 0001:000061b0       ??__EkTriObjNormalXTCID@@YAXXZ 00000001800071b0 f   BerconTile.obj
 0001:000061d0       ??__Ewhite@@YAXXZ          00000001800071d0 f   BerconTile.obj
 0001:00006210       ??__Exyz_blk@@YAXXZ        0000000180007210 f   BerconTile.obj
 0001:00006280       ??__EBerconCurve_param_blk@@YAXXZ 0000000180007280 f   BerconWood.obj
 0001:000063f0       ??__EBerconMap_param_blk@@YAXXZ 00000001800073f0 f   BerconWood.obj
 0001:00007590       ??__EBerconWoodDesc@@YAXXZ 0000000180008590 f   BerconWood.obj
 0001:000075d0       ??__EBerconWood_param_blk@@YAXXZ 00000001800085d0 f   BerconWood.obj
 0001:00008ea0       ??__Eblack@@YAXXZ          0000000180009ea0 f   BerconWood.obj
 0001:00008ed0       ??__Eintvalid@@YAXXZ       0000000180009ed0 f   BerconWood.obj
 0001:00008f00       ??__EkInvalidId@AssetManagement@MaxSDK@@YAXXZ 0000000180009f00 f   BerconWood.obj
 0001:00008f20       ??__EkTriObjNormalXTCID@@YAXXZ 0000000180009f20 f   BerconWood.obj
 0001:00008f40       ??__Ewhite@@YAXXZ          0000000180009f40 f   BerconWood.obj
 0001:00008f80       ??__Exyz_blk@@YAXXZ        0000000180009f80 f   BerconWood.obj
 0001:00008ff0       ??__Eintvalid@@YAXXZ       0000000180009ff0 f   GradientRamp.obj
 0001:00009020       ??__EkInvalidId@AssetManagement@MaxSDK@@YAXXZ 000000018000a020 f   GradientRamp.obj
 0001:00009040       ??__EkTriObjNormalXTCID@@YAXXZ 000000018000a040 f   GradientRamp.obj
 0001:00009060       ??__Eintvalid@@YAXXZ       000000018000a060 f   IGradient.obj
 0001:00009090       ??__EkInvalidId@AssetManagement@MaxSDK@@YAXXZ 000000018000a090 f   IGradient.obj
 0001:000090b0       ??__EkTriObjNormalXTCID@@YAXXZ 000000018000a0b0 f   IGradient.obj
 0001:000090d0       ??__EkInvalidId@AssetManagement@MaxSDK@@YAXXZ 000000018000a0d0 f   curvectrl.obj
 0001:000090f0       ??__EkTriObjNormalXTCID@@YAXXZ 000000018000a0f0 f   curvectrl.obj
 0001:00009110       ??__EkInvalidId@AssetManagement@MaxSDK@@YAXXZ 000000018000a110 f   fractal.obj
 0001:00009130       ??__EkTriObjNormalXTCID@@YAXXZ 000000018000a130 f   fractal.obj
 0001:00009150       ??__EkInvalidId@AssetManagement@MaxSDK@@YAXXZ 000000018000a150 f   noise.obj
 0001:00009170       ??__EkTriObjNormalXTCID@@YAXXZ 000000018000a170 f   noise.obj
 0001:00009190       ??__EkInvalidId@AssetManagement@MaxSDK@@YAXXZ 000000018000a190 f   tile.obj
 0001:000091b0       ??__EkTriObjNormalXTCID@@YAXXZ 000000018000a1b0 f   tile.obj
 0001:000091d0       ??__EkInvalidId@AssetManagement@MaxSDK@@YAXXZ 000000018000a1d0 f   worley.obj
 0001:000091f0       ??__EkTriObjNormalXTCID@@YAXXZ 000000018000a1f0 f   worley.obj
 0001:0000c210       ?setSpinnerType@@YAXPEAVIParamMap2@@HHHHH_N@Z 000000018000d210 f   BerconCommon.obj
 0001:0000c3d0       ?tiling@@YAHHAEAM@Z        000000018000d3d0 f   BerconCommon.obj
 0001:0000c570       ?tiling@@YAHHAEAMAEAH@Z    000000018000d570 f   BerconCommon.obj
 0001:000176ac       $LN15                      00000001800186ac     BerconGradient.obj
 0001:00018570       $LN15                      0000000180019570     BerconGradient.obj
 0001:000188a4       $LN15                      00000001800198a4     BerconGradient.obj
 0001:0001a424       $LN26                      000000018001b424     BerconGradient.obj
 0001:0001aacc       $LN21                      000000018001bacc     BerconGradient.obj
 0001:0001b210       $LN21                      000000018001c210     BerconGradient.obj
 0001:0001b920       $LN25                      000000018001c920     BerconGradient.obj
 0001:00020aa8       $LN13                      0000000180021aa8     BerconNoise.obj
 0001:00020ac4       $LN12                      0000000180021ac4     BerconNoise.obj
 0001:00020eac       $LN26                      0000000180021eac     BerconNoise.obj
 0001:00021d54       $LN13                      0000000180022d54     BerconNoise.obj
 0001:00021d70       $LN12                      0000000180022d70     BerconNoise.obj
 0001:00021ff8       $LN13                      0000000180022ff8     BerconNoise.obj
 0001:00022014       $LN12                      0000000180023014     BerconNoise.obj
 0001:000221cc       $LN15                      00000001800231cc     BerconNoise.obj
 0001:000221e8       $LN14                      00000001800231e8     BerconNoise.obj
 0001:00027514       $LN15                      0000000180028514     BerconTile.obj
 0001:0002bf20       ?setSpinnerType@@YAXPEAVIParamMap2@@HHHHH_N@Z 000000018002cf20 f   BerconTile.obj
 0001:00030018       $LN13                      0000000180031018     BerconWood.obj
 0001:00030034       $LN12                      0000000180031034     BerconWood.obj
 0001:000304a8       $LN29                      00000001800314a8     BerconWood.obj
 0001:00030500       ?Intens@@YAMAEBVAColor@@@Z 0000000180031500 f   BerconGradient.obj
 0001:00030500       ?Intens@@YAMAEBVColor@@@Z  0000000180031500 f   BerconGradient.obj
 0001:00030500       ?Intens@@YAMAEBVAColor@@@Z 0000000180031500 f   BerconTile.obj
 0001:00030500       ?Intens@@YAMAEBVColor@@@Z  0000000180031500 f   BerconNoise.obj
 0001:00030500       ?Intens@@YAMAEBVAColor@@@Z 0000000180031500 f   BerconNoise.obj
 0001:00030500       ?Intens@@YAMAEBVColor@@@Z  0000000180031500 f   BerconWood.obj
 0001:00030500       ?Intens@@YAMAEBVColor@@@Z  0000000180031500 f   BerconTile.obj
 0001:00030500       ?Intens@@YAMAEBVAColor@@@Z 0000000180031500 f   BerconWood.obj
 0001:00031224       $LN13                      0000000180032224     BerconWood.obj
 0001:00031240       $LN12                      0000000180032240     BerconWood.obj
 0001:000314f8       $LN13                      00000001800324f8     BerconWood.obj
 0001:00031514       $LN12                      0000000180032514     BerconWood.obj
 0001:000316cc       $LN15                      00000001800326cc     BerconWood.obj
 0001:000316e8       $LN14                      00000001800326e8     BerconWood.obj
 0001:00036f90       $LN13                      0000000180037f90     noise.obj
 0001:000371f4       $LN13                      00000001800381f4     noise.obj
 0001:00037540       $LN13                      0000000180038540     noise.obj
 0001:000376e8       $LN13                      00000001800386e8     noise.obj
 0001:0003df60       ?STEPDOWN@@YAHHH@Z         000000018003ef60 f   tile.obj
 0001:0003df90       ?STEPUP@@YAHHH@Z           000000018003ef90 f   tile.obj
 0001:00041130       ?generateID@@YAHHH@Z       0000000180042130 f   tile.obj
 0001:00041150       ?getAngle@@YAMHM@Z         0000000180042150 f   tile.obj
 0001:000413b0       ?noise@@YAMMM@Z            00000001800423b0 f   tile.obj
 0001:00041460       ?offsetEdges@@YAXQEAMMM@Z  0000000180042460 f   tile.obj
 0001:00041a30       ?parsePattern@@YAHV?$basic_string@_WU?$char_traits@_W@std@@V?$allocator@_W@2@@std@@PEAVTilePattern@@@Z 0000000180042a30 f   tile.obj
 0001:000430f0       ?rotate270@@YAXAEAM0@Z     00000001800440f0 f   tile.obj
 0001:00043140       ?rotate90@@YAXAEAM0@Z      0000000180044140 f   tile.obj
 0001:00043250       ?rowcol@@YAHAEAM0AEAHMMAEAV?$vector@MV?$allocator@M@std@@@std@@MMM@Z 0000000180044250 f   tile.obj
 0001:000441b4       $LN25                      00000001800451b4     tile.obj
 0001:000442d0       ?tokenize@@YAXAEBV?$basic_string@_WU?$char_traits@_W@std@@V?$allocator@_W@2@@std@@AEAV?$vector@V?$basic_string@_WU?$char_traits@_W@std@@V?$allocator@_W@2@@std@@V?$allocator@V?$basic_string@_WU?$char_traits@_W@std@@V?$allocator@_W@2@@std@@@2@@2@0@Z 00000001800452d0 f   tile.obj
 0001:000452ac       $LN27                      00000001800462ac     worley.obj
 0001:000469f0       $$000000                   00000001800479f0     MSVCRTD:_amdsecgs_.obj
 0001:00046ab0       ?find_pe_section@@YAPEAU_IMAGE_SECTION_HEADER@@QEAE_K@Z 0000000180047ab0 f   MSVCRTD:utility.obj
 0001:00046b80       ?is_potentially_valid_image_base@@YA_NQEAX@Z 0000000180047b80 f   MSVCRTD:utility.obj
 0001:000472a0       ?__scrt_initialize_thread_safe_statics@@YAHXZ 00000001800482a0 f   MSVCRTD:thread_safe_statics.obj
 0001:00047410       ?__scrt_uninitialize_thread_safe_statics@@YAXXZ 0000000180048410 f   MSVCRTD:thread_safe_statics.obj
 0001:00047710       $$000000                   0000000180048710     MSVCRTD:_chkstk_.obj
 0001:000477a0       ?dllmain_crt_dispatch@@YAHQEAUHINSTANCE__@@KQEAX@Z 00000001800487a0 f   MSVCRTD:dll_dllmain.obj
 0001:00047830       ?dllmain_crt_process_attach@@YAHQEAUHINSTANCE__@@QEAX@Z 0000000180048830 f   MSVCRTD:dll_dllmain.obj
 0001:00047980       ?dllmain_crt_process_detach@@YAH_N@Z 0000000180048980 f   MSVCRTD:dll_dllmain.obj
 0001:00047a00       ?dllmain_dispatch@@YAHQEAUHINSTANCE__@@KQEAX@Z 0000000180048a00 f   MSVCRTD:dll_dllmain.obj
 0001:00047b40       ?dllmain_raw@@YAHQEAUHINSTANCE__@@KQEAX@Z 0000000180048b40 f   MSVCRTD:dll_dllmain.obj
 0001:00047cf0       capture_previous_context   0000000180048cf0 f   MSVCRTD:gs_report.obj
 0001:00048a50       $$000000                   0000000180049a50     MSVCRTD:_guard_dispatch_.obj
 0001:00048a70       ?dtor$0@?0???0BaseInterfaceServer@@QEAA@XZ@4HA 0000000180049a70 f   BerconDistortion.obj
 0001:00048a89       ?dtor$1@?0???0BaseInterfaceServer@@QEAA@XZ@4HA 0000000180049a89 f   BerconDistortion.obj
 0001:00048ab0       ?dtor$0@?0???0BerconSC@@QEAA@QEAVShadeContext@@@Z@4HA 0000000180049ab0 f   BerconDistortion.obj
 0001:00048ad0       ?dtor$0@?0???0ShadeContext@@QEAA@XZ@4HA 0000000180049ad0 f   BerconDistortion.obj
 0001:00048ad0       ?dtor$0@?0???1ShadeContext@@UEAA@XZ@4HA 0000000180049ad0 f   BerconDistortion.obj
 0001:00048ae9       ?dtor$1@?0???1ShadeContext@@UEAA@XZ@4HA 0000000180049ae9 f   BerconDistortion.obj
 0001:00048ae9       ?dtor$1@?0???0ShadeContext@@QEAA@XZ@4HA 0000000180049ae9 f   BerconDistortion.obj
 0001:00048b10       ?dtor$0@?0???0ShadeOutput@@QEAA@XZ@4HA 0000000180049b10 f   BerconDistortion.obj
 0001:00048b10       ?dtor$0@?0???1ShadeOutput@@UEAA@XZ@4HA 0000000180049b10 f   BerconDistortion.obj
 0001:00048b30       ?dtor$0@?0???0TabOutOfRangeException@Util@MaxSDK@@QEAA@PEB_W@Z@4HA 0000000180049b30 f   BerconDistortion.obj
 0001:00048b30       ?dtor$0@?0???0TabOutOfRangeException@Util@MaxSDK@@QEAA@AEBV012@@Z@4HA 0000000180049b30 f   BerconDistortion.obj
 0001:00048b30       ?dtor$0@?0???1TabOutOfRangeException@Util@MaxSDK@@UEAA@XZ@4HA 0000000180049b30 f   BerconDistortion.obj
 0001:00048b50       ?dtor$0@?0???0XYZ_Desc@@QEAA@PEAVClassDesc2@@HHHHHHH@Z@4HA 0000000180049b50 f   BerconDistortion.obj
 0001:00048b70       ?dtor$0@?0???0BerconGradientClassDesc@@QEAA@XZ@4HA 0000000180049b70 f   BerconGradient.obj
 0001:00048b70       ?dtor$0@?0???0BerconWoodClassDesc@@QEAA@XZ@4HA 0000000180049b70 f   BerconWood.obj
 0001:00048b70       ?dtor$0@?0???0BerconNoiseClassDesc@@QEAA@XZ@4HA 0000000180049b70 f   BerconNoise.obj
 0001:00048b70       ?dtor$0@?0???1BerconDistortionClassDesc@@UEAA@XZ@4HA 0000000180049b70 f   BerconDistortion.obj
 0001:00048b70       ?dtor$0@?0???1BerconNoiseClassDesc@@UEAA@XZ@4HA 0000000180049b70 f   BerconNoise.obj
 0001:00048b70       ?dtor$0@?0???1BerconTileClassDesc@@UEAA@XZ@4HA 0000000180049b70 f   BerconTile.obj
 0001:00048b70       ?dtor$0@?0???1BerconGradientClassDesc@@UEAA@XZ@4HA 0000000180049b70 f   BerconGradient.obj
 0001:00048b70       ?dtor$0@?0???0BerconTileClassDesc@@QEAA@XZ@4HA 0000000180049b70 f   BerconTile.obj
 0001:00048b70       ?dtor$0@?0???1BerconWoodClassDesc@@UEAA@XZ@4HA 0000000180049b70 f   BerconWood.obj
 0001:00048b70       ?dtor$0@?0???0BerconDistortionClassDesc@@QEAA@XZ@4HA 0000000180049b70 f   BerconDistortion.obj
 0001:00048b90       ?dtor$0@?0???1BerconSC@@UEAA@XZ@4HA 0000000180049b90 f   BerconDistortion.obj
 0001:00048bb0       ?dtor$0@?0???1Texmap@@UEAA@XZ@4HA 0000000180049bb0 f   BerconDistortion.obj
 0001:00048bd0       ?dtor$0@?0???1XYZ_Desc@@UEAA@XZ@4HA 0000000180049bd0 f   BerconDistortion.obj
 0001:00048bf0       ?dtor$0@?0??Create@BerconDistortionClassDesc@@UEAAPEAXH@Z@4HA 0000000180049bf0 f   BerconDistortion.obj
 0001:00048bf0       ?dtor$0@?0??Create@BerconTileClassDesc@@UEAAPEAXH@Z@4HA 0000000180049bf0 f   BerconTile.obj
 0001:00048bf0       ?dtor$0@?0??Create@BerconNoiseClassDesc@@UEAAPEAXH@Z@4HA 0000000180049bf0 f   BerconNoise.obj
 0001:00048bf0       ?dtor$0@?0??Create@BerconGradientClassDesc@@UEAAPEAXH@Z@4HA 0000000180049bf0 f   BerconGradient.obj
 0001:00048bf0       ?dtor$0@?0??CreateParamDlg@BerconDistortion@@UEAAPEAVParamDlg@@PEAUHWND__@@PEAVIMtlParams@@@Z@4HA 0000000180049bf0 f   BerconDistortion.obj
 0001:00048bf0       ?dtor$0@?0??Create@BerconWoodClassDesc@@UEAAPEAXH@Z@4HA 0000000180049bf0 f   BerconWood.obj
 0001:00048c10       ?dtor$0@?0??EvalMono@BerconDistortion@@UEAAMAEAVShadeContext@@@Z@4HA 0000000180049c10 f   BerconDistortion.obj
 0001:00048c30       ?dtor$0@?0??EvalColor@BerconDistortion@@UEAA?AVAColor@@AEAVShadeContext@@@Z@4HA 0000000180049c30 f   BerconDistortion.obj
 0001:00048c30       ?dtor$0@?0??EvalNormalPerturb@BerconDistortion@@UEAA?AVPoint3@@AEAVShadeContext@@@Z@4HA 0000000180049c30 f   BerconDistortion.obj
 0001:00048c50       ?dtor$0@?0??GetSubTexmapSlotName@BerconTile@@UEAA?AVWStr@@H@Z@4HA 0000000180049c50 f   BerconTile.obj
 0001:00048c50       ?dtor$0@?0??SubAnimName@BerconWood@@UEAA?AVWStr@@H@Z@4HA 0000000180049c50 f   BerconWood.obj
 0001:00048c50       ?dtor$0@?0??SubAnimName@BerconDistortion@@UEAA?AVWStr@@H@Z@4HA 0000000180049c50 f   BerconDistortion.obj
 0001:00048c50       ?dtor$0@?0??GetSubTexmapSlotName@BerconDistortion@@UEAA?AVWStr@@H@Z@4HA 0000000180049c50 f   BerconDistortion.obj
 0001:00048c50       ?dtor$0@?0??SubAnimName@BerconGradient@@UEAA?AVWStr@@H@Z@4HA 0000000180049c50 f   BerconGradient.obj
 0001:00048c50       ?dtor$0@?0??GetSubTexmapSlotName@BerconNoise@@UEAA?AVWStr@@H@Z@4HA 0000000180049c50 f   BerconNoise.obj
 0001:00048c50       ?dtor$0@?0??SubAnimName@BerconTile@@UEAA?AVWStr@@H@Z@4HA 0000000180049c50 f   BerconTile.obj
 0001:00048c50       ?dtor$0@?0??SubAnimName@BerconNoise@@UEAA?AVWStr@@H@Z@4HA 0000000180049c50 f   BerconNoise.obj
 0001:00048c50       ?dtor$0@?0??GetSubTexmapSlotName@BerconWood@@UEAA?AVWStr@@H@Z@4HA 0000000180049c50 f   BerconWood.obj
 0001:00048c80       ?dtor$0@?0???0BerconGradient@@QEAA@XZ@4HA 0000000180049c80 f   BerconGradient.obj
 0001:00048c98       ?dtor$1@?0???0BerconGradient@@QEAA@XZ@4HA 0000000180049c98 f   BerconGradient.obj
 0001:00048cc0       ?dtor$0@?0???1BerconCurveDlgProcGRADIENT@@UEAA@XZ@4HA 0000000180049cc0 f   BerconGradient.obj
 0001:00048cc0       ?dtor$0@?0???1BerconTileDlgProc@@UEAA@XZ@4HA 0000000180049cc0 f   BerconTile.obj
 0001:00048cc0       ?dtor$0@?0???0BerconGradientDlgProc@@QEAA@PEAVBerconGradient@@@Z@4HA 0000000180049cc0 f   BerconGradient.obj
 0001:00048cc0       ?dtor$0@?0???0BerconCurveDlgProc@@QEAA@PEAVBerconWood@@@Z@4HA 0000000180049cc0 f   BerconWood.obj
 0001:00048cc0       ?dtor$0@?0???1BerconXYZDlgProc@@UEAA@XZ@4HA 0000000180049cc0 f   BerconDistortion.obj
 0001:00048cc0       ?dtor$0@?0???1BerconGradientDlgProc@@UEAA@XZ@4HA 0000000180049cc0 f   BerconGradient.obj
 0001:00048cc0       ?dtor$0@?0???1BerconCurveDlgProcNOISE@@UEAA@XZ@4HA 0000000180049cc0 f   BerconNoise.obj
 0001:00048cc0       ?dtor$0@?0???0BerconNoiseDlgProc@@QEAA@PEAVBerconNoise@@@Z@4HA 0000000180049cc0 f   BerconNoise.obj
 0001:00048cc0       ?dtor$0@?0???0BerconWoodDlgProc@@QEAA@PEAVBerconWood@@@Z@4HA 0000000180049cc0 f   BerconWood.obj
 0001:00048cc0       ?dtor$0@?0???1BerconCurveDlgProc@@UEAA@XZ@4HA 0000000180049cc0 f   BerconWood.obj
 0001:00048cc0       ?dtor$0@?0???0BerconCurveDlgProcGRADIENT@@QEAA@PEAVBerconGradient@@@Z@4HA 0000000180049cc0 f   BerconGradient.obj
 0001:00048cc0       ?dtor$0@?0???0BerconCurveDlgProcNOISE@@QEAA@PEAVBerconNoise@@@Z@4HA 0000000180049cc0 f   BerconNoise.obj
 0001:00048cc0       ?dtor$0@?0???0BerconTileDlgProc@@QEAA@PEAVBerconTile@@@Z@4HA 0000000180049cc0 f   BerconTile.obj
 0001:00048cc0       ?dtor$0@?0???1BerconWoodDlgProc@@UEAA@XZ@4HA 0000000180049cc0 f   BerconWood.obj
 0001:00048cc0       ?dtor$0@?0???1BerconNoiseDlgProc@@UEAA@XZ@4HA 0000000180049cc0 f   BerconNoise.obj
 0001:00048cc0       ?dtor$0@?0???0BerconXYZDlgProc@@QEAA@PEAVReferenceTarget@@@Z@4HA 0000000180049cc0 f   BerconDistortion.obj
 0001:00048ce0       ?dtor$0@?0???1ICustomControl@@UEAA@XZ@4HA 0000000180049ce0 f   BerconGradient.obj
 0001:00048ce0       ?dtor$0@?0???0ICustomControl@@QEAA@XZ@4HA 0000000180049ce0 f   BerconGradient.obj
 0001:00048d00       ?dtor$0@?0???0IGradient@@QEAA@PEAUHWND__@@PEAVGradientRamp@@@Z@4HA 0000000180049d00 f   BerconGradient.obj
 0001:00048d20       ?dtor$0@?0???1BerconGradient@@UEAA@XZ@4HA 0000000180049d20 f   BerconGradient.obj
 0001:00048d40       ?dtor$0@?0???1IGradient@@UEAA@XZ@4HA 0000000180049d40 f   BerconGradient.obj
 0001:00048d60       ?dtor$0@?0??DlgProc@BerconGradientDlgProc@@UEAA_JHPEAVIParamMap2@@PEAUHWND__@@I_K_J@Z@4HA 0000000180049d60 f   BerconGradient.obj
 0001:00048d80       ?dtor$0@?0??GetSubTexmapSlotName@BerconGradient@@UEAA?AVWStr@@H@Z@4HA 0000000180049d80 f   BerconGradient.obj
 0001:00048da7       ?dtor$1@?0??GetSubTexmapSlotName@BerconGradient@@UEAA?AVWStr@@H@Z@4HA 0000000180049da7 f   BerconGradient.obj
 0001:00048dc0       ?dtor$0@?0??gradAddKey@BerconGradient@@UEAAXM@Z@4HA 0000000180049dc0 f   BerconGradient.obj
 0001:00048de0       ?dtor$0@?0??gradDelKey@BerconGradient@@UEAAXH@Z@4HA 0000000180049de0 f   BerconGradient.obj
 0001:00048e00       ?dtor$0@?0??gradMoveKey@BerconGradient@@UEAAXHM@Z@4HA 0000000180049e00 f   BerconGradient.obj
 0001:00048e20       ?dtor$0@?0??gradSelKey@BerconGradient@@UEAAXXZ@4HA 0000000180049e20 f   BerconGradient.obj
 0001:00048e40       ?dtor$0@?0??keyColorChanged@BerconGradient@@QEAAXVAColor@@@Z@4HA 0000000180049e40 f   BerconGradient.obj
 0001:00048e60       ?dtor$0@?0??keyNumChanged@BerconGradient@@QEAAXH@Z@4HA 0000000180049e60 f   BerconGradient.obj
 0001:00048e80       ?dtor$0@?0??keyPosChanged@BerconGradient@@QEAAXM@Z@4HA 0000000180049e80 f   BerconGradient.obj
 0001:00048ea0       ?dtor$0@?0???0BerconWood@@QEAA@XZ@4HA 0000000180049ea0 f   BerconWood.obj
 0001:00048ea0       ?dtor$0@?0???0BerconNoise@@QEAA@XZ@4HA 0000000180049ea0 f   BerconNoise.obj
 0001:00048ea0       ?dtor$0@?0???1BerconWood@@UEAA@XZ@4HA 0000000180049ea0 f   BerconWood.obj
 0001:00048ea0       ?dtor$0@?0???1BerconDistortion@@UEAA@XZ@4HA 0000000180049ea0 f   BerconDistortion.obj
 0001:00048ea0       ?dtor$0@?0???1BerconNoise@@UEAA@XZ@4HA 0000000180049ea0 f   BerconNoise.obj
 0001:00048ea0       ?dtor$0@?0???0BerconDistortion@@QEAA@XZ@4HA 0000000180049ea0 f   BerconDistortion.obj
 0001:00048ec0       ?dtor$0@?0??CreateParamDlg@BerconGradient@@UEAAPEAVParamDlg@@PEAUHWND__@@PEAVIMtlParams@@@Z@4HA 0000000180049ec0 f   BerconGradient.obj
 0001:00048ec0       ?dtor$0@?0??CreateParamDlg@BerconWood@@UEAAPEAVParamDlg@@PEAUHWND__@@PEAVIMtlParams@@@Z@4HA 0000000180049ec0 f   BerconWood.obj
 0001:00048ec0       ?dtor$0@?0??CreateParamDlg@BerconNoise@@UEAAPEAVParamDlg@@PEAUHWND__@@PEAVIMtlParams@@@Z@4HA 0000000180049ec0 f   BerconNoise.obj
 0001:00048ed9       ?dtor$1@?0??CreateParamDlg@BerconGradient@@UEAAPEAVParamDlg@@PEAUHWND__@@PEAVIMtlParams@@@Z@4HA 0000000180049ed9 f   BerconGradient.obj
 0001:00048ed9       ?dtor$1@?0??CreateParamDlg@BerconWood@@UEAAPEAVParamDlg@@PEAUHWND__@@PEAVIMtlParams@@@Z@4HA 0000000180049ed9 f   BerconWood.obj
 0001:00048ed9       ?dtor$1@?0??CreateParamDlg@BerconNoise@@UEAAPEAVParamDlg@@PEAUHWND__@@PEAVIMtlParams@@@Z@4HA 0000000180049ed9 f   BerconNoise.obj
 0001:00048ef2       ?dtor$2@?0??CreateParamDlg@BerconWood@@UEAAPEAVParamDlg@@PEAUHWND__@@PEAVIMtlParams@@@Z@4HA 0000000180049ef2 f   BerconWood.obj
 0001:00048ef2       ?dtor$2@?0??CreateParamDlg@BerconGradient@@UEAAPEAVParamDlg@@PEAUHWND__@@PEAVIMtlParams@@@Z@4HA 0000000180049ef2 f   BerconGradient.obj
 0001:00048ef2       ?dtor$2@?0??CreateParamDlg@BerconNoise@@UEAAPEAVParamDlg@@PEAUHWND__@@PEAVIMtlParams@@@Z@4HA 0000000180049ef2 f   BerconNoise.obj
 0001:00048f10       ?dtor$0@?0???0?$_Vector_val@U?$_Simple_types@V?$basic_string@_WU?$char_traits@_W@std@@V?$allocator@_W@2@@std@@@std@@@std@@QEAA@XZ@4HA 0000000180049f10 f   tile.obj
 0001:00048f10       ?dtor$0@?0???1?$_Vector_val@U?$_Simple_types@V?$basic_string@_WU?$char_traits@_W@std@@V?$allocator@_W@2@@std@@@std@@@std@@QEAA@XZ@4HA 0000000180049f10 f   tile.obj
 0001:00048f10       ?dtor$0@?0???0?$_Vector_val@U?$_Simple_types@M@std@@@std@@QEAA@XZ@4HA 0000000180049f10 f   BerconTile.obj
 0001:00048f10       ?dtor$0@?0???1?$_Vector_val@U?$_Simple_types@M@std@@@std@@QEAA@XZ@4HA 0000000180049f10 f   BerconTile.obj
 0001:00048f10       ?dtor$0@?0???1?$_Vector_val@U?$_Simple_types@VTileRow@@@std@@@std@@QEAA@XZ@4HA 0000000180049f10 f   BerconTile.obj
 0001:00048f10       ?dtor$0@?0???0?$_Vector_val@U?$_Simple_types@VTileRow@@@std@@@std@@QEAA@XZ@4HA 0000000180049f10 f   BerconTile.obj
 0001:00048f30       ?dtor$0@?0???0BerconTile@@QEAA@XZ@4HA 0000000180049f30 f   BerconTile.obj
 0001:00048f30       ?dtor$0@?0???1BerconTile@@UEAA@XZ@4HA 0000000180049f30 f   BerconTile.obj
 0001:00048f48       ?dtor$1@?0???1BerconTile@@UEAA@XZ@4HA 0000000180049f48 f   BerconTile.obj
 0001:00048f48       ?dtor$1@?0???0BerconTile@@QEAA@XZ@4HA 0000000180049f48 f   BerconTile.obj
 0001:00048f70       ?dtor$0@?0???0TilePattern@@QEAA@XZ@4HA 0000000180049f70 f   BerconTile.obj
 0001:00048f70       ?dtor$0@?0???1TilePattern@@QEAA@XZ@4HA 0000000180049f70 f   BerconTile.obj
 0001:00048f8c       ?dtor$1@?0???1TilePattern@@QEAA@XZ@4HA 0000000180049f8c f   BerconTile.obj
 0001:00048f8c       ?dtor$1@?0???0TilePattern@@QEAA@XZ@4HA 0000000180049f8c f   BerconTile.obj
 0001:00048fb0       ?dtor$0@?0???1?$_Compressed_pair@U?$_Wrap_alloc@V?$allocator@VTileRow@@@std@@@std@@V?$_Vector_val@U?$_Simple_types@VTileRow@@@std@@@2@$00@std@@QEAA@XZ@4HA 0000000180049fb0 f   BerconTile.obj
 0001:00048fb0       ?dtor$0@?0???$?0$$V@?$_Compressed_pair@U?$_Wrap_alloc@V?$allocator@VTileRow@@@std@@@std@@V?$_Vector_val@U?$_Simple_types@VTileRow@@@std@@@2@$00@std@@QEAA@U_Zero_then_variadic_args_t@1@@Z@4HA 0000000180049fb0 f   BerconTile.obj
 0001:00048fd0       ?dtor$0@?0???0?$_String_alloc@U?$_String_base_types@_WV?$allocator@_W@std@@@std@@@std@@QEAA@XZ@4HA 0000000180049fd0 f   BerconTile.obj
 0001:00048fd0       ?dtor$0@?0???1?$_String_alloc@U?$_String_base_types@_WV?$allocator@_W@std@@@std@@@std@@QEAA@XZ@4HA 0000000180049fd0 f   BerconTile.obj
 0001:00048fd0       ?dtor$0@?0???$?0AEBV?$allocator@_W@std@@X@?$_String_alloc@U?$_String_base_types@_WV?$allocator@_W@std@@@std@@@std@@QEAA@AEBV?$allocator@_W@1@@Z@4HA 0000000180049fd0 f   tile.obj
 0001:00048fd0       ?dtor$0@?0???$?0U?$_Wrap_alloc@V?$allocator@_W@std@@@std@@X@?$_String_alloc@U?$_String_base_types@_WV?$allocator@_W@std@@@std@@@std@@QEAA@$$QEAU?$_Wrap_alloc@V?$allocator@_W@std@@@1@@Z@4HA 0000000180049fd0 f   tile.obj
 0001:00048ff0       ?dtor$0@?0???0?$_String_val@U?$_Simple_types@_W@std@@@std@@QEAA@XZ@4HA 0000000180049ff0 f   BerconTile.obj
 0001:00048ff0       ?dtor$0@?0???1?$_String_val@U?$_Simple_types@_W@std@@@std@@QEAA@XZ@4HA 0000000180049ff0 f   BerconTile.obj
 0001:00049008       ?dtor$1@?0???0?$_String_val@U?$_Simple_types@_W@std@@@std@@QEAA@XZ@4HA 000000018004a008 f   BerconTile.obj
 0001:00049008       ?dtor$1@?0???1?$_String_val@U?$_Simple_types@_W@std@@@std@@QEAA@XZ@4HA 000000018004a008 f   BerconTile.obj
 0001:00049030       ?dtor$0@?0???0?$_Vector_alloc@U?$_Vec_base_types@MV?$allocator@M@std@@@std@@@std@@QEAA@XZ@4HA 000000018004a030 f   BerconTile.obj
 0001:00049030       ?dtor$0@?0???1?$_Vector_alloc@U?$_Vec_base_types@MV?$allocator@M@std@@@std@@@std@@QEAA@XZ@4HA 000000018004a030 f   BerconTile.obj
 0001:00049030       ?dtor$0@?0???$?0U?$_Wrap_alloc@V?$allocator@M@std@@@std@@X@?$_Vector_alloc@U?$_Vec_base_types@MV?$allocator@M@std@@@std@@@std@@QEAA@$$QEAU?$_Wrap_alloc@V?$allocator@M@std@@@1@@Z@4HA 000000018004a030 f   tile.obj
 0001:00049050       ?dtor$0@?0???0?$_Vector_alloc@U?$_Vec_base_types@VTileRow@@V?$allocator@VTileRow@@@std@@@std@@@std@@QEAA@XZ@4HA 000000018004a050 f   BerconTile.obj
 0001:00049050       ?dtor$0@?0???1?$_Vector_alloc@U?$_Vec_base_types@VTileRow@@V?$allocator@VTileRow@@@std@@@std@@@std@@QEAA@XZ@4HA 000000018004a050 f   BerconTile.obj
 0001:00049070       ?dtor$0@?0???1?$vector@VTileRow@@V?$allocator@VTileRow@@@std@@@std@@QEAA@XZ@4HA 000000018004a070 f   BerconTile.obj
 0001:00049070       ?dtor$0@?0???0?$vector@VTileRow@@V?$allocator@VTileRow@@@std@@@std@@QEAA@XZ@4HA 000000018004a070 f   BerconTile.obj
 0001:00049090       ?dtor$0@?0???1TileRow@@QEAA@XZ@4HA 000000018004a090 f   BerconTile.obj
 0001:00049090       ?dtor$0@?0???0TileRow@@QEAA@AEBV0@@Z@4HA 000000018004a090 f   tile.obj
 0001:00049090       ?dtor$0@?0???0TileRow@@QEAA@$$QEAV0@@Z@4HA 000000018004a090 f   tile.obj
 0001:00049090       ?dtor$0@?0???0TileRow@@QEAA@M@Z@4HA 000000018004a090 f   tile.obj
 0001:000490b0       ?dtor$0@?0??Clone@BerconGradient@@UEAAPEAVReferenceTarget@@AEAVRemapDir@@@Z@4HA 000000018004a0b0 f   BerconGradient.obj
 0001:000490b0       ?dtor$0@?0??Clone@BerconNoise@@UEAAPEAVReferenceTarget@@AEAVRemapDir@@@Z@4HA 000000018004a0b0 f   BerconNoise.obj
 0001:000490b0       ?dtor$0@?0??Clone@BerconDistortion@@UEAAPEAVReferenceTarget@@AEAVRemapDir@@@Z@4HA 000000018004a0b0 f   BerconDistortion.obj
 0001:000490b0       ?dtor$0@?0??Clone@BerconWood@@UEAAPEAVReferenceTarget@@AEAVRemapDir@@@Z@4HA 000000018004a0b0 f   BerconWood.obj
 0001:000490b0       ?dtor$0@?0??Clone@BerconTile@@UEAAPEAVReferenceTarget@@AEAVRemapDir@@@Z@4HA 000000018004a0b0 f   BerconTile.obj
 0001:000490d0       ?dtor$0@?0??CreateParamDlg@BerconTile@@UEAAPEAVParamDlg@@PEAUHWND__@@PEAVIMtlParams@@@Z@4HA 000000018004a0d0 f   BerconTile.obj
 0001:000490e9       ?dtor$1@?0??CreateParamDlg@BerconTile@@UEAAPEAVParamDlg@@PEAUHWND__@@PEAVIMtlParams@@@Z@4HA 000000018004a0e9 f   BerconTile.obj
 0001:00049110       ?dtor$0@?0??EvalColor@BerconTile@@UEAA?AVAColor@@AEAVShadeContext@@@Z@4HA 000000018004a110 f   BerconTile.obj
 0001:00049130       ?dtor$0@?0??EvalNormalPerturb@BerconTile@@UEAA?AVPoint3@@AEAVShadeContext@@@Z@4HA 000000018004a130 f   BerconTile.obj
 0001:00049150       ?dtor$0@?0??Update@BerconTile@@UEAAXHAEAVInterval@@@Z@4HA 000000018004a150 f   BerconTile.obj
 0001:00049170       ?catch$1@?0??_Copy@?$basic_string@_WU?$char_traits@_W@std@@V?$allocator@_W@2@@std@@QEAAX_K0@Z@4HA 000000018004a170 f   BerconTile.obj
 0001:0004917d       __catch$?_Copy@?$basic_string@_WU?$char_traits@_W@std@@V?$allocator@_W@2@@std@@QEAAX_K0@Z$0 000000018004a17d f   BerconTile.obj
 0001:000491c2       ?catch$0@?0??_Copy@?$basic_string@_WU?$char_traits@_W@std@@V?$allocator@_W@2@@std@@QEAAX_K0@Z@4HA 000000018004a1c2 f   BerconTile.obj
 0001:000491cf       __catch$?_Copy@?$basic_string@_WU?$char_traits@_W@std@@V?$allocator@_W@2@@std@@QEAAX_K0@Z$1 000000018004a1cf f   BerconTile.obj
 0001:00049200       ?dtor$0@?0??_Orphan_all@_Container_base12@std@@QEAAXXZ@4HA 000000018004a200 f   BerconTile.obj
 0001:00049200       ?dtor$0@?0??_Orphan_range@?$vector@VTileRow@@V?$allocator@VTileRow@@@std@@@std@@IEBAXPEAVTileRow@@0@Z@4HA 000000018004a200 f   tile.obj
 0001:00049200       ?dtor$0@?0??_Orphan_range@?$vector@V?$basic_string@_WU?$char_traits@_W@std@@V?$allocator@_W@2@@std@@V?$allocator@V?$basic_string@_WU?$char_traits@_W@std@@V?$allocator@_W@2@@std@@@2@@std@@IEBAXPEAV?$basic_string@_WU?$char_traits@_W@std@@V?$allocator@_W@2@@2@0@Z@4HA 000000018004a200 f   tile.obj
 0001:00049200       ?dtor$0@?0??_Swap_all@_Container_base12@std@@QEAAXAEAU12@@Z@4HA 000000018004a200 f   tile.obj
 0001:00049200       ?dtor$0@?0??_Orphan_range@?$vector@MV?$allocator@M@std@@@std@@IEBAXPEAM0@Z@4HA 000000018004a200 f   tile.obj
 0001:00049220       ?dtor$0@?0??addKey@GradientRamp@@QEAAXHMVAColor@@PEAVTexmap@@@Z@4HA 000000018004a220 f   GradientRamp.obj
 0001:00049240       ?dtor$0@?0??update@CurveCtrl@@SAXPEAVICurveCtl@@PEAUHWND__@@PEAVReferenceMaker@@@Z@4HA 000000018004a240 f   curvectrl.obj
 0001:00049260       ?dtor$0@?0???$?0$$V@?$_Compressed_pair@U?$_Wrap_alloc@V?$allocator@V?$basic_string@_WU?$char_traits@_W@std@@V?$allocator@_W@2@@std@@@std@@@std@@V?$_Vector_val@U?$_Simple_types@V?$basic_string@_WU?$char_traits@_W@std@@V?$allocator@_W@2@@std@@@std@@@2@$00@std@@QEAA@U_Zero_then_variadic_args_t@1@@Z@4HA 000000018004a260 f   tile.obj
 0001:00049260       ?dtor$0@?0???1?$_Compressed_pair@U?$_Wrap_alloc@V?$allocator@V?$basic_string@_WU?$char_traits@_W@std@@V?$allocator@_W@2@@std@@@std@@@std@@V?$_Vector_val@U?$_Simple_types@V?$basic_string@_WU?$char_traits@_W@std@@V?$allocator@_W@2@@std@@@std@@@2@$00@std@@QEAA@XZ@4HA 000000018004a260 f   tile.obj
 0001:00049280       ?dtor$0@?0???$?0U?$_Wrap_alloc@V?$allocator@M@std@@@std@@$$V@?$_Compressed_pair@U?$_Wrap_alloc@V?$allocator@M@std@@@std@@V?$_Vector_val@U?$_Simple_types@M@std@@@2@$00@std@@QEAA@U_One_then_variadic_args_t@1@$$QEAU?$_Wrap_alloc@V?$allocator@M@std@@@1@@Z@4HA 000000018004a280 f   tile.obj
 0001:00049280       ?dtor$0@?0???1?$_Compressed_pair@U?$_Wrap_alloc@V?$allocator@M@std@@@std@@V?$_Vector_val@U?$_Simple_types@M@std@@@2@$00@std@@QEAA@XZ@4HA 000000018004a280 f   BerconTile.obj
 0001:00049280       ?dtor$0@?0???$?0$$V@?$_Compressed_pair@U?$_Wrap_alloc@V?$allocator@M@std@@@std@@V?$_Vector_val@U?$_Simple_types@M@std@@@2@$00@std@@QEAA@U_Zero_then_variadic_args_t@1@@Z@4HA 000000018004a280 f   BerconTile.obj
 0001:000492a0       ?dtor$0@?0???$?0U?$_Wrap_alloc@V?$allocator@_W@std@@@std@@$$V@?$_Compressed_pair@U?$_Wrap_alloc@V?$allocator@_W@std@@@std@@V?$_String_val@U?$_Simple_types@_W@std@@@2@$00@std@@QEAA@U_One_then_variadic_args_t@1@$$QEAU?$_Wrap_alloc@V?$allocator@_W@std@@@1@@Z@4HA 000000018004a2a0 f   tile.obj
 0001:000492a0       ?dtor$0@?0???$?0$$V@?$_Compressed_pair@U?$_Wrap_alloc@V?$allocator@_W@std@@@std@@V?$_String_val@U?$_Simple_types@_W@std@@@2@$00@std@@QEAA@U_Zero_then_variadic_args_t@1@@Z@4HA 000000018004a2a0 f   BerconTile.obj
 0001:000492a0       ?dtor$0@?0???1?$_Compressed_pair@U?$_Wrap_alloc@V?$allocator@_W@std@@@std@@V?$_String_val@U?$_Simple_types@_W@std@@@2@$00@std@@QEAA@XZ@4HA 000000018004a2a0 f   BerconTile.obj
 0001:000492a0       ?dtor$0@?0???$?0AEBV?$allocator@_W@std@@$$V@?$_Compressed_pair@U?$_Wrap_alloc@V?$allocator@_W@std@@@std@@V?$_String_val@U?$_Simple_types@_W@std@@@2@$00@std@@QEAA@U_One_then_variadic_args_t@1@AEBV?$allocator@_W@1@@Z@4HA 000000018004a2a0 f   tile.obj
 0001:000492c0       ?dtor$0@?0???$_Ucopy@V?$_Vector_const_iterator@V?$_Vector_val@U?$_Simple_types@M@std@@@std@@@std@@@?$vector@MV?$allocator@M@std@@@std@@IEAAPEAMV?$_Vector_const_iterator@V?$_Vector_val@U?$_Simple_types@M@std@@@std@@@1@0PEAM@Z@4HA 000000018004a2c0 f   tile.obj
 0001:000492db       ?dtor$1@?0???$_Ucopy@V?$_Vector_const_iterator@V?$_Vector_val@U?$_Simple_types@M@std@@@std@@@std@@@?$vector@MV?$allocator@M@std@@@std@@IEAAPEAMV?$_Vector_const_iterator@V?$_Vector_val@U?$_Simple_types@M@std@@@std@@@1@0PEAM@Z@4HA 000000018004a2db f   tile.obj
 0001:000492f6       ?dtor$2@?0???$_Ucopy@V?$_Vector_const_iterator@V?$_Vector_val@U?$_Simple_types@M@std@@@std@@@std@@@?$vector@MV?$allocator@M@std@@@std@@IEAAPEAMV?$_Vector_const_iterator@V?$_Vector_val@U?$_Simple_types@M@std@@@std@@@1@0PEAM@Z@4HA 000000018004a2f6 f   tile.obj
 0001:0004930e       ?dtor$3@?0???$_Ucopy@V?$_Vector_const_iterator@V?$_Vector_val@U?$_Simple_types@M@std@@@std@@@std@@@?$vector@MV?$allocator@M@std@@@std@@IEAAPEAMV?$_Vector_const_iterator@V?$_Vector_val@U?$_Simple_types@M@std@@@std@@@1@0PEAM@Z@4HA 000000018004a30e f   tile.obj
 0001:00049330       ?dtor$0@?0???$_Unchecked@V?$_Vector_val@U?$_Simple_types@M@std@@@std@@@std@@YAPEBMV?$_Vector_const_iterator@V?$_Vector_val@U?$_Simple_types@M@std@@@std@@@0@@Z@4HA 000000018004a330 f   tile.obj
 0001:00049350       ?dtor$0@?0???$_Uninitialized_copy@V?$_Vector_const_iterator@V?$_Vector_val@U?$_Simple_types@M@std@@@std@@@std@@PEAMV?$allocator@M@2@@std@@YAPEAMV?$_Vector_const_iterator@V?$_Vector_val@U?$_Simple_types@M@std@@@std@@@0@0PEAMAEAU?$_Wrap_alloc@V?$allocator@M@std@@@0@@Z@4HA 000000018004a350 f   tile.obj
 0001:0004936b       ?dtor$1@?0???$_Uninitialized_copy@V?$_Vector_const_iterator@V?$_Vector_val@U?$_Simple_types@M@std@@@std@@@std@@PEAMV?$allocator@M@2@@std@@YAPEAMV?$_Vector_const_iterator@V?$_Vector_val@U?$_Simple_types@M@std@@@std@@@0@0PEAMAEAU?$_Wrap_alloc@V?$allocator@M@std@@@0@@Z@4HA 000000018004a36b f   tile.obj
 0001:00049386       ?dtor$2@?0???$_Uninitialized_copy@V?$_Vector_const_iterator@V?$_Vector_val@U?$_Simple_types@M@std@@@std@@@std@@PEAMV?$allocator@M@2@@std@@YAPEAMV?$_Vector_const_iterator@V?$_Vector_val@U?$_Simple_types@M@std@@@std@@@0@0PEAMAEAU?$_Wrap_alloc@V?$allocator@M@std@@@0@@Z@4HA 000000018004a386 f   tile.obj
 0001:0004939e       ?dtor$3@?0???$_Uninitialized_copy@V?$_Vector_const_iterator@V?$_Vector_val@U?$_Simple_types@M@std@@@std@@@std@@PEAMV?$allocator@M@2@@std@@YAPEAMV?$_Vector_const_iterator@V?$_Vector_val@U?$_Simple_types@M@std@@@std@@@0@0PEAMAEAU?$_Wrap_alloc@V?$allocator@M@std@@@0@@Z@4HA 000000018004a39e f   tile.obj
 0001:000493c0       ?catch$0@?0???$_Uninitialized_move_al_unchecked1@PEAV?$basic_string@_WU?$char_traits@_W@std@@V?$allocator@_W@2@@std@@PEAV12@V?$allocator@V?$basic_string@_WU?$char_traits@_W@std@@V?$allocator@_W@2@@std@@@2@@std@@YAPEAV?$basic_string@_WU?$char_traits@_W@std@@V?$allocator@_W@2@@0@PEAV10@00AEAU?$_Wrap_alloc@V?$allocator@V?$basic_string@_WU?$char_traits@_W@std@@V?$allocator@_W@2@@std@@@std@@@0@U_General_ptr_iterator_tag@0@U_Any_tag@0@@Z@4HA 000000018004a3c0 f   tile.obj
 0001:000493cd       __catch$??$_Uninitialized_move_al_unchecked1@PEAV?$basic_string@_WU?$char_traits@_W@std@@V?$allocator@_W@2@@std@@PEAV12@V?$allocator@V?$basic_string@_WU?$char_traits@_W@std@@V?$allocator@_W@2@@std@@@2@@std@@YAPEAV?$basic_string@_WU?$char_traits@_W@std@@V?$allocator@_W@2@@0@PEAV10@00AEAU?$_Wrap_alloc@V?$allocator@V?$basic_string@_WU?$char_traits@_W@std@@V?$allocator@_W@2@@std@@@std@@@0@U_General_ptr_iterator_tag@0@U_Any_tag@0@@Z$0 000000018004a3cd f   tile.obj
 0001:00049400       ?catch$0@?0???$_Uninitialized_move_al_unchecked1@PEAVTileRow@@PEAV1@V?$allocator@VTileRow@@@std@@@std@@YAPEAVTileRow@@PEAV1@00AEAU?$_Wrap_alloc@V?$allocator@VTileRow@@@std@@@0@U_General_ptr_iterator_tag@0@U_Any_tag@0@@Z@4HA 000000018004a400 f   tile.obj
 0001:0004940d       __catch$??$_Uninitialized_move_al_unchecked1@PEAVTileRow@@PEAV1@V?$allocator@VTileRow@@@std@@@std@@YAPEAVTileRow@@PEAV1@00AEAU?$_Wrap_alloc@V?$allocator@VTileRow@@@std@@@0@U_General_ptr_iterator_tag@0@U_Any_tag@0@@Z$0 000000018004a40d f   tile.obj
 0001:00049440       ?dtor$0@?0???$construct@VTileRow@@AEBV1@@?$allocator@VTileRow@@@std@@QEAAXPEAVTileRow@@AEBV2@@Z@4HA 000000018004a440 f   tile.obj
 0001:00049440       ?dtor$0@?0???$construct@VTileRow@@AEAV1@@?$allocator@VTileRow@@@std@@QEAAXPEAVTileRow@@AEAV2@@Z@4HA 000000018004a440 f   tile.obj
 0001:00049460       ?dtor$0@?0???0?$_Iterator012@Urandom_access_iterator_tag@std@@M_JPEBMAEBMU_Iterator_base12@2@@std@@QEAA@XZ@4HA 000000018004a460 f   tile.obj
 0001:00049460       ?dtor$0@?0???1?$_Iterator012@Urandom_access_iterator_tag@std@@M_JPEBMAEBMU_Iterator_base12@2@@std@@QEAA@XZ@4HA 000000018004a460 f   tile.obj
 0001:00049460       ?dtor$0@?0???0?$_Iterator012@Urandom_access_iterator_tag@std@@M_JPEBMAEBMU_Iterator_base12@2@@std@@QEAA@AEBU01@@Z@4HA 000000018004a460 f   tile.obj
 0001:00049480       ?dtor$0@?0???0?$_Vector_alloc@U?$_Vec_base_types@V?$basic_string@_WU?$char_traits@_W@std@@V?$allocator@_W@2@@std@@V?$allocator@V?$basic_string@_WU?$char_traits@_W@std@@V?$allocator@_W@2@@std@@@2@@std@@@std@@QEAA@XZ@4HA 000000018004a480 f   tile.obj
 0001:00049480       ?dtor$0@?0???1?$_Vector_alloc@U?$_Vec_base_types@V?$basic_string@_WU?$char_traits@_W@std@@V?$allocator@_W@2@@std@@V?$allocator@V?$basic_string@_WU?$char_traits@_W@std@@V?$allocator@_W@2@@std@@@2@@std@@@std@@QEAA@XZ@4HA 000000018004a480 f   tile.obj
 0001:000494a0       ?dtor$0@?0???0?$_Vector_const_iterator@V?$_Vector_val@U?$_Simple_types@M@std@@@std@@@std@@QEAA@PEAMPEBU_Container_base12@1@@Z@4HA 000000018004a4a0 f   tile.obj
 0001:000494a0       ?dtor$0@?0???0?$_Vector_const_iterator@V?$_Vector_val@U?$_Simple_types@M@std@@@std@@@std@@QEAA@AEBV01@@Z@4HA 000000018004a4a0 f   tile.obj
 0001:000494a0       ?dtor$0@?0???1?$_Vector_const_iterator@V?$_Vector_val@U?$_Simple_types@M@std@@@std@@@std@@QEAA@XZ@4HA 000000018004a4a0 f   tile.obj
 0001:000494c0       ?dtor$0@?0???0?$basic_string@_WU?$char_traits@_W@std@@V?$allocator@_W@2@@std@@QEAA@PEB_W@Z@4HA 000000018004a4c0 f   BerconTile.obj
 0001:000494c0       ?dtor$0@?0???0?$basic_string@_WU?$char_traits@_W@std@@V?$allocator@_W@2@@std@@QEAA@AEBV01@@Z@4HA 000000018004a4c0 f   tile.obj
 0001:000494c0       ?dtor$0@?0???0?$basic_string@_WU?$char_traits@_W@std@@V?$allocator@_W@2@@std@@QEAA@$$QEAV01@@Z@4HA 000000018004a4c0 f   tile.obj
 0001:000494c0       ?dtor$0@?0???1?$basic_string@_WU?$char_traits@_W@std@@V?$allocator@_W@2@@std@@QEAA@XZ@4HA 000000018004a4c0 f   BerconTile.obj
 0001:000494c0       ?dtor$0@?0???0?$basic_string@_WU?$char_traits@_W@std@@V?$allocator@_W@2@@std@@QEAA@AEBV01@_K1AEBV?$allocator@_W@1@@Z@4HA 000000018004a4c0 f   tile.obj
 0001:000494e0       ?dtor$0@?0???0?$basic_stringbuf@_WU?$char_traits@_W@std@@V?$allocator@_W@2@@std@@QEAA@AEBV?$basic_string@_WU?$char_traits@_W@std@@V?$allocator@_W@2@@1@H@Z@4HA 000000018004a4e0 f   tile.obj
 0001:00049500       ?dtor$0@?0???0?$basic_stringstream@_WU?$char_traits@_W@std@@V?$allocator@_W@2@@std@@QEAA@AEBV?$basic_string@_WU?$char_traits@_W@std@@V?$allocator@_W@2@@1@H@Z@4HA 000000018004a500 f   tile.obj
 0001:0004952e       ?dtor$1@?0???0?$basic_stringstream@_WU?$char_traits@_W@std@@V?$allocator@_W@2@@std@@QEAA@AEBV?$basic_string@_WU?$char_traits@_W@std@@V?$allocator@_W@2@@1@H@Z@4HA 000000018004a52e f   tile.obj
 0001:0004954b       ?dtor$2@?0???0?$basic_stringstream@_WU?$char_traits@_W@std@@V?$allocator@_W@2@@std@@QEAA@AEBV?$basic_string@_WU?$char_traits@_W@std@@V?$allocator@_W@2@@1@H@Z@4HA 000000018004a54b f   tile.obj
 0001:00049570       ?dtor$0@?0???0?$vector@MV?$allocator@M@std@@@std@@QEAA@XZ@4HA 000000018004a570 f   BerconTile.obj
 0001:00049570       ?dtor$0@?0???1?$vector@MV?$allocator@M@std@@@std@@QEAA@XZ@4HA 000000018004a570 f   BerconTile.obj
 0001:00049570       ?dtor$0@?0???0?$vector@MV?$allocator@M@std@@@std@@QEAA@$$QEAV01@@Z@4HA 000000018004a570 f   tile.obj
 0001:00049590       ?dtor$0@?0???0?$vector@MV?$allocator@M@std@@@std@@QEAA@AEBV01@@Z@4HA 000000018004a590 f   tile.obj
 0001:000495ab       ?dtor$1@?0???0?$vector@MV?$allocator@M@std@@@std@@QEAA@AEBV01@@Z@4HA 000000018004a5ab f   tile.obj
 0001:000495c3       ?dtor$2@?0???0?$vector@MV?$allocator@M@std@@@std@@QEAA@AEBV01@@Z@4HA 000000018004a5c3 f   tile.obj
 0001:000495db       ?catch$3@?0???0?$vector@MV?$allocator@M@std@@@std@@QEAA@AEBV01@@Z@4HA 000000018004a5db f   tile.obj
 0001:000495e8       __catch$??0?$vector@MV?$allocator@M@std@@@std@@QEAA@AEBV01@@Z$0 000000018004a5e8 f   tile.obj
 0001:00049610       ?dtor$0@?0???1?$vector@V?$basic_string@_WU?$char_traits@_W@std@@V?$allocator@_W@2@@std@@V?$allocator@V?$basic_string@_WU?$char_traits@_W@std@@V?$allocator@_W@2@@std@@@2@@std@@QEAA@XZ@4HA 000000018004a610 f   tile.obj
 0001:00049610       ?dtor$0@?0???0?$vector@V?$basic_string@_WU?$char_traits@_W@std@@V?$allocator@_W@2@@std@@V?$allocator@V?$basic_string@_WU?$char_traits@_W@std@@V?$allocator@_W@2@@std@@@2@@std@@QEAA@XZ@4HA 000000018004a610 f   tile.obj
 0001:00049630       ?dtor$0@?0???1?$basic_stringbuf@_WU?$char_traits@_W@std@@V?$allocator@_W@2@@std@@UEAA@XZ@4HA 000000018004a630 f   tile.obj
 0001:00049650       ?dtor$0@?0???1?$basic_stringstream@_WU?$char_traits@_W@std@@V?$allocator@_W@2@@std@@UEAA@XZ@4HA 000000018004a650 f   tile.obj
 0001:00049674       ?dtor$1@?0???1?$basic_stringstream@_WU?$char_traits@_W@std@@V?$allocator@_W@2@@std@@UEAA@XZ@4HA 000000018004a674 f   tile.obj
 0001:000496a0       ?dtor$0@?0???4_Iterator_base12@std@@QEAAAEAU01@AEBU01@@Z@4HA 000000018004a6a0 f   tile.obj
 0001:000496a0       ?dtor$0@?0???1_Iterator_base12@std@@QEAA@XZ@4HA 000000018004a6a0 f   tile.obj
 0001:000496c0       ?dtor$0@?0??_Adopt@_Iterator_base12@std@@QEAAXPEBU_Container_base12@2@@Z@4HA 000000018004a6c0 f   tile.obj
 0001:000496d9       ?dtor$1@?0??_Adopt@_Iterator_base12@std@@QEAAXPEBU_Container_base12@2@@Z@4HA 000000018004a6d9 f   tile.obj
 0001:00049700       ?catch$0@?0??_Reallocate@?$vector@MV?$allocator@M@std@@@std@@IEAAX_K@Z@4HA 000000018004a700 f   tile.obj
 0001:0004970d       __catch$?_Reallocate@?$vector@MV?$allocator@M@std@@@std@@IEAAX_K@Z$0 000000018004a70d f   tile.obj
 0001:00049750       ?catch$0@?0??_Reallocate@?$vector@V?$basic_string@_WU?$char_traits@_W@std@@V?$allocator@_W@2@@std@@V?$allocator@V?$basic_string@_WU?$char_traits@_W@std@@V?$allocator@_W@2@@std@@@2@@std@@IEAAX_K@Z@4HA 000000018004a750 f   tile.obj
 0001:0004975d       __catch$?_Reallocate@?$vector@V?$basic_string@_WU?$char_traits@_W@std@@V?$allocator@_W@2@@std@@V?$allocator@V?$basic_string@_WU?$char_traits@_W@std@@V?$allocator@_W@2@@std@@@2@@std@@IEAAX_K@Z$0 000000018004a75d f   tile.obj
 0001:000497a0       ?catch$0@?0??_Reallocate@?$vector@VTileRow@@V?$allocator@VTileRow@@@std@@@std@@IEAAX_K@Z@4HA 000000018004a7a0 f   tile.obj
 0001:000497ad       __catch$?_Reallocate@?$vector@VTileRow@@V?$allocator@VTileRow@@@std@@@std@@IEAAX_K@Z$0 000000018004a7ad f   tile.obj
 0001:000497f0       ?dtor$0@?0??end@?$vector@MV?$allocator@M@std@@@std@@QEBA?AV?$_Vector_const_iterator@V?$_Vector_val@U?$_Simple_types@M@std@@@std@@@2@XZ@4HA 000000018004a7f0 f   tile.obj
 0001:000497f0       ?dtor$0@?0??begin@?$vector@MV?$allocator@M@std@@@std@@QEBA?AV?$_Vector_const_iterator@V?$_Vector_val@U?$_Simple_types@M@std@@@std@@@2@XZ@4HA 000000018004a7f0 f   tile.obj
 0001:00049820       ?dtor$0@?0??parsePattern@@YAHV?$basic_string@_WU?$char_traits@_W@std@@V?$allocator@_W@2@@std@@PEAVTilePattern@@@Z@4HA 000000018004a820 f   tile.obj
 0001:0004983b       ?dtor$1@?0??parsePattern@@YAHV?$basic_string@_WU?$char_traits@_W@std@@V?$allocator@_W@2@@std@@PEAVTilePattern@@@Z@4HA 000000018004a83b f   tile.obj
 0001:00049856       ?dtor$2@?0??parsePattern@@YAHV?$basic_string@_WU?$char_traits@_W@std@@V?$allocator@_W@2@@std@@PEAVTilePattern@@@Z@4HA 000000018004a856 f   tile.obj
 0001:0004986e       ?dtor$3@?0??parsePattern@@YAHV?$basic_string@_WU?$char_traits@_W@std@@V?$allocator@_W@2@@std@@PEAVTilePattern@@@Z@4HA 000000018004a86e f   tile.obj
 0001:00049889       ?dtor$4@?0??parsePattern@@YAHV?$basic_string@_WU?$char_traits@_W@std@@V?$allocator@_W@2@@std@@PEAVTilePattern@@@Z@4HA 000000018004a889 f   tile.obj
 0001:000498a1       ?dtor$5@?0??parsePattern@@YAHV?$basic_string@_WU?$char_traits@_W@std@@V?$allocator@_W@2@@std@@PEAVTilePattern@@@Z@4HA 000000018004a8a1 f   tile.obj
 0001:000498bc       ?dtor$6@?0??parsePattern@@YAHV?$basic_string@_WU?$char_traits@_W@std@@V?$allocator@_W@2@@std@@PEAVTilePattern@@@Z@4HA 000000018004a8bc f   tile.obj
 0001:000498d7       ?dtor$7@?0??parsePattern@@YAHV?$basic_string@_WU?$char_traits@_W@std@@V?$allocator@_W@2@@std@@PEAVTilePattern@@@Z@4HA 000000018004a8d7 f   tile.obj
 0001:000498f2       ?dtor$8@?0??parsePattern@@YAHV?$basic_string@_WU?$char_traits@_W@std@@V?$allocator@_W@2@@std@@PEAVTilePattern@@@Z@4HA 000000018004a8f2 f   tile.obj
 0001:00049910       ?dtor$0@?0??setPattern@TilePattern@@QEAAXV?$basic_string@_WU?$char_traits@_W@std@@V?$allocator@_W@2@@std@@@Z@4HA 000000018004a910 f   tile.obj
 0001:0004992b       ?dtor$1@?0??setPattern@TilePattern@@QEAAXV?$basic_string@_WU?$char_traits@_W@std@@V?$allocator@_W@2@@std@@@Z@4HA 000000018004a92b f   tile.obj
 0001:00049950       ?dtor$0@?0??setPreset@TilePattern@@QEAAXH@Z@4HA 000000018004a950 f   tile.obj
 0001:00049968       ?dtor$1@?0??setPreset@TilePattern@@QEAAXH@Z@4HA 000000018004a968 f   tile.obj
 0001:00049980       ?dtor$2@?0??setPreset@TilePattern@@QEAAXH@Z@4HA 000000018004a980 f   tile.obj
 0001:00049998       ?dtor$3@?0??setPreset@TilePattern@@QEAAXH@Z@4HA 000000018004a998 f   tile.obj
 0001:000499b0       ?dtor$4@?0??setPreset@TilePattern@@QEAAXH@Z@4HA 000000018004a9b0 f   tile.obj
 0001:000499cb       ?dtor$5@?0??setPreset@TilePattern@@QEAAXH@Z@4HA 000000018004a9cb f   tile.obj
 0001:000499e6       ?dtor$6@?0??setPreset@TilePattern@@QEAAXH@Z@4HA 000000018004a9e6 f   tile.obj
 0001:00049a01       ?dtor$7@?0??setPreset@TilePattern@@QEAAXH@Z@4HA 000000018004aa01 f   tile.obj
 0001:00049a1c       ?dtor$8@?0??setPreset@TilePattern@@QEAAXH@Z@4HA 000000018004aa1c f   tile.obj
 0001:00049a37       ?dtor$9@?0??setPreset@TilePattern@@QEAAXH@Z@4HA 000000018004aa37 f   tile.obj
 0001:00049a60       ?dtor$0@?0??substr@?$basic_string@_WU?$char_traits@_W@std@@V?$allocator@_W@2@@std@@QEBA?AV12@_K0@Z@4HA 000000018004aa60 f   tile.obj
 0001:00049a90       ?dtor$0@?0??tokenize@@YAXAEBV?$basic_string@_WU?$char_traits@_W@std@@V?$allocator@_W@2@@std@@AEAV?$vector@V?$basic_string@_WU?$char_traits@_W@std@@V?$allocator@_W@2@@std@@V?$allocator@V?$basic_string@_WU?$char_traits@_W@std@@V?$allocator@_W@2@@std@@@2@@2@0@Z@4HA 000000018004aa90 f   tile.obj
 0001:00049ab0       __scrt_is_nonwritable_in_current_image$filt$0 000000018004aab0 f   MSVCRTD:utility.obj
 0001:00049af0       ?fin$0@?0??dllmain_crt_process_attach@@YAHQEAUHINSTANCE__@@QEAX@Z@4HA 000000018004aaf0 f   MSVCRTD:dll_dllmain.obj
 0001:00049b10       ?fin$0@?0??dllmain_crt_process_detach@@YAH_N@Z@4HA 000000018004ab10 f   MSVCRTD:dll_dllmain.obj
 0001:00049b30       ?filt$0@?0??dllmain_dispatch@@YAHQEAUHINSTANCE__@@KQEAX@Z@4HA 000000018004ab30 f   MSVCRTD:dll_dllmain.obj
 0001:00049b80       ??__FBerconDistortionDesc@@YAXXZ 000000018004ab80 f   BerconDistortion.obj
 0001:00049ba0       ??__FBerconDistortion_param_blk@@YAXXZ 000000018004aba0 f   BerconDistortion.obj
 0001:00049bc0       ??__Fxyz_blk@@YAXXZ        000000018004abc0 f   BerconDistortion.obj
 0001:00049be0       ??__FBerconCurve_param_blk@@YAXXZ 000000018004abe0 f   BerconGradient.obj
 0001:00049c00       ??__FBerconGradientDesc@@YAXXZ 000000018004ac00 f   BerconGradient.obj
 0001:00049c20       ??__Fgradientmap_param_blk@@YAXXZ 000000018004ac20 f   BerconGradient.obj
 0001:00049c40       ??__Fxyz_blk@@YAXXZ        000000018004ac40 f   BerconGradient.obj
 0001:00049c60       ??__FBerconCurve_param_blk@@YAXXZ 000000018004ac60 f   BerconNoise.obj
 0001:00049c80       ??__FBerconMap_param_blk@@YAXXZ 000000018004ac80 f   BerconNoise.obj
 0001:00049ca0       ??__FBerconNoiseDesc@@YAXXZ 000000018004aca0 f   BerconNoise.obj
 0001:00049cc0       ??__Fberconnoise_param_blk@@YAXXZ 000000018004acc0 f   BerconNoise.obj
 0001:00049ce0       ??__Fxyz_blk@@YAXXZ        000000018004ace0 f   BerconNoise.obj
 0001:00049d00       ??__FBerconMap_param_blk@@YAXXZ 000000018004ad00 f   BerconTile.obj
 0001:00049d20       ??__FBerconTileDesc@@YAXXZ 000000018004ad20 f   BerconTile.obj
 0001:00049d40       ??__FBerconTile_param_blk@@YAXXZ 000000018004ad40 f   BerconTile.obj
 0001:00049d60       ??__Fxyz_blk@@YAXXZ        000000018004ad60 f   BerconTile.obj
 0001:00049d80       ??__FBerconCurve_param_blk@@YAXXZ 000000018004ad80 f   BerconWood.obj
 0001:00049da0       ??__FBerconMap_param_blk@@YAXXZ 000000018004ada0 f   BerconWood.obj
 0001:00049dc0       ??__FBerconWoodDesc@@YAXXZ 000000018004adc0 f   BerconWood.obj
 0001:00049de0       ??__FBerconWood_param_blk@@YAXXZ 000000018004ade0 f   BerconWood.obj
 0001:00049e00       ??__Fxyz_blk@@YAXXZ        000000018004ae00 f   BerconWood.obj
 0002:000008b0       ?kInvalidId$initializer$@AssetManagement@MaxSDK@@3P6AXXZEA 000000018004b8b0     DllEntry.obj
 0002:000008b8       ?kTriObjNormalXTCID$initializer$@@3P6AXXZEA 000000018004b8b8     DllEntry.obj
 0002:000008c0       ?intvalid$initializer$@@3P6AXXZEA 000000018004b8c0     DllEntry.obj
 0002:000008c8       ?kInvalidId$initializer$@AssetManagement@MaxSDK@@3P6AXXZEA 000000018004b8c8     BerconCommon.obj
 0002:000008d0       ?kTriObjNormalXTCID$initializer$@@3P6AXXZEA 000000018004b8d0     BerconCommon.obj
 0002:000008d8       ?intvalid$initializer$@@3P6AXXZEA 000000018004b8d8     BerconCommon.obj
 0002:000008e0       ?kInvalidId$initializer$@AssetManagement@MaxSDK@@3P6AXXZEA 000000018004b8e0     BerconDistortion.obj
 0002:000008e8       ?kTriObjNormalXTCID$initializer$@@3P6AXXZEA 000000018004b8e8     BerconDistortion.obj
 0002:000008f0       ?intvalid$initializer$@@3P6AXXZEA 000000018004b8f0     BerconDistortion.obj
 0002:000008f8       ?BerconDistortionDesc$initializer$@@3P6AXXZEA 000000018004b8f8     BerconDistortion.obj
 0002:00000900       ?xyz_blk$initializer$@@3P6AXXZEA 000000018004b900     BerconDistortion.obj
 0002:00000908       ?BerconDistortion_param_blk$initializer$@@3P6AXXZEA 000000018004b908     BerconDistortion.obj
 0002:00000910       ?black$initializer$@@3P6AXXZEA 000000018004b910     BerconDistortion.obj
 0002:00000918       ?kInvalidId$initializer$@AssetManagement@MaxSDK@@3P6AXXZEA 000000018004b918     BerconGradient.obj
 0002:00000920       ?kTriObjNormalXTCID$initializer$@@3P6AXXZEA 000000018004b920     BerconGradient.obj
 0002:00000928       ?intvalid$initializer$@@3P6AXXZEA 000000018004b928     BerconGradient.obj
 0002:00000930       ?BerconGradientDesc$initializer$@@3P6AXXZEA 000000018004b930     BerconGradient.obj
 0002:00000938       ?xyz_blk$initializer$@@3P6AXXZEA 000000018004b938     BerconGradient.obj
 0002:00000940       ?gradientmap_param_blk$initializer$@@3P6AXXZEA 000000018004b940     BerconGradient.obj
 0002:00000948       ?BerconCurve_param_blk$initializer$@@3P6AXXZEA 000000018004b948     BerconGradient.obj
 0002:00000950       ?kInvalidId$initializer$@AssetManagement@MaxSDK@@3P6AXXZEA 000000018004b950     BerconNoise.obj
 0002:00000958       ?kTriObjNormalXTCID$initializer$@@3P6AXXZEA 000000018004b958     BerconNoise.obj
 0002:00000960       ?intvalid$initializer$@@3P6AXXZEA 000000018004b960     BerconNoise.obj
 0002:00000968       ?BerconNoiseDesc$initializer$@@3P6AXXZEA 000000018004b968     BerconNoise.obj
 0002:00000970       ?xyz_blk$initializer$@@3P6AXXZEA 000000018004b970     BerconNoise.obj
 0002:00000978       ?berconnoise_param_blk$initializer$@@3P6AXXZEA 000000018004b978     BerconNoise.obj
 0002:00000980       ?BerconCurve_param_blk$initializer$@@3P6AXXZEA 000000018004b980     BerconNoise.obj
 0002:00000988       ?BerconMap_param_blk$initializer$@@3P6AXXZEA 000000018004b988     BerconNoise.obj
 0002:00000990       ?black$initializer$@@3P6AXXZEA 000000018004b990     BerconNoise.obj
 0002:00000998       ?white$initializer$@@3P6AXXZEA 000000018004b998     BerconNoise.obj
 0002:000009a0       ?kInvalidId$initializer$@AssetManagement@MaxSDK@@3P6AXXZEA 000000018004b9a0     BerconTile.obj
 0002:000009a8       ?kTriObjNormalXTCID$initializer$@@3P6AXXZEA 000000018004b9a8     BerconTile.obj
 0002:000009b0       ?intvalid$initializer$@@3P6AXXZEA 000000018004b9b0     BerconTile.obj
 0002:000009b8       ?BerconTileDesc$initializer$@@3P6AXXZEA 000000018004b9b8     BerconTile.obj
 0002:000009c0       ?xyz_blk$initializer$@@3P6AXXZEA 000000018004b9c0     BerconTile.obj
 0002:000009c8       ?BerconTile_param_blk$initializer$@@3P6AXXZEA 000000018004b9c8     BerconTile.obj
 0002:000009d0       ?BerconMap_param_blk$initializer$@@3P6AXXZEA 000000018004b9d0     BerconTile.obj
 0002:000009d8       ?black$initializer$@@3P6AXXZEA 000000018004b9d8     BerconTile.obj
 0002:000009e0       ?white$initializer$@@3P6AXXZEA 000000018004b9e0     BerconTile.obj
 0002:000009e8       ?kInvalidId$initializer$@AssetManagement@MaxSDK@@3P6AXXZEA 000000018004b9e8     BerconWood.obj
 0002:000009f0       ?kTriObjNormalXTCID$initializer$@@3P6AXXZEA 000000018004b9f0     BerconWood.obj
 0002:000009f8       ?intvalid$initializer$@@3P6AXXZEA 000000018004b9f8     BerconWood.obj
 0002:00000a00       ?BerconWoodDesc$initializer$@@3P6AXXZEA 000000018004ba00     BerconWood.obj
 0002:00000a08       ?xyz_blk$initializer$@@3P6AXXZEA 000000018004ba08     BerconWood.obj
 0002:00000a10       ?BerconWood_param_blk$initializer$@@3P6AXXZEA 000000018004ba10     BerconWood.obj
 0002:00000a18       ?BerconCurve_param_blk$initializer$@@3P6AXXZEA 000000018004ba18     BerconWood.obj
 0002:00000a20       ?BerconMap_param_blk$initializer$@@3P6AXXZEA 000000018004ba20     BerconWood.obj
 0002:00000a28       ?black$initializer$@@3P6AXXZEA 000000018004ba28     BerconWood.obj
 0002:00000a30       ?white$initializer$@@3P6AXXZEA 000000018004ba30     BerconWood.obj
 0002:00000a38       ?kInvalidId$initializer$@AssetManagement@MaxSDK@@3P6AXXZEA 000000018004ba38     GradientRamp.obj
 0002:00000a40       ?kTriObjNormalXTCID$initializer$@@3P6AXXZEA 000000018004ba40     GradientRamp.obj
 0002:00000a48       ?intvalid$initializer$@@3P6AXXZEA 000000018004ba48     GradientRamp.obj
 0002:00000a50       ?kInvalidId$initializer$@AssetManagement@MaxSDK@@3P6AXXZEA 000000018004ba50     IGradient.obj
 0002:00000a58       ?kTriObjNormalXTCID$initializer$@@3P6AXXZEA 000000018004ba58     IGradient.obj
 0002:00000a60       ?intvalid$initializer$@@3P6AXXZEA 000000018004ba60     IGradient.obj
 0002:00000a68       ?kInvalidId$initializer$@AssetManagement@MaxSDK@@3P6AXXZEA 000000018004ba68     curvectrl.obj
 0002:00000a70       ?kTriObjNormalXTCID$initializer$@@3P6AXXZEA 000000018004ba70     curvectrl.obj
 0002:00000a78       ?kInvalidId$initializer$@AssetManagement@MaxSDK@@3P6AXXZEA 000000018004ba78     fractal.obj
 0002:00000a80       ?kTriObjNormalXTCID$initializer$@@3P6AXXZEA 000000018004ba80     fractal.obj
 0002:00000a88       ?kInvalidId$initializer$@AssetManagement@MaxSDK@@3P6AXXZEA 000000018004ba88     noise.obj
 0002:00000a90       ?kTriObjNormalXTCID$initializer$@@3P6AXXZEA 000000018004ba90     noise.obj
 0002:00000a98       ?kInvalidId$initializer$@AssetManagement@MaxSDK@@3P6AXXZEA 000000018004ba98     tile.obj
 0002:00000aa0       ?kTriObjNormalXTCID$initializer$@@3P6AXXZEA 000000018004baa0     tile.obj
 0002:00000aa8       ?kInvalidId$initializer$@AssetManagement@MaxSDK@@3P6AXXZEA 000000018004baa8     worley.obj
 0002:00000ab0       ?kTriObjNormalXTCID$initializer$@@3P6AXXZEA 000000018004bab0     worley.obj
 0002:00000ac8       ?__scrt_initialize_tss_var@@3P6AHXZEA 000000018004bac8     MSVCRTD:thread_safe_statics.obj
 0002:00000b50       $SG211766                  000000018004bb50     BerconDistortion.obj
 0002:00000b6c       $SG211873                  000000018004bb6c     BerconDistortion.obj
 0002:00000b70       $SG211767                  000000018004bb70     BerconDistortion.obj
 0002:00000b90       $SG211768                  000000018004bb90     BerconDistortion.obj
 0002:00000ba0       $SG211769                  000000018004bba0     BerconDistortion.obj
 0002:00000bb0       $SG211770                  000000018004bbb0     BerconDistortion.obj
 0002:00000bc0       $SG211771                  000000018004bbc0     BerconDistortion.obj
 0002:00000bd0       $cppxdata$??0TabOutOfRangeException@Util@MaxSDK@@QEAA@PEB_W@Z 000000018004bbd0     BerconDistortion.obj
 0002:00000bf8       $cppxdata$??1TabOutOfRangeException@Util@MaxSDK@@UEAA@XZ 000000018004bbf8     BerconDistortion.obj
 0002:00000c20       $cppxdata$??0TabOutOfRangeException@Util@MaxSDK@@QEAA@AEBV012@@Z 000000018004bc20     BerconDistortion.obj
 0002:00000c48       $cppxdata$??1?$Tab@PEAVBaseInterface@@@@QEAA@XZ 000000018004bc48     BerconDistortion.obj
 0002:00000c70       $cppxdata$??0BaseInterfaceServer@@QEAA@XZ 000000018004bc70     BerconDistortion.obj
 0002:00000c98       $cppxdata$??0ShadeOutput@@QEAA@XZ 000000018004bc98     BerconDistortion.obj
 0002:00000cc0       $cppxdata$??1ShadeOutput@@UEAA@XZ 000000018004bcc0     BerconDistortion.obj
 0002:00000ce8       $cppxdata$??0ShadeContext@@QEAA@XZ 000000018004bce8     BerconDistortion.obj
 0002:00000d10       $cppxdata$??1ShadeContext@@UEAA@XZ 000000018004bd10     BerconDistortion.obj
 0002:00000d38       $cppxdata$??1Texmap@@UEAA@XZ 000000018004bd38     BerconDistortion.obj
 0002:00000d60       $cppxdata$??0XYZ_Desc@@QEAA@PEAVClassDesc2@@HHHHHHH@Z 000000018004bd60     BerconDistortion.obj
 0002:00000d88       $cppxdata$??1XYZ_Desc@@UEAA@XZ 000000018004bd88     BerconDistortion.obj
 0002:00000db0       $cppxdata$??0BerconXYZDlgProc@@QEAA@PEAVReferenceTarget@@@Z 000000018004bdb0     BerconDistortion.obj
 0002:00000dd8       $cppxdata$??1BerconXYZDlgProc@@UEAA@XZ 000000018004bdd8     BerconDistortion.obj
 0002:00000e00       $cppxdata$?CreateParamDlg@BerconDistortion@@UEAAPEAVParamDlg@@PEAUHWND__@@PEAVIMtlParams@@@Z 000000018004be00     BerconDistortion.obj
 0002:00000e28       $cppxdata$?GetSubTexmapSlotName@BerconDistortion@@UEAA?AVWStr@@H@Z 000000018004be28     BerconDistortion.obj
 0002:00000e50       $cppxdata$?EvalColor@BerconDistortion@@UEAA?AVAColor@@AEAVShadeContext@@@Z 000000018004be50     BerconDistortion.obj
 0002:00000e78       $cppxdata$?EvalMono@BerconDistortion@@UEAAMAEAVShadeContext@@@Z 000000018004be78     BerconDistortion.obj
 0002:00000ea0       $cppxdata$?EvalNormalPerturb@BerconDistortion@@UEAA?AVPoint3@@AEAVShadeContext@@@Z 000000018004bea0     BerconDistortion.obj
 0002:00000ec8       $cppxdata$?Clone@BerconDistortion@@UEAAPEAVReferenceTarget@@AEAVRemapDir@@@Z 000000018004bec8     BerconDistortion.obj
 0002:00000ef0       $cppxdata$?SubAnimName@BerconDistortion@@UEAA?AVWStr@@H@Z 000000018004bef0     BerconDistortion.obj
 0002:00000f18       $cppxdata$??0BerconDistortion@@QEAA@XZ 000000018004bf18     BerconDistortion.obj
 0002:00000f40       $cppxdata$??1BerconDistortion@@UEAA@XZ 000000018004bf40     BerconDistortion.obj
 0002:00000f68       $cppxdata$??0BerconDistortionClassDesc@@QEAA@XZ 000000018004bf68     BerconDistortion.obj
 0002:00000f90       $cppxdata$??1BerconDistortionClassDesc@@UEAA@XZ 000000018004bf90     BerconDistortion.obj
 0002:00000fb8       $cppxdata$?Create@BerconDistortionClassDesc@@UEAAPEAXH@Z 000000018004bfb8     BerconDistortion.obj
 0002:00000fe0       $cppxdata$??0BerconSC@@QEAA@QEAVShadeContext@@@Z 000000018004bfe0     BerconDistortion.obj
 0002:00001008       $cppxdata$??1BerconSC@@UEAA@XZ 000000018004c008     BerconDistortion.obj
 0002:00002288       $SG212401                  000000018004d288     BerconGradient.obj
 0002:00002298       $SG212402                  000000018004d298     BerconGradient.obj
 0002:000022a8       $SG212403                  000000018004d2a8     BerconGradient.obj
 0002:000022b8       $SG212404                  000000018004d2b8     BerconGradient.obj
 0002:000022c8       $SG212405                  000000018004d2c8     BerconGradient.obj
 0002:000022d0       $SG212406                  000000018004d2d0     BerconGradient.obj
 0002:000022f0       $SG212407                  000000018004d2f0     BerconGradient.obj
 0002:00002308       $SG212408                  000000018004d308     BerconGradient.obj
 0002:00002320       $SG212409                  000000018004d320     BerconGradient.obj
 0002:00002338       $SG212410                  000000018004d338     BerconGradient.obj
 0002:00002350       $SG212411                  000000018004d350     BerconGradient.obj
 0002:00002368       $SG212412                  000000018004d368     BerconGradient.obj
 0002:00002380       $SG212413                  000000018004d380     BerconGradient.obj
 0002:00002398       $SG212414                  000000018004d398     BerconGradient.obj
 0002:000023b0       $SG212415                  000000018004d3b0     BerconGradient.obj
 0002:000023c8       $SG212416                  000000018004d3c8     BerconGradient.obj
 0002:000023d8       $SG212417                  000000018004d3d8     BerconGradient.obj
 0002:000023e8       $SG212418                  000000018004d3e8     BerconGradient.obj
 0002:00002408       $SG212419                  000000018004d408     BerconGradient.obj
 0002:00002418       $SG212420                  000000018004d418     BerconGradient.obj
 0002:00002428       $SG212421                  000000018004d428     BerconGradient.obj
 0002:00002438       $SG212422                  000000018004d438     BerconGradient.obj
 0002:00002448       $SG212423                  000000018004d448     BerconGradient.obj
 0002:00002458       $SG212424                  000000018004d458     BerconGradient.obj
 0002:00002470       $SG212425                  000000018004d470     BerconGradient.obj
 0002:00002480       $SG212426                  000000018004d480     BerconGradient.obj
 0002:00002490       $SG212427                  000000018004d490     BerconGradient.obj
 0002:000024a0       $SG212428                  000000018004d4a0     BerconGradient.obj
 0002:000024b0       $SG212429                  000000018004d4b0     BerconGradient.obj
 0002:000024c0       $SG212439                  000000018004d4c0     BerconGradient.obj
 0002:000024e0       $SG212440                  000000018004d4e0     BerconGradient.obj
 0002:000024f8       $SG212441                  000000018004d4f8     BerconGradient.obj
 0002:00002508       $cppxdata$?acos@@YAMM@Z    000000018004d508     BerconGradient.obj
 0002:00002530       $cppxdata$?fabs@@YAMM@Z    000000018004d530     BerconGradient.obj
 0002:00002558       $cppxdata$?sqrt@@YAMM@Z    000000018004d558     BerconGradient.obj
 0002:00002580       $cppxdata$??0ICustomControl@@QEAA@XZ 000000018004d580     BerconGradient.obj
 0002:000025a8       $cppxdata$??1ICustomControl@@UEAA@XZ 000000018004d5a8     BerconGradient.obj
 0002:000025d0       $cppxdata$??0IGradient@@QEAA@PEAUHWND__@@PEAVGradientRamp@@@Z 000000018004d5d0     BerconGradient.obj
 0002:000025f8       $cppxdata$??1IGradient@@UEAA@XZ 000000018004d5f8     BerconGradient.obj
 0002:00002620       $cppxdata$?keyColorChanged@BerconGradient@@QEAAXVAColor@@@Z 000000018004d620     BerconGradient.obj
 0002:00002648       $cppxdata$?keyNumChanged@BerconGradient@@QEAAXH@Z 000000018004d648     BerconGradient.obj
 0002:00002670       $cppxdata$?keyPosChanged@BerconGradient@@QEAAXM@Z 000000018004d670     BerconGradient.obj
 0002:00002698       $cppxdata$?gradAddKey@BerconGradient@@UEAAXM@Z 000000018004d698     BerconGradient.obj
 0002:000026c0       $cppxdata$?gradMoveKey@BerconGradient@@UEAAXHM@Z 000000018004d6c0     BerconGradient.obj
 0002:000026e8       $cppxdata$?gradDelKey@BerconGradient@@UEAAXH@Z 000000018004d6e8     BerconGradient.obj
 0002:00002710       $cppxdata$?gradSelKey@BerconGradient@@UEAAXXZ 000000018004d710     BerconGradient.obj
 0002:00002738       $cppxdata$?CreateParamDlg@BerconGradient@@UEAAPEAVParamDlg@@PEAUHWND__@@PEAVIMtlParams@@@Z 000000018004d738     BerconGradient.obj
 0002:00002760       $cppxdata$?GetSubTexmapSlotName@BerconGradient@@UEAA?AVWStr@@H@Z 000000018004d760     BerconGradient.obj
 0002:00002788       $cppxdata$?Clone@BerconGradient@@UEAAPEAVReferenceTarget@@AEAVRemapDir@@@Z 000000018004d788     BerconGradient.obj
 0002:000027b0       $cppxdata$?SubAnimName@BerconGradient@@UEAA?AVWStr@@H@Z 000000018004d7b0     BerconGradient.obj
 0002:000027d8       $cppxdata$??0BerconGradient@@QEAA@XZ 000000018004d7d8     BerconGradient.obj
 0002:00002800       $cppxdata$??1BerconGradient@@UEAA@XZ 000000018004d800     BerconGradient.obj
 0002:00002828       $cppxdata$??0BerconGradientClassDesc@@QEAA@XZ 000000018004d828     BerconGradient.obj
 0002:00002850       $cppxdata$??1BerconGradientClassDesc@@UEAA@XZ 000000018004d850     BerconGradient.obj
 0002:00002878       $cppxdata$?Create@BerconGradientClassDesc@@UEAAPEAXH@Z 000000018004d878     BerconGradient.obj
 0002:000028a0       $cppxdata$??0BerconCurveDlgProcGRADIENT@@QEAA@PEAVBerconGradient@@@Z 000000018004d8a0     BerconGradient.obj
 0002:000028c8       $cppxdata$??1BerconCurveDlgProcGRADIENT@@UEAA@XZ 000000018004d8c8     BerconGradient.obj
 0002:000028f0       $cppxdata$??0BerconGradientDlgProc@@QEAA@PEAVBerconGradient@@@Z 000000018004d8f0     BerconGradient.obj
 0002:00002918       $cppxdata$?DlgProc@BerconGradientDlgProc@@UEAA_JHPEAVIParamMap2@@PEAUHWND__@@I_K_J@Z 000000018004d918     BerconGradient.obj
 0002:00002940       $cppxdata$??1BerconGradientDlgProc@@UEAA@XZ 000000018004d940     BerconGradient.obj
 0002:00003408       $SG212221                  000000018004e408     BerconNoise.obj
 0002:00003410       $SG211770                  000000018004e410     BerconNoise.obj
 0002:00003420       $SG211771                  000000018004e420     BerconNoise.obj
 0002:00003440       $SG211772                  000000018004e440     BerconNoise.obj
 0002:00003460       $SG211773                  000000018004e460     BerconNoise.obj
 0002:00003480       $SG211774                  000000018004e480     BerconNoise.obj
 0002:00003490       $SG211775                  000000018004e490     BerconNoise.obj
 0002:000034a0       $SG211776                  000000018004e4a0     BerconNoise.obj
 0002:000034c8       $SG211777                  000000018004e4c8     BerconNoise.obj
 0002:000034e0       $SG211778                  000000018004e4e0     BerconNoise.obj
 0002:00003500       $SG211779                  000000018004e500     BerconNoise.obj
 0002:00003518       $SG211780                  000000018004e518     BerconNoise.obj
 0002:00003528       $SG211781                  000000018004e528     BerconNoise.obj
 0002:00003540       $SG211782                  000000018004e540     BerconNoise.obj
 0002:00003560       $SG211783                  000000018004e560     BerconNoise.obj
 0002:00003568       $SG211784                  000000018004e568     BerconNoise.obj
 0002:00003570       $SG211785                  000000018004e570     BerconNoise.obj
 0002:00003578       $SG211786                  000000018004e578     BerconNoise.obj
 0002:00003580       $SG211787                  000000018004e580     BerconNoise.obj
 0002:000035a0       $SG211788                  000000018004e5a0     BerconNoise.obj
 0002:000035c0       $SG211789                  000000018004e5c0     BerconNoise.obj
 0002:000035d0       $SG211790                  000000018004e5d0     BerconNoise.obj
 0002:000035f0       $SG211791                  000000018004e5f0     BerconNoise.obj
 0002:00003610       $SG211792                  000000018004e610     BerconNoise.obj
 0002:00003620       $SG211793                  000000018004e620     BerconNoise.obj
 0002:00003638       $SG211794                  000000018004e638     BerconNoise.obj
 0002:00003650       $SG211795                  000000018004e650     BerconNoise.obj
 0002:00003660       $SG211796                  000000018004e660     BerconNoise.obj
 0002:00003670       $SG211797                  000000018004e670     BerconNoise.obj
 0002:00003680       $SG211798                  000000018004e680     BerconNoise.obj
 0002:00003690       $SG211799                  000000018004e690     BerconNoise.obj
 0002:000036a0       $SG211812                  000000018004e6a0     BerconNoise.obj
 0002:000036c0       $SG211813                  000000018004e6c0     BerconNoise.obj
 0002:000036d8       $SG211814                  000000018004e6d8     BerconNoise.obj
 0002:000036e8       $SG211850                  000000018004e6e8     BerconNoise.obj
 0002:00003708       $SG211851                  000000018004e708     BerconNoise.obj
 0002:00003718       $SG211852                  000000018004e718     BerconNoise.obj
 0002:00003738       $SG211853                  000000018004e738     BerconNoise.obj
 0002:00003748       $SG211854                  000000018004e748     BerconNoise.obj
 0002:00003768       $SG211855                  000000018004e768     BerconNoise.obj
 0002:00003778       $SG211856                  000000018004e778     BerconNoise.obj
 0002:00003798       $SG211857                  000000018004e798     BerconNoise.obj
 0002:000037a8       $SG211858                  000000018004e7a8     BerconNoise.obj
 0002:000037c8       $SG211859                  000000018004e7c8     BerconNoise.obj
 0002:000037d8       $SG211860                  000000018004e7d8     BerconNoise.obj
 0002:000037f8       $SG211861                  000000018004e7f8     BerconNoise.obj
 0002:00003808       $SG211862                  000000018004e808     BerconNoise.obj
 0002:00003828       $SG211863                  000000018004e828     BerconNoise.obj
 0002:00003838       $SG211864                  000000018004e838     BerconNoise.obj
 0002:00003858       $SG211865                  000000018004e858     BerconNoise.obj
 0002:00003868       $SG211866                  000000018004e868     BerconNoise.obj
 0002:00003888       $SG211867                  000000018004e888     BerconNoise.obj
 0002:00003898       $SG211868                  000000018004e898     BerconNoise.obj
 0002:000038b8       $SG211869                  000000018004e8b8     BerconNoise.obj
 0002:000038c8       $SG211870                  000000018004e8c8     BerconNoise.obj
 0002:000038e8       $SG211871                  000000018004e8e8     BerconNoise.obj
 0002:000038f8       $SG211872                  000000018004e8f8     BerconNoise.obj
 0002:00003918       $SG211873                  000000018004e918     BerconNoise.obj
 0002:00003928       $SG211874                  000000018004e928     BerconNoise.obj
 0002:00003948       $SG211875                  000000018004e948     BerconNoise.obj
 0002:00003958       $SG211876                  000000018004e958     BerconNoise.obj
 0002:00003978       $SG211877                  000000018004e978     BerconNoise.obj
 0002:00003988       $SG211878                  000000018004e988     BerconNoise.obj
 0002:00003998       $cppxdata$?CreateParamDlg@BerconNoise@@UEAAPEAVParamDlg@@PEAUHWND__@@PEAVIMtlParams@@@Z 000000018004e998     BerconNoise.obj
 0002:000039c0       $cppxdata$?GetSubTexmapSlotName@BerconNoise@@UEAA?AVWStr@@H@Z 000000018004e9c0     BerconNoise.obj
 0002:000039e8       $cppxdata$?Clone@BerconNoise@@UEAAPEAVReferenceTarget@@AEAVRemapDir@@@Z 000000018004e9e8     BerconNoise.obj
 0002:00003a10       $cppxdata$?SubAnimName@BerconNoise@@UEAA?AVWStr@@H@Z 000000018004ea10     BerconNoise.obj
 0002:00003a38       $cppxdata$??0BerconNoise@@QEAA@XZ 000000018004ea38     BerconNoise.obj
 0002:00003a60       $cppxdata$??1BerconNoise@@UEAA@XZ 000000018004ea60     BerconNoise.obj
 0002:00003a88       $cppxdata$??0BerconNoiseClassDesc@@QEAA@XZ 000000018004ea88     BerconNoise.obj
 0002:00003ab0       $cppxdata$??1BerconNoiseClassDesc@@UEAA@XZ 000000018004eab0     BerconNoise.obj
 0002:00003ad8       $cppxdata$?Create@BerconNoiseClassDesc@@UEAAPEAXH@Z 000000018004ead8     BerconNoise.obj
 0002:00003b00       $cppxdata$??1BerconCurveDlgProcNOISE@@UEAA@XZ 000000018004eb00     BerconNoise.obj
 0002:00003b28       $cppxdata$??0BerconCurveDlgProcNOISE@@QEAA@PEAVBerconNoise@@@Z 000000018004eb28     BerconNoise.obj
 0002:00003b50       $cppxdata$??1BerconNoiseDlgProc@@UEAA@XZ 000000018004eb50     BerconNoise.obj
 0002:00003b78       $cppxdata$??0BerconNoiseDlgProc@@QEAA@PEAVBerconNoise@@@Z 000000018004eb78     BerconNoise.obj
 0002:00004500       $SG219458                  000000018004f500     BerconTile.obj
 0002:00004510       $SG219459                  000000018004f510     BerconTile.obj
 0002:00004520       $SG219460                  000000018004f520     BerconTile.obj
 0002:00004530       $SG219461                  000000018004f530     BerconTile.obj
 0002:0000454c       $SG219625                  000000018004f54c     BerconTile.obj
 0002:00004550       $SG219462                  000000018004f550     BerconTile.obj
 0002:0000456c       $SG219626                  000000018004f56c     BerconTile.obj
 0002:00004570       $SG219463                  000000018004f570     BerconTile.obj
 0002:0000457c       $SG219788                  000000018004f57c     BerconTile.obj
 0002:00004580       $SG219464                  000000018004f580     BerconTile.obj
 0002:00004590       $SG219465                  000000018004f590     BerconTile.obj
 0002:000045b8       $SG219466                  000000018004f5b8     BerconTile.obj
 0002:000045d0       $SG219467                  000000018004f5d0     BerconTile.obj
 0002:000045e8       $SG219468                  000000018004f5e8     BerconTile.obj
 0002:00004600       $SG219469                  000000018004f600     BerconTile.obj
 0002:00004618       $SG219470                  000000018004f618     BerconTile.obj
 0002:00004630       $SG219471                  000000018004f630     BerconTile.obj
 0002:00004640       $SG219472                  000000018004f640     BerconTile.obj
 0002:00004650       $SG219473                  000000018004f650     BerconTile.obj
 0002:00004668       $SG219474                  000000018004f668     BerconTile.obj
 0002:00004680       $SG219475                  000000018004f680     BerconTile.obj
 0002:00004698       $SG219476                  000000018004f698     BerconTile.obj
 0002:000046b0       $SG219477                  000000018004f6b0     BerconTile.obj
 0002:000046c8       $SG219478                  000000018004f6c8     BerconTile.obj
 0002:000046d8       $SG219479                  000000018004f6d8     BerconTile.obj
 0002:000046e8       $SG219480                  000000018004f6e8     BerconTile.obj
 0002:00004700       $SG219481                  000000018004f700     BerconTile.obj
 0002:00004718       $SG219482                  000000018004f718     BerconTile.obj
 0002:00004730       $SG219483                  000000018004f730     BerconTile.obj
 0002:00004740       $SG219484                  000000018004f740     BerconTile.obj
 0002:00004758       $SG219485                  000000018004f758     BerconTile.obj
 0002:00004770       $SG219486                  000000018004f770     BerconTile.obj
 0002:00004788       $SG219487                  000000018004f788     BerconTile.obj
 0002:000047a0       $SG219488                  000000018004f7a0     BerconTile.obj
 0002:000047b8       $SG219489                  000000018004f7b8     BerconTile.obj
 0002:000047d0       $SG219490                  000000018004f7d0     BerconTile.obj
 0002:000047e8       $SG219491                  000000018004f7e8     BerconTile.obj
 0002:00004800       $SG219492                  000000018004f800     BerconTile.obj
 0002:00004810       $SG219493                  000000018004f810     BerconTile.obj
 0002:00004820       $SG219494                  000000018004f820     BerconTile.obj
 0002:00004838       $SG219495                  000000018004f838     BerconTile.obj
 0002:00004850       $SG219496                  000000018004f850     BerconTile.obj
 0002:00004868       $SG219497                  000000018004f868     BerconTile.obj
 0002:00004880       $SG219498                  000000018004f880     BerconTile.obj
 0002:00004890       $SG219499                  000000018004f890     BerconTile.obj
 0002:000048a0       $SG219500                  000000018004f8a0     BerconTile.obj
 0002:000048b0       $SG219501                  000000018004f8b0     BerconTile.obj
 0002:000048c0       $SG219502                  000000018004f8c0     BerconTile.obj
 0002:000048d0       $SG219503                  000000018004f8d0     BerconTile.obj
 0002:000048e0       $SG219504                  000000018004f8e0     BerconTile.obj
 0002:000048f0       $SG219519                  000000018004f8f0     BerconTile.obj
 0002:00004910       $SG219520                  000000018004f910     BerconTile.obj
 0002:00004920       $SG219521                  000000018004f920     BerconTile.obj
 0002:00004940       $SG219522                  000000018004f940     BerconTile.obj
 0002:00004950       $SG219523                  000000018004f950     BerconTile.obj
 0002:00004960       $SG219669                  000000018004f960     BerconTile.obj
 0002:00004980       $cppxdata$??1_Container_base12@std@@QEAA@XZ 000000018004f980     BerconTile.obj
 0002:000049a8       $cppxdata$?_Orphan_all@_Container_base12@std@@QEAAXXZ 000000018004f9a8     BerconTile.obj
 0002:000049d0       $cppxdata$??0?$_String_val@U?$_Simple_types@_W@std@@@std@@QEAA@XZ 000000018004f9d0     BerconTile.obj
 0002:000049f8       $cppxdata$??1?$_String_val@U?$_Simple_types@_W@std@@@std@@QEAA@XZ 000000018004f9f8     BerconTile.obj
 0002:00004a20       $cppxdata$??0?$_String_alloc@U?$_String_base_types@_WV?$allocator@_W@std@@@std@@@std@@QEAA@XZ 000000018004fa20     BerconTile.obj
 0002:00004a48       $cppxdata$??1?$_String_alloc@U?$_String_base_types@_WV?$allocator@_W@std@@@std@@@std@@QEAA@XZ 000000018004fa48     BerconTile.obj
 0002:00004a70       $cppxdata$??1?$_Compressed_pair@U?$_Wrap_alloc@V?$allocator@_W@std@@@std@@V?$_String_val@U?$_Simple_types@_W@std@@@2@$00@std@@QEAA@XZ 000000018004fa70     BerconTile.obj
 0002:00004a98       $cppxdata$??0?$basic_string@_WU?$char_traits@_W@std@@V?$allocator@_W@2@@std@@QEAA@PEB_W@Z 000000018004fa98     BerconTile.obj
 0002:00004ac0       $cppxdata$??1?$basic_string@_WU?$char_traits@_W@std@@V?$allocator@_W@2@@std@@QEAA@XZ 000000018004fac0     BerconTile.obj
 0002:00004ae8       $cppxdata$?_Copy@?$basic_string@_WU?$char_traits@_W@std@@V?$allocator@_W@2@@std@@QEAAX_K0@Z 000000018004fae8     BerconTile.obj
 0002:00004b10       $cppxdata$??0?$_Vector_alloc@U?$_Vec_base_types@MV?$allocator@M@std@@@std@@@std@@QEAA@XZ 000000018004fb10     BerconTile.obj
 0002:00004b38       $cppxdata$??1?$_Vector_alloc@U?$_Vec_base_types@MV?$allocator@M@std@@@std@@@std@@QEAA@XZ 000000018004fb38     BerconTile.obj
 0002:00004b60       $cppxdata$??0?$_Vector_val@U?$_Simple_types@M@std@@@std@@QEAA@XZ 000000018004fb60     BerconTile.obj
 0002:00004b88       $cppxdata$??1?$_Vector_val@U?$_Simple_types@M@std@@@std@@QEAA@XZ 000000018004fb88     BerconTile.obj
 0002:00004bb0       $cppxdata$??1?$_Compressed_pair@U?$_Wrap_alloc@V?$allocator@M@std@@@std@@V?$_Vector_val@U?$_Simple_types@M@std@@@2@$00@std@@QEAA@XZ 000000018004fbb0     BerconTile.obj
 0002:00004bd8       $cppxdata$??0?$vector@MV?$allocator@M@std@@@std@@QEAA@XZ 000000018004fbd8     BerconTile.obj
 0002:00004c00       $cppxdata$??1?$vector@MV?$allocator@M@std@@@std@@QEAA@XZ 000000018004fc00     BerconTile.obj
 0002:00004c28       $cppxdata$??1TileRow@@QEAA@XZ 000000018004fc28     BerconTile.obj
 0002:00004c50       $cppxdata$??0TilePattern@@QEAA@XZ 000000018004fc50     BerconTile.obj
 0002:00004c78       $cppxdata$??1TilePattern@@QEAA@XZ 000000018004fc78     BerconTile.obj
 0002:00004ca0       $cppxdata$??0?$_Vector_alloc@U?$_Vec_base_types@VTileRow@@V?$allocator@VTileRow@@@std@@@std@@@std@@QEAA@XZ 000000018004fca0     BerconTile.obj
 0002:00004cc8       $cppxdata$??1?$_Vector_alloc@U?$_Vec_base_types@VTileRow@@V?$allocator@VTileRow@@@std@@@std@@@std@@QEAA@XZ 000000018004fcc8     BerconTile.obj
 0002:00004cf0       $cppxdata$??0?$_Vector_val@U?$_Simple_types@VTileRow@@@std@@@std@@QEAA@XZ 000000018004fcf0     BerconTile.obj
 0002:00004d18       $cppxdata$??1?$_Vector_val@U?$_Simple_types@VTileRow@@@std@@@std@@QEAA@XZ 000000018004fd18     BerconTile.obj
 0002:00004d40       $cppxdata$??1?$_Compressed_pair@U?$_Wrap_alloc@V?$allocator@VTileRow@@@std@@@std@@V?$_Vector_val@U?$_Simple_types@VTileRow@@@std@@@2@$00@std@@QEAA@XZ 000000018004fd40     BerconTile.obj
 0002:00004d68       $cppxdata$??0?$vector@VTileRow@@V?$allocator@VTileRow@@@std@@@std@@QEAA@XZ 000000018004fd68     BerconTile.obj
 0002:00004d90       $cppxdata$??1?$vector@VTileRow@@V?$allocator@VTileRow@@@std@@@std@@QEAA@XZ 000000018004fd90     BerconTile.obj
 0002:00004db8       $cppxdata$?CreateParamDlg@BerconTile@@UEAAPEAVParamDlg@@PEAUHWND__@@PEAVIMtlParams@@@Z 000000018004fdb8     BerconTile.obj
 0002:00004de0       $cppxdata$?Update@BerconTile@@UEAAXHAEAVInterval@@@Z 000000018004fde0     BerconTile.obj
 0002:00004e08       $cppxdata$?GetSubTexmapSlotName@BerconTile@@UEAA?AVWStr@@H@Z 000000018004fe08     BerconTile.obj
 0002:00004e30       $cppxdata$?EvalColor@BerconTile@@UEAA?AVAColor@@AEAVShadeContext@@@Z 000000018004fe30     BerconTile.obj
 0002:00004e58       $cppxdata$?EvalNormalPerturb@BerconTile@@UEAA?AVPoint3@@AEAVShadeContext@@@Z 000000018004fe58     BerconTile.obj
 0002:00004e80       $cppxdata$?Clone@BerconTile@@UEAAPEAVReferenceTarget@@AEAVRemapDir@@@Z 000000018004fe80     BerconTile.obj
 0002:00004ea8       $cppxdata$?SubAnimName@BerconTile@@UEAA?AVWStr@@H@Z 000000018004fea8     BerconTile.obj
 0002:00004ed0       $cppxdata$??0BerconTile@@QEAA@XZ 000000018004fed0     BerconTile.obj
 0002:00004ef8       $cppxdata$??1BerconTile@@UEAA@XZ 000000018004fef8     BerconTile.obj
 0002:00004f20       $cppxdata$??0BerconTileClassDesc@@QEAA@XZ 000000018004ff20     BerconTile.obj
 0002:00004f48       $cppxdata$??1BerconTileClassDesc@@UEAA@XZ 000000018004ff48     BerconTile.obj
 0002:00004f70       $cppxdata$?Create@BerconTileClassDesc@@UEAAPEAXH@Z 000000018004ff70     BerconTile.obj
 0002:00004f98       $cppxdata$??0BerconTileDlgProc@@QEAA@PEAVBerconTile@@@Z 000000018004ff98     BerconTile.obj
 0002:00004fc0       $cppxdata$??1BerconTileDlgProc@@UEAA@XZ 000000018004ffc0     BerconTile.obj
 0002:00004fe8       $cppxdata$??$?0$$V@?$_Compressed_pair@U?$_Wrap_alloc@V?$allocator@VTileRow@@@std@@@std@@V?$_Vector_val@U?$_Simple_types@VTileRow@@@std@@@2@$00@std@@QEAA@U_Zero_then_variadic_args_t@1@@Z 000000018004ffe8     BerconTile.obj
 0002:00005010       $cppxdata$??$?0$$V@?$_Compressed_pair@U?$_Wrap_alloc@V?$allocator@M@std@@@std@@V?$_Vector_val@U?$_Simple_types@M@std@@@2@$00@std@@QEAA@U_Zero_then_variadic_args_t@1@@Z 0000000180050010     BerconTile.obj
 0002:00005038       $cppxdata$??$?0$$V@?$_Compressed_pair@U?$_Wrap_alloc@V?$allocator@_W@std@@@std@@V?$_String_val@U?$_Simple_types@_W@std@@@2@$00@std@@QEAA@U_Zero_then_variadic_args_t@1@@Z 0000000180050038     BerconTile.obj
 0002:00006268       $SG211993                  0000000180051268     BerconWood.obj
 0002:00006284       $SG212158                  0000000180051284     BerconWood.obj
 0002:00006288       $SG211994                  0000000180051288     BerconWood.obj
 0002:00006298       $SG211995                  0000000180051298     BerconWood.obj
 0002:000062b4       $SG212356                  00000001800512b4     BerconWood.obj
 0002:000062b8       $SG211996                  00000001800512b8     BerconWood.obj
 0002:000062c8       $SG211997                  00000001800512c8     BerconWood.obj
 0002:000062e8       $SG211998                  00000001800512e8     BerconWood.obj
 0002:000062f8       $SG211999                  00000001800512f8     BerconWood.obj
 0002:00006318       $SG212000                  0000000180051318     BerconWood.obj
 0002:00006328       $SG212001                  0000000180051328     BerconWood.obj
 0002:00006348       $SG212002                  0000000180051348     BerconWood.obj
 0002:00006358       $SG212003                  0000000180051358     BerconWood.obj
 0002:00006378       $SG212004                  0000000180051378     BerconWood.obj
 0002:00006388       $SG212005                  0000000180051388     BerconWood.obj
 0002:000063a8       $SG212006                  00000001800513a8     BerconWood.obj
 0002:000063b8       $SG212007                  00000001800513b8     BerconWood.obj
 0002:000063d8       $SG212008                  00000001800513d8     BerconWood.obj
 0002:000063e8       $SG212009                  00000001800513e8     BerconWood.obj
 0002:00006408       $SG212010                  0000000180051408     BerconWood.obj
 0002:00006418       $SG212011                  0000000180051418     BerconWood.obj
 0002:00006438       $SG212012                  0000000180051438     BerconWood.obj
 0002:00006448       $SG212013                  0000000180051448     BerconWood.obj
 0002:00006468       $SG212014                  0000000180051468     BerconWood.obj
 0002:00006478       $SG212015                  0000000180051478     BerconWood.obj
 0002:00006498       $SG212016                  0000000180051498     BerconWood.obj
 0002:000064a8       $SG212017                  00000001800514a8     BerconWood.obj
 0002:000064c8       $SG212018                  00000001800514c8     BerconWood.obj
 0002:000064d8       $SG212019                  00000001800514d8     BerconWood.obj
 0002:000064f8       $SG212020                  00000001800514f8     BerconWood.obj
 0002:00006508       $SG212021                  0000000180051508     BerconWood.obj
 0002:00006528       $SG212022                  0000000180051528     BerconWood.obj
 0002:00006538       $SG212023                  0000000180051538     BerconWood.obj
 0002:00006558       $SG212024                  0000000180051558     BerconWood.obj
 0002:00006568       $SG212025                  0000000180051568     BerconWood.obj
 0002:00006578       $SG211904                  0000000180051578     BerconWood.obj
 0002:00006588       $SG211905                  0000000180051588     BerconWood.obj
 0002:000065a8       $SG211906                  00000001800515a8     BerconWood.obj
 0002:000065c8       $SG211907                  00000001800515c8     BerconWood.obj
 0002:000065d8       $SG211908                  00000001800515d8     BerconWood.obj
 0002:000065e8       $SG211909                  00000001800515e8     BerconWood.obj
 0002:000065f8       $SG211910                  00000001800515f8     BerconWood.obj
 0002:00006608       $SG211911                  0000000180051608     BerconWood.obj
 0002:00006620       $SG211912                  0000000180051620     BerconWood.obj
 0002:00006640       $SG211913                  0000000180051640     BerconWood.obj
 0002:00006660       $SG211914                  0000000180051660     BerconWood.obj
 0002:00006678       $SG211915                  0000000180051678     BerconWood.obj
 0002:00006690       $SG211916                  0000000180051690     BerconWood.obj
 0002:000066a8       $SG211917                  00000001800516a8     BerconWood.obj
 0002:000066c0       $SG211918                  00000001800516c0     BerconWood.obj
 0002:000066d8       $SG211919                  00000001800516d8     BerconWood.obj
 0002:000066f0       $SG211920                  00000001800516f0     BerconWood.obj
 0002:00006700       $SG211921                  0000000180051700     BerconWood.obj
 0002:00006718       $SG211922                  0000000180051718     BerconWood.obj
 0002:00006730       $SG211923                  0000000180051730     BerconWood.obj
 0002:00006748       $SG211924                  0000000180051748     BerconWood.obj
 0002:00006760       $SG211925                  0000000180051760     BerconWood.obj
 0002:00006778       $SG211926                  0000000180051778     BerconWood.obj
 0002:00006790       $SG211927                  0000000180051790     BerconWood.obj
 0002:000067a8       $SG211928                  00000001800517a8     BerconWood.obj
 0002:000067b8       $SG211929                  00000001800517b8     BerconWood.obj
 0002:000067d0       $SG211930                  00000001800517d0     BerconWood.obj
 0002:000067e8       $SG211931                  00000001800517e8     BerconWood.obj
 0002:00006800       $SG211932                  0000000180051800     BerconWood.obj
 0002:00006810       $SG211933                  0000000180051810     BerconWood.obj
 0002:00006820       $SG211934                  0000000180051820     BerconWood.obj
 0002:00006830       $SG211935                  0000000180051830     BerconWood.obj
 0002:00006840       $SG211936                  0000000180051840     BerconWood.obj
 0002:00006850       $SG211937                  0000000180051850     BerconWood.obj
 0002:00006860       $SG211938                  0000000180051860     BerconWood.obj
 0002:00006870       $SG211951                  0000000180051870     BerconWood.obj
 0002:00006890       $SG211952                  0000000180051890     BerconWood.obj
 0002:000068a8       $SG211953                  00000001800518a8     BerconWood.obj
 0002:000068b8       $cppxdata$?CreateParamDlg@BerconWood@@UEAAPEAVParamDlg@@PEAUHWND__@@PEAVIMtlParams@@@Z 00000001800518b8     BerconWood.obj
 0002:000068e0       $cppxdata$?GetSubTexmapSlotName@BerconWood@@UEAA?AVWStr@@H@Z 00000001800518e0     BerconWood.obj
 0002:00006908       $cppxdata$?Clone@BerconWood@@UEAAPEAVReferenceTarget@@AEAVRemapDir@@@Z 0000000180051908     BerconWood.obj
 0002:00006930       $cppxdata$?SubAnimName@BerconWood@@UEAA?AVWStr@@H@Z 0000000180051930     BerconWood.obj
 0002:00006958       $cppxdata$??0BerconWood@@QEAA@XZ 0000000180051958     BerconWood.obj
 0002:00006980       $cppxdata$??1BerconWood@@UEAA@XZ 0000000180051980     BerconWood.obj
 0002:000069a8       $cppxdata$??0BerconWoodClassDesc@@QEAA@XZ 00000001800519a8     BerconWood.obj
 0002:000069d0       $cppxdata$??1BerconWoodClassDesc@@UEAA@XZ 00000001800519d0     BerconWood.obj
 0002:000069f8       $cppxdata$?Create@BerconWoodClassDesc@@UEAAPEAXH@Z 00000001800519f8     BerconWood.obj
 0002:00006a20       $cppxdata$??0BerconCurveDlgProc@@QEAA@PEAVBerconWood@@@Z 0000000180051a20     BerconWood.obj
 0002:00006a48       $cppxdata$??1BerconCurveDlgProc@@UEAA@XZ 0000000180051a48     BerconWood.obj
 0002:00006a70       $cppxdata$??0BerconWoodDlgProc@@QEAA@PEAVBerconWood@@@Z 0000000180051a70     BerconWood.obj
 0002:00006a98       $cppxdata$??1BerconWoodDlgProc@@UEAA@XZ 0000000180051a98     BerconWood.obj
 0002:00007478       $cppxdata$?addKey@GradientRamp@@QEAAXHMVAColor@@PEAVTexmap@@@Z 0000000180052478     GradientRamp.obj
 0002:000074a0       $SG212043                  00000001800524a0     IGradient.obj
 0002:000074c0       $SG178724                  00000001800524c0     curvectrl.obj
 0002:000074f0       $cppxdata$??1BitArray@@QEAA@XZ 00000001800524f0     curvectrl.obj
 0002:00007518       $cppxdata$?update@CurveCtrl@@SAXPEAVICurveCtl@@PEAUHWND__@@PEAVReferenceMaker@@@Z 0000000180052518     curvectrl.obj
 0002:00007548       $cppxdata$?pow@@YAMMM@Z    0000000180052548     fractal.obj
 0002:00007578       $cppxdata$?cos@@YAMM@Z     0000000180052578     noise.obj
 0002:000075a0       $cppxdata$?sin@@YAMM@Z     00000001800525a0     noise.obj
 0002:00007650       $SG186884                  0000000180052650     tile.obj
 0002:00007660       $SG186886                  0000000180052660     tile.obj
 0002:00007688       $SG186892                  0000000180052688     tile.obj
 0002:000076c0       $SG186888                  00000001800526c0     tile.obj
 0002:0000773c       $SG188020                  000000018005273c     tile.obj
 0002:00007740       $SG186890                  0000000180052740     tile.obj
 0002:000077c0       $SG186894                  00000001800527c0     tile.obj
 0002:00007808       $SG188021                  0000000180052808     tile.obj
 0002:00007810       $SG186896                  0000000180052810     tile.obj
 0002:00007868       $SG186898                  0000000180052868     tile.obj
 0002:000078a0       $SG186900                  00000001800528a0     tile.obj
 0002:00007900       $SG186902                  0000000180052900     tile.obj
 0002:00007958       $cppxdata$?fmod@@YAMMM@Z   0000000180052958     tile.obj
 0002:00007980       $cppxdata$?_Swap_all@_Container_base12@std@@QEAAXAEAU12@@Z 0000000180052980     tile.obj
 0002:000079a8       $cppxdata$??4_Iterator_base12@std@@QEAAAEAU01@AEBU01@@Z 00000001800529a8     tile.obj
 0002:000079d0       $cppxdata$??1_Iterator_base12@std@@QEAA@XZ 00000001800529d0     tile.obj
 0002:000079f8       $cppxdata$?_Adopt@_Iterator_base12@std@@QEAAXPEBU_Container_base12@2@@Z 00000001800529f8     tile.obj
 0002:00007a20       $cppxdata$??0?$basic_string@_WU?$char_traits@_W@std@@V?$allocator@_W@2@@std@@QEAA@AEBV01@@Z 0000000180052a20     tile.obj
 0002:00007a48       $cppxdata$??0?$basic_string@_WU?$char_traits@_W@std@@V?$allocator@_W@2@@std@@QEAA@AEBV01@_K1AEBV?$allocator@_W@1@@Z 0000000180052a48     tile.obj
 0002:00007a70       $cppxdata$??0?$basic_string@_WU?$char_traits@_W@std@@V?$allocator@_W@2@@std@@QEAA@$$QEAV01@@Z 0000000180052a70     tile.obj
 0002:00007a98       $cppxdata$?c_str@?$basic_string@_WU?$char_traits@_W@std@@V?$allocator@_W@2@@std@@QEBAPEB_WXZ 0000000180052a98     tile.obj
 0002:00007ac0       $cppxdata$?find_first_of@?$basic_string@_WU?$char_traits@_W@std@@V?$allocator@_W@2@@std@@QEBA_KAEBV12@_K@Z 0000000180052ac0     tile.obj
 0002:00007ae8       $cppxdata$?find_first_not_of@?$basic_string@_WU?$char_traits@_W@std@@V?$allocator@_W@2@@std@@QEBA_KAEBV12@_K@Z 0000000180052ae8     tile.obj
 0002:00007b10       $cppxdata$?substr@?$basic_string@_WU?$char_traits@_W@std@@V?$allocator@_W@2@@std@@QEBA?AV12@_K0@Z 0000000180052b10     tile.obj
 0002:00007b38       $cppxdata$??0TileRow@@QEAA@M@Z 0000000180052b38     tile.obj
 0002:00007b60       $cppxdata$??0?$vector@MV?$allocator@M@std@@@std@@QEAA@AEBV01@@Z 0000000180052b60     tile.obj
 0002:00007b88       $cppxdata$??0?$vector@MV?$allocator@M@std@@@std@@QEAA@$$QEAV01@@Z 0000000180052b88     tile.obj
 0002:00007bb0       $cppxdata$?begin@?$vector@MV?$allocator@M@std@@@std@@QEBA?AV?$_Vector_const_iterator@V?$_Vector_val@U?$_Simple_types@M@std@@@std@@@2@XZ 0000000180052bb0     tile.obj
 0002:00007bd8       $cppxdata$?end@?$vector@MV?$allocator@M@std@@@std@@QEBA?AV?$_Vector_const_iterator@V?$_Vector_val@U?$_Simple_types@M@std@@@std@@@2@XZ 0000000180052bd8     tile.obj
 0002:00007c00       $cppxdata$?clear@?$vector@MV?$allocator@M@std@@@std@@QEAAXXZ 0000000180052c00     tile.obj
 0002:00007c28       $cppxdata$?_Reallocate@?$vector@MV?$allocator@M@std@@@std@@IEAAX_K@Z 0000000180052c28     tile.obj
 0002:00007c50       $cppxdata$?_Orphan_range@?$vector@MV?$allocator@M@std@@@std@@IEBAXPEAM0@Z 0000000180052c50     tile.obj
 0002:00007c78       $cppxdata$??0TileRow@@QEAA@AEBV0@@Z 0000000180052c78     tile.obj
 0002:00007ca0       $cppxdata$??0TileRow@@QEAA@$$QEAV0@@Z 0000000180052ca0     tile.obj
 0002:00007cc8       $cppxdata$?clear@?$vector@VTileRow@@V?$allocator@VTileRow@@@std@@@std@@QEAAXXZ 0000000180052cc8     tile.obj
 0002:00007cf0       $cppxdata$?_Reallocate@?$vector@VTileRow@@V?$allocator@VTileRow@@@std@@@std@@IEAAX_K@Z 0000000180052cf0     tile.obj
 0002:00007d18       $cppxdata$?_Orphan_range@?$vector@VTileRow@@V?$allocator@VTileRow@@@std@@@std@@IEBAXPEAVTileRow@@0@Z 0000000180052d18     tile.obj
 0002:00007d40       $cppxdata$?setPattern@TilePattern@@QEAAXV?$basic_string@_WU?$char_traits@_W@std@@V?$allocator@_W@2@@std@@@Z 0000000180052d40     tile.obj
 0002:00007d68       $cppxdata$?setPreset@TilePattern@@QEAAXH@Z 0000000180052d68     tile.obj
 0002:00007d90       $cppxdata$?tokenize@@YAXAEBV?$basic_string@_WU?$char_traits@_W@std@@V?$allocator@_W@2@@std@@AEAV?$vector@V?$basic_string@_WU?$char_traits@_W@std@@V?$allocator@_W@2@@std@@V?$allocator@V?$basic_string@_WU?$char_traits@_W@std@@V?$allocator@_W@2@@std@@@2@@2@0@Z 0000000180052d90     tile.obj
 0002:00007db8       $cppxdata$??0?$_Vector_alloc@U?$_Vec_base_types@V?$basic_string@_WU?$char_traits@_W@std@@V?$allocator@_W@2@@std@@V?$allocator@V?$basic_string@_WU?$char_traits@_W@std@@V?$allocator@_W@2@@std@@@2@@std@@@std@@QEAA@XZ 0000000180052db8     tile.obj
 0002:00007de0       $cppxdata$??1?$_Vector_alloc@U?$_Vec_base_types@V?$basic_string@_WU?$char_traits@_W@std@@V?$allocator@_W@2@@std@@V?$allocator@V?$basic_string@_WU?$char_traits@_W@std@@V?$allocator@_W@2@@std@@@2@@std@@@std@@QEAA@XZ 0000000180052de0     tile.obj
 0002:00007e08       $cppxdata$??0?$_Vector_val@U?$_Simple_types@V?$basic_string@_WU?$char_traits@_W@std@@V?$allocator@_W@2@@std@@@std@@@std@@QEAA@XZ 0000000180052e08     tile.obj
 0002:00007e30       $cppxdata$??1?$_Vector_val@U?$_Simple_types@V?$basic_string@_WU?$char_traits@_W@std@@V?$allocator@_W@2@@std@@@std@@@std@@QEAA@XZ 0000000180052e30     tile.obj
 0002:00007e58       $cppxdata$??1?$_Compressed_pair@U?$_Wrap_alloc@V?$allocator@V?$basic_string@_WU?$char_traits@_W@std@@V?$allocator@_W@2@@std@@@std@@@std@@V?$_Vector_val@U?$_Simple_types@V?$basic_string@_WU?$char_traits@_W@std@@V?$allocator@_W@2@@std@@@std@@@2@$00@std@@QEAA@XZ 0000000180052e58     tile.obj
 0002:00007e80       $cppxdata$??0?$vector@V?$basic_string@_WU?$char_traits@_W@std@@V?$allocator@_W@2@@std@@V?$allocator@V?$basic_string@_WU?$char_traits@_W@std@@V?$allocator@_W@2@@std@@@2@@std@@QEAA@XZ 0000000180052e80     tile.obj
 0002:00007ea8       $cppxdata$??1?$vector@V?$basic_string@_WU?$char_traits@_W@std@@V?$allocator@_W@2@@std@@V?$allocator@V?$basic_string@_WU?$char_traits@_W@std@@V?$allocator@_W@2@@std@@@2@@std@@QEAA@XZ 0000000180052ea8     tile.obj
 0002:00007ed0       $cppxdata$?_Reallocate@?$vector@V?$basic_string@_WU?$char_traits@_W@std@@V?$allocator@_W@2@@std@@V?$allocator@V?$basic_string@_WU?$char_traits@_W@std@@V?$allocator@_W@2@@std@@@2@@std@@IEAAX_K@Z 0000000180052ed0     tile.obj
 0002:00007ef8       $cppxdata$?_Orphan_range@?$vector@V?$basic_string@_WU?$char_traits@_W@std@@V?$allocator@_W@2@@std@@V?$allocator@V?$basic_string@_WU?$char_traits@_W@std@@V?$allocator@_W@2@@std@@@2@@std@@IEBAXPEAV?$basic_string@_WU?$char_traits@_W@std@@V?$allocator@_W@2@@2@0@Z 0000000180052ef8     tile.obj
 0002:00007f20       $cppxdata$?parsePattern@@YAHV?$basic_string@_WU?$char_traits@_W@std@@V?$allocator@_W@2@@std@@PEAVTilePattern@@@Z 0000000180052f20     tile.obj
 0002:00007f48       $cppxdata$??0?$basic_stringstream@_WU?$char_traits@_W@std@@V?$allocator@_W@2@@std@@QEAA@AEBV?$basic_string@_WU?$char_traits@_W@std@@V?$allocator@_W@2@@1@H@Z 0000000180052f48     tile.obj
 0002:00007f70       $cppxdata$??1?$basic_stringstream@_WU?$char_traits@_W@std@@V?$allocator@_W@2@@std@@UEAA@XZ 0000000180052f70     tile.obj
 0002:00007f98       $cppxdata$??0?$basic_stringbuf@_WU?$char_traits@_W@std@@V?$allocator@_W@2@@std@@QEAA@AEBV?$basic_string@_WU?$char_traits@_W@std@@V?$allocator@_W@2@@1@H@Z 0000000180052f98     tile.obj
 0002:00007fc0       $cppxdata$??1?$basic_stringbuf@_WU?$char_traits@_W@std@@V?$allocator@_W@2@@std@@UEAA@XZ 0000000180052fc0     tile.obj
 0002:00007fe8       $cppxdata$??$?0U?$_Wrap_alloc@V?$allocator@_W@std@@@std@@X@?$_String_alloc@U?$_String_base_types@_WV?$allocator@_W@std@@@std@@@std@@QEAA@$$QEAU?$_Wrap_alloc@V?$allocator@_W@std@@@1@@Z 0000000180052fe8     tile.obj
 0002:00008010       $cppxdata$??$?0$$V@?$_Compressed_pair@U?$_Wrap_alloc@V?$allocator@V?$basic_string@_WU?$char_traits@_W@std@@V?$allocator@_W@2@@std@@@std@@@std@@V?$_Vector_val@U?$_Simple_types@V?$basic_string@_WU?$char_traits@_W@std@@V?$allocator@_W@2@@std@@@std@@@2@$00@std@@QEAA@U_Zero_then_variadic_args_t@1@@Z 0000000180053010     tile.obj
 0002:00008038       $cppxdata$??0?$_Iterator012@Urandom_access_iterator_tag@std@@M_JPEBMAEBMU_Iterator_base12@2@@std@@QEAA@XZ 0000000180053038     tile.obj
 0002:00008060       $cppxdata$??1?$_Iterator012@Urandom_access_iterator_tag@std@@M_JPEBMAEBMU_Iterator_base12@2@@std@@QEAA@XZ 0000000180053060     tile.obj
 0002:00008088       $cppxdata$??0?$_Iterator012@Urandom_access_iterator_tag@std@@M_JPEBMAEBMU_Iterator_base12@2@@std@@QEAA@AEBU01@@Z 0000000180053088     tile.obj
 0002:000080b0       $cppxdata$??0?$_Vector_const_iterator@V?$_Vector_val@U?$_Simple_types@M@std@@@std@@@std@@QEAA@PEAMPEBU_Container_base12@1@@Z 00000001800530b0     tile.obj
 0002:000080d8       $cppxdata$??1?$_Vector_const_iterator@V?$_Vector_val@U?$_Simple_types@M@std@@@std@@@std@@QEAA@XZ 00000001800530d8     tile.obj
 0002:00008100       $cppxdata$??0?$_Vector_const_iterator@V?$_Vector_val@U?$_Simple_types@M@std@@@std@@@std@@QEAA@AEBV01@@Z 0000000180053100     tile.obj
 0002:00008128       $cppxdata$??$?0AEBV?$allocator@_W@std@@X@?$_String_alloc@U?$_String_base_types@_WV?$allocator@_W@std@@@std@@@std@@QEAA@AEBV?$allocator@_W@1@@Z 0000000180053128     tile.obj
 0002:00008150       $cppxdata$??$?0U?$_Wrap_alloc@V?$allocator@_W@std@@@std@@$$V@?$_Compressed_pair@U?$_Wrap_alloc@V?$allocator@_W@std@@@std@@V?$_String_val@U?$_Simple_types@_W@std@@@2@$00@std@@QEAA@U_One_then_variadic_args_t@1@$$QEAU?$_Wrap_alloc@V?$allocator@_W@std@@@1@@Z 0000000180053150     tile.obj
 0002:00008178       $cppxdata$??$?0AEBV?$allocator@_W@std@@$$V@?$_Compressed_pair@U?$_Wrap_alloc@V?$allocator@_W@std@@@std@@V?$_String_val@U?$_Simple_types@_W@std@@@2@$00@std@@QEAA@U_One_then_variadic_args_t@1@AEBV?$allocator@_W@1@@Z 0000000180053178     tile.obj
 0002:000081a0       $cppxdata$??$construct@VTileRow@@AEAV1@@?$allocator@VTileRow@@@std@@QEAAXPEAVTileRow@@AEAV2@@Z 00000001800531a0     tile.obj
 0002:000081c8       $cppxdata$??$construct@VTileRow@@AEBV1@@?$allocator@VTileRow@@@std@@QEAAXPEAVTileRow@@AEBV2@@Z 00000001800531c8     tile.obj
 0002:000081f0       $cppxdata$??$_Uninitialized_move_al_unchecked1@PEAV?$basic_string@_WU?$char_traits@_W@std@@V?$allocator@_W@2@@std@@PEAV12@V?$allocator@V?$basic_string@_WU?$char_traits@_W@std@@V?$allocator@_W@2@@std@@@2@@std@@YAPEAV?$basic_string@_WU?$char_traits@_W@std@@V?$allocator@_W@2@@0@PEAV10@00AEAU?$_Wrap_alloc@V?$allocator@V?$basic_string@_WU?$char_traits@_W@std@@V?$allocator@_W@2@@std@@@std@@@0@U_General_ptr_iterator_tag@0@U_Any_tag@0@@Z 00000001800531f0     tile.obj
 0002:00008218       $cppxdata$??$_Uninitialized_move_al_unchecked1@PEAVTileRow@@PEAV1@V?$allocator@VTileRow@@@std@@@std@@YAPEAVTileRow@@PEAV1@00AEAU?$_Wrap_alloc@V?$allocator@VTileRow@@@std@@@0@U_General_ptr_iterator_tag@0@U_Any_tag@0@@Z 0000000180053218     tile.obj
 0002:00008240       $cppxdata$??$?0U?$_Wrap_alloc@V?$allocator@M@std@@@std@@X@?$_Vector_alloc@U?$_Vec_base_types@MV?$allocator@M@std@@@std@@@std@@QEAA@$$QEAU?$_Wrap_alloc@V?$allocator@M@std@@@1@@Z 0000000180053240     tile.obj
 0002:00008268       $cppxdata$??$_Ucopy@V?$_Vector_const_iterator@V?$_Vector_val@U?$_Simple_types@M@std@@@std@@@std@@@?$vector@MV?$allocator@M@std@@@std@@IEAAPEAMV?$_Vector_const_iterator@V?$_Vector_val@U?$_Simple_types@M@std@@@std@@@1@0PEAM@Z 0000000180053268     tile.obj
 0002:00008290       $cppxdata$??$?0U?$_Wrap_alloc@V?$allocator@M@std@@@std@@$$V@?$_Compressed_pair@U?$_Wrap_alloc@V?$allocator@M@std@@@std@@V?$_Vector_val@U?$_Simple_types@M@std@@@2@$00@std@@QEAA@U_One_then_variadic_args_t@1@$$QEAU?$_Wrap_alloc@V?$allocator@M@std@@@1@@Z 0000000180053290     tile.obj
 0002:000082b8       $cppxdata$??$_Uninitialized_copy@V?$_Vector_const_iterator@V?$_Vector_val@U?$_Simple_types@M@std@@@std@@@std@@PEAMV?$allocator@M@2@@std@@YAPEAMV?$_Vector_const_iterator@V?$_Vector_val@U?$_Simple_types@M@std@@@std@@@0@0PEAMAEAU?$_Wrap_alloc@V?$allocator@M@std@@@0@@Z 00000001800532b8     tile.obj
 0002:000082e0       $cppxdata$??$_Unchecked@V?$_Vector_val@U?$_Simple_types@M@std@@@std@@@std@@YAPEBMV?$_Vector_const_iterator@V?$_Vector_val@U?$_Simple_types@M@std@@@std@@@0@@Z 00000001800532e0     tile.obj
 0002:000087f8       GS_ExceptionPointers       00000001800537f8     MSVCRTD:gs_report.obj
 0002:0000aeb0       $unwind$??0AssetId@AssetManagement@MaxSDK@@QEAA@XZ 0000000180055eb0     DllEntry.obj
 0002:0000aeb8       $unwind$?GetString@@YAPEA_WH@Z 0000000180055eb8     DllEntry.obj
 0002:0000aeb8       $unwind$?LibClassDesc@@YAPEAVClassDesc@@H@Z 0000000180055eb8     DllEntry.obj
 0002:0000aec0       $unwind$??D@YA?AVPoint3@@MAEBV0@@Z 0000000180055ec0     BerconNoise.obj
 0002:0000aec0       $unwind$??D@YA?AVPoint3@@AEBV0@M@Z 0000000180055ec0     BerconCommon.obj
 0002:0000aec8       $unwind$?update@BerconXYZ@@QEAAXPEAVIParamBlock2@@HAEAVInterval@@@Z 0000000180055ec8     BerconCommon.obj
 0002:0000aed0       $unwind$?update@BerconXYZ@@QEAAXXZ 0000000180055ed0     BerconCommon.obj
 0002:0000aedc       $unwind$?get@BerconXYZ@@QEAAHAEAVShadeContext@@AEAVPoint3@@11@Z 0000000180055edc     BerconCommon.obj
 0002:0000aee8       $unwind$?get@BerconXYZ@@QEAAHAEAVShadeContext@@AEAVPoint3@@11PEAV3@@Z 0000000180055ee8     BerconCommon.obj
 0002:0000aefc       $unwind$?get@BerconXYZ@@QEAAHAEAVShadeContext@@AEAVPoint3@@@Z 0000000180055efc     BerconCommon.obj
 0002:0000af08       $unwind$?get@BerconXYZ@@QEAAHAEAVShadeContext@@AEAVPoint3@@PEAV3@@Z 0000000180055f08     BerconCommon.obj
 0002:0000af1c       $unwind$?get@BerconXYZ@@AEAAHAEAVShadeContext@@AEAVPoint3@@11VMatrix3@@PEAH@Z 0000000180055f1c     BerconCommon.obj
 0002:0000af30       $unwind$?get@BerconXYZ@@AEAAHAEAVShadeContext@@AEAVPoint3@@VMatrix3@@PEAH@Z 0000000180055f30     BerconCommon.obj
 0002:0000af44       $unwind$?random@BerconXYZ@@AEAA?AVMatrix3@@AEAVShadeContext@@PEAV2@@Z 0000000180055f44     BerconCommon.obj
 0002:0000af58       $unwind$?EnableStuff@BerconXYZ@@AEAAXPEAVIParamBlock2@@H@Z 0000000180055f58     BerconCommon.obj
 0002:0000af60       $unwind$?getBasis@BerconXYZ@@AEAAXVMatrix3@@PEAVPoint3@@@Z 0000000180055f60     BerconCommon.obj
 0002:0000af60       $unwind$?EvalColor@BerconGradient@@UEAA?AVAColor@@AEAVShadeContext@@@Z 0000000180055f60     BerconGradient.obj
 0002:0000af74       $unwind$?setSpinnerType@@YAXPEAVIParamMap2@@HHHHH_N@Z 0000000180055f74     BerconTile.obj
 0002:0000af74       $unwind$?setSpinnerType@@YAXPEAVIParamMap2@@HHHHH_N@Z 0000000180055f74     BerconCommon.obj
 0002:0000af84       $unwind$?tiling@@YAHHAEAMAEAH@Z 0000000180055f84     BerconCommon.obj
 0002:0000af84       $unwind$?SetReference@BerconTile@@UEAAXHPEAVReferenceTarget@@@Z 0000000180055f84     BerconTile.obj
 0002:0000af84       $unwind$?SetReference@BerconNoise@@UEAAXHPEAVReferenceTarget@@@Z 0000000180055f84     BerconNoise.obj
 0002:0000af84       $unwind$?SetReference@BerconDistortion@@UEAAXHPEAVReferenceTarget@@@Z 0000000180055f84     BerconDistortion.obj
 0002:0000af84       $unwind$?SetReference@BerconWood@@UEAAXHPEAVReferenceTarget@@@Z 0000000180055f84     BerconWood.obj
 0002:0000af8c       $unwind$??0TabOutOfRangeException@Util@MaxSDK@@QEAA@PEB_W@Z 0000000180055f8c     BerconDistortion.obj
 0002:0000afa0       $ip2state$??0TabOutOfRangeException@Util@MaxSDK@@QEAA@PEB_W@Z 0000000180055fa0     BerconDistortion.obj
 0002:0000afb8       $unwind$??1TabOutOfRangeException@Util@MaxSDK@@UEAA@XZ 0000000180055fb8     BerconDistortion.obj
 0002:0000afc8       $ip2state$??1TabOutOfRangeException@Util@MaxSDK@@UEAA@XZ 0000000180055fc8     BerconDistortion.obj
 0002:0000afd0       $unwind$??0TabOutOfRangeException@Util@MaxSDK@@QEAA@AEBV012@@Z 0000000180055fd0     BerconDistortion.obj
 0002:0000afe0       $stateUnwindMap$??0TabOutOfRangeException@Util@MaxSDK@@QEAA@PEB_W@Z 0000000180055fe0     BerconDistortion.obj
 0002:0000afe0       $stateUnwindMap$??0TabOutOfRangeException@Util@MaxSDK@@QEAA@AEBV012@@Z 0000000180055fe0     BerconDistortion.obj
 0002:0000afe0       $stateUnwindMap$??1TabOutOfRangeException@Util@MaxSDK@@UEAA@XZ 0000000180055fe0     BerconDistortion.obj
 0002:0000afe8       $ip2state$??0TabOutOfRangeException@Util@MaxSDK@@QEAA@AEBV012@@Z 0000000180055fe8     BerconDistortion.obj
 0002:0000b000       $unwind$??1?$Tab@PEAVBaseInterface@@@@QEAA@XZ 0000000180056000     BerconDistortion.obj
 0002:0000b010       $ip2state$??1?$Tab@PEAVBaseInterface@@@@QEAA@XZ 0000000180056010     BerconDistortion.obj
 0002:0000b018       $unwind$??0BaseInterfaceServer@@QEAA@XZ 0000000180056018     BerconDistortion.obj
 0002:0000b028       $stateUnwindMap$??0BaseInterfaceServer@@QEAA@XZ 0000000180056028     BerconDistortion.obj
 0002:0000b038       $ip2state$??0BaseInterfaceServer@@QEAA@XZ 0000000180056038     BerconDistortion.obj
 0002:0000b050       $unwind$?SetGBufferID@BerconSC@@UEAAXH@Z 0000000180056050     BerconDistortion.obj
 0002:0000b050       $unwind$??_GBerconNoiseClassDesc@@UEAAPEAXI@Z 0000000180056050     BerconNoise.obj
 0002:0000b050       $unwind$??_GInterfaceServer@@UEAAPEAXI@Z 0000000180056050     BerconDistortion.obj
 0002:0000b050       $unwind$?max_size@?$_Wrap_alloc@V?$allocator@V?$basic_string@_WU?$char_traits@_W@std@@V?$allocator@_W@2@@std@@@std@@@std@@QEBA_KU_Nil@2@@Z 0000000180056050     tile.obj
 0002:0000b050       $unwind$??_GTabOutOfRangeException@Util@MaxSDK@@UEAAPEAXI@Z 0000000180056050     BerconDistortion.obj
 0002:0000b050       $unwind$??_GBerconGradientClassDesc@@UEAAPEAXI@Z 0000000180056050     BerconGradient.obj
 0002:0000b050       $unwind$??_Gtype_info@@UEAAPEAXI@Z 0000000180056050     MSVCRTD:std_type_info_static.obj
 0002:0000b050       $unwind$?ActivateTexDisplay@BerconTile@@UEAAXH@Z 0000000180056050     BerconTile.obj
 0002:0000b050       $unwind$??_GGradientRamp@@QEAAPEAXI@Z 0000000180056050     BerconGradient.obj
 0002:0000b050       $unwind$?GetSubTexmap@BerconGradient@@UEAAPEAVTexmap@@H@Z 0000000180056050     BerconGradient.obj
 0002:0000b050       $unwind$??_GBerconXYZDlgProc@@UEAAPEAXI@Z 0000000180056050     BerconDistortion.obj
 0002:0000b050       $unwind$??_GBerconNoise@@UEAAPEAXI@Z 0000000180056050     BerconNoise.obj
 0002:0000b050       $unwind$??_GBerconTileDlgProc@@UEAAPEAXI@Z 0000000180056050     BerconTile.obj
 0002:0000b050       $unwind$??_GBerconNoiseDlgProc@@UEAAPEAXI@Z 0000000180056050     BerconNoise.obj
 0002:0000b050       $unwind$?ActivateTexDisplay@BerconDistortion@@UEAAXH@Z 0000000180056050     BerconDistortion.obj
 0002:0000b050       $unwind$??_GBerconTileClassDesc@@UEAAPEAXI@Z 0000000180056050     BerconTile.obj
 0002:0000b050       $unwind$??_Gexception@std@@UEAAPEAXI@Z 0000000180056050     MSVCRTD:throw_bad_alloc.obj
 0002:0000b050       $unwind$??_GBerconWoodClassDesc@@UEAAPEAXI@Z 0000000180056050     BerconWood.obj
 0002:0000b050       $unwind$?LocalRequirements@BerconGradient@@UEAAKH@Z 0000000180056050     BerconGradient.obj
 0002:0000b050       $unwind$??_GShadeContext@@UEAAPEAXI@Z 0000000180056050     BerconDistortion.obj
 0002:0000b050       $unwind$??_GBerconWood@@UEAAPEAXI@Z 0000000180056050     BerconWood.obj
 0002:0000b050       $unwind$??_GBerconGradientDlgProc@@UEAAPEAXI@Z 0000000180056050     BerconGradient.obj
 0002:0000b050       $unwind$?getSubtex@GradientRamp@@QEAAPEAVTexmap@@H@Z 0000000180056050     GradientRamp.obj
 0002:0000b050       $unwind$??_GBerconDistortionClassDesc@@UEAAPEAXI@Z 0000000180056050     BerconDistortion.obj
 0002:0000b050       $unwind$??_Gbad_alloc@std@@UEAAPEAXI@Z 0000000180056050     MSVCRTD:throw_bad_alloc.obj
 0002:0000b050       $unwind$?GetInterfaceAt@ClassDesc@@UEAAPEAVFPInterface@@H@Z 0000000180056050     BerconDistortion.obj
 0002:0000b050       $unwind$??_GBerconDistortion@@UEAAPEAXI@Z 0000000180056050     BerconDistortion.obj
 0002:0000b050       $unwind$?max_size@?$_Wrap_alloc@V?$allocator@_W@std@@@std@@QEBA_KU_Nil@2@@Z 0000000180056050     BerconTile.obj
 0002:0000b050       $unwind$?ActivateTexDisplay@BerconNoise@@UEAAXH@Z 0000000180056050     BerconNoise.obj
 0002:0000b050       $unwind$??_GParamMap2UserDlgProc@@UEAAPEAXI@Z 0000000180056050     BerconDistortion.obj
 0002:0000b050       $unwind$??_GTileRow@@QEAAPEAXI@Z 0000000180056050     BerconTile.obj
 0002:0000b050       $unwind$?max_size@?$_Wrap_alloc@V?$allocator@M@std@@@std@@QEBA_KU_Nil@2@@Z 0000000180056050     tile.obj
 0002:0000b050       $unwind$??_GBerconWoodDlgProc@@UEAAPEAXI@Z 0000000180056050     BerconWood.obj
 0002:0000b050       $unwind$?GetRenderElement@BerconSC@@UEAAPEAVIRenderElement@@H@Z 0000000180056050     BerconDistortion.obj
 0002:0000b050       $unwind$?max_size@?$_Wrap_alloc@V?$allocator@VTileRow@@@std@@@std@@QEBA_KU_Nil@2@@Z 0000000180056050     tile.obj
 0002:0000b050       $unwind$?LocalRequirements@BerconTile@@UEAAKH@Z 0000000180056050     BerconTile.obj
 0002:0000b050       $unwind$?LocalRequirements@BerconNoise@@UEAAKH@Z 0000000180056050     BerconNoise.obj
 0002:0000b050       $unwind$??_GBaseInterfaceServer@@UEAAPEAXI@Z 0000000180056050     BerconDistortion.obj
 0002:0000b050       $unwind$??_G?$basic_stringstream@_WU?$char_traits@_W@std@@V?$allocator@_W@2@@std@@UEAAPEAXI@Z 0000000180056050     tile.obj
 0002:0000b050       $unwind$??_Gbad_array_new_length@std@@UEAAPEAXI@Z 0000000180056050     MSVCRTD:throw_bad_alloc.obj
 0002:0000b050       $unwind$??_GICustomControl@@UEAAPEAXI@Z 0000000180056050     BerconGradient.obj
 0002:0000b050       $unwind$?ActivateTexDisplay@BerconWood@@UEAAXH@Z 0000000180056050     BerconWood.obj
 0002:0000b050       $unwind$?LocalRequirements@BerconDistortion@@UEAAKH@Z 0000000180056050     BerconDistortion.obj
 0002:0000b050       $unwind$??_GXYZ_Desc@@UEAAPEAXI@Z 0000000180056050     BerconDistortion.obj
 0002:0000b050       $unwind$??_GBerconTile@@UEAAPEAXI@Z 0000000180056050     BerconTile.obj
 0002:0000b050       $unwind$?Light@BerconSC@@UEAAPEAVLightDesc@@H@Z 0000000180056050     BerconDistortion.obj
 0002:0000b050       $unwind$??_GIGradient@@UEAAPEAXI@Z 0000000180056050     BerconGradient.obj
 0002:0000b050       $unwind$??_GBerconSC@@UEAAPEAXI@Z 0000000180056050     BerconDistortion.obj
 0002:0000b050       $unwind$??_G?$basic_string@_WU?$char_traits@_W@std@@V?$allocator@_W@2@@std@@QEAAPEAXI@Z 0000000180056050     tile.obj
 0002:0000b050       $unwind$??_GBerconCurveDlgProcGRADIENT@@UEAAPEAXI@Z 0000000180056050     BerconGradient.obj
 0002:0000b050       $unwind$??_GShadeOutput@@UEAAPEAXI@Z 0000000180056050     BerconDistortion.obj
 0002:0000b050       $unwind$??_GBerconCurveDlgProc@@UEAAPEAXI@Z 0000000180056050     BerconWood.obj
 0002:0000b050       $unwind$??_GBerconGradient@@UEAAPEAXI@Z 0000000180056050     BerconGradient.obj
 0002:0000b050       $unwind$??_GBerconCurveDlgProcNOISE@@UEAAPEAXI@Z 0000000180056050     BerconNoise.obj
 0002:0000b050       $unwind$??0BitArray@@QEAA@H@Z 0000000180056050     curvectrl.obj
 0002:0000b050       $unwind$?ActivateTexDisplay@BerconGradient@@UEAAXH@Z 0000000180056050     BerconGradient.obj
 0002:0000b050       $unwind$?LocalRequirements@BerconWood@@UEAAKH@Z 0000000180056050     BerconWood.obj
 0002:0000b050       $unwind$??_G?$basic_stringbuf@_WU?$char_traits@_W@std@@V?$allocator@_W@2@@std@@UEAAPEAXI@Z 0000000180056050     tile.obj
 0002:0000b058       $unwind$?_Getstate@?$basic_stringbuf@_WU?$char_traits@_W@std@@V?$allocator@_W@2@@std@@AEAAHH@Z 0000000180056058     tile.obj
 0002:0000b058       $unwind$?SubAnim@BerconWood@@UEAAPEAVAnimatable@@H@Z 0000000180056058     BerconWood.obj
 0002:0000b058       $unwind$?GetReference@BerconWood@@UEAAPEAVReferenceTarget@@H@Z 0000000180056058     BerconWood.obj
 0002:0000b058       $unwind$?GetParamBlock@BerconWood@@UEAAPEAVIParamBlock2@@H@Z 0000000180056058     BerconWood.obj
 0002:0000b058       $unwind$?toIndex@GradientRamp@@QEAAHH@Z 0000000180056058     GradientRamp.obj
 0002:0000b058       $unwind$?SubAnim@BerconDistortion@@UEAAPEAVAnimatable@@H@Z 0000000180056058     BerconDistortion.obj
 0002:0000b058       $unwind$?GetReference@BerconDistortion@@UEAAPEAVReferenceTarget@@H@Z 0000000180056058     BerconDistortion.obj
 0002:0000b058       $unwind$?BitMask@BitArray@@AEBA_KH@Z 0000000180056058     BerconDistortion.obj
 0002:0000b058       $unwind$?GetParamBlock@BerconDistortion@@UEAAPEAVIParamBlock2@@H@Z 0000000180056058     BerconDistortion.obj
 0002:0000b058       $unwind$?GetParamBlock@BerconTile@@UEAAPEAVIParamBlock2@@H@Z 0000000180056058     BerconTile.obj
 0002:0000b058       $unwind$?SubAnim@BerconNoise@@UEAAPEAVAnimatable@@H@Z 0000000180056058     BerconNoise.obj
 0002:0000b058       $unwind$?GetReference@BerconNoise@@UEAAPEAVReferenceTarget@@H@Z 0000000180056058     BerconNoise.obj
 0002:0000b058       $unwind$?GetParamBlock@BerconNoise@@UEAAPEAVIParamBlock2@@H@Z 0000000180056058     BerconNoise.obj
 0002:0000b058       $unwind$?GetParamBlock@BerconGradient@@UEAAPEAVIParamBlock2@@H@Z 0000000180056058     BerconGradient.obj
 0002:0000b058       $unwind$?tiling@@YAHHAEAM@Z 0000000180056058     BerconCommon.obj
 0002:0000b058       $unwind$?SubAnim@BerconTile@@UEAAPEAVAnimatable@@H@Z 0000000180056058     BerconTile.obj
 0002:0000b058       $unwind$?UseLocalBits@BitArray@@AEBA_NH@Z 0000000180056058     curvectrl.obj
 0002:0000b058       $unwind$?GetReference@BerconTile@@UEAAPEAVReferenceTarget@@H@Z 0000000180056058     BerconTile.obj
 0002:0000b060       $unwind$?NotifyForeground@ReferenceTarget@@UEAAXH@Z 0000000180056060     BerconDistortion.obj
 0002:0000b068       $unwind$??0ShadeOutput@@QEAA@XZ 0000000180056068     BerconDistortion.obj
 0002:0000b078       $stateUnwindMap$??1ShadeOutput@@UEAA@XZ 0000000180056078     BerconDistortion.obj
 0002:0000b078       $stateUnwindMap$??0ShadeOutput@@QEAA@XZ 0000000180056078     BerconDistortion.obj
 0002:0000b080       $ip2state$??0ShadeOutput@@QEAA@XZ 0000000180056080     BerconDistortion.obj
 0002:0000b098       $unwind$??4ShadeOutput@@QEAAAEAV0@AEBV0@@Z 0000000180056098     BerconDistortion.obj
 0002:0000b0a4       $unwind$??1ShadeOutput@@UEAA@XZ 00000001800560a4     BerconDistortion.obj
 0002:0000b0b8       $ip2state$??1ShadeOutput@@UEAA@XZ 00000001800560b8     BerconDistortion.obj
 0002:0000b0c0       $unwind$??0ShadeContext@@QEAA@XZ 00000001800560c0     BerconDistortion.obj
 0002:0000b0d0       $stateUnwindMap$??0ShadeContext@@QEAA@XZ 00000001800560d0     BerconDistortion.obj
 0002:0000b0d0       $stateUnwindMap$??1ShadeContext@@UEAA@XZ 00000001800560d0     BerconDistortion.obj
 0002:0000b0e0       $ip2state$??0ShadeContext@@QEAA@XZ 00000001800560e0     BerconDistortion.obj
 0002:0000b100       $unwind$??1ShadeContext@@UEAA@XZ 0000000180056100     BerconDistortion.obj
 0002:0000b110       $ip2state$??1ShadeContext@@UEAA@XZ 0000000180056110     BerconDistortion.obj
 0002:0000b128       $unwind$??1Texmap@@UEAA@XZ 0000000180056128     BerconDistortion.obj
 0002:0000b138       $stateUnwindMap$??1Texmap@@UEAA@XZ 0000000180056138     BerconDistortion.obj
 0002:0000b140       $ip2state$??1Texmap@@UEAA@XZ 0000000180056140     BerconDistortion.obj
 0002:0000b148       $unwind$??0XYZ_Desc@@QEAA@PEAVClassDesc2@@HHHHHHH@Z 0000000180056148     BerconDistortion.obj
 0002:0000b158       $stateUnwindMap$??0XYZ_Desc@@QEAA@PEAVClassDesc2@@HHHHHHH@Z 0000000180056158     BerconDistortion.obj
 0002:0000b160       $ip2state$??0XYZ_Desc@@QEAA@PEAVClassDesc2@@HHHHHHH@Z 0000000180056160     BerconDistortion.obj
 0002:0000b178       $unwind$??1XYZ_Desc@@UEAA@XZ 0000000180056178     BerconDistortion.obj
 0002:0000b188       $stateUnwindMap$??1XYZ_Desc@@UEAA@XZ 0000000180056188     BerconDistortion.obj
 0002:0000b190       $ip2state$??1XYZ_Desc@@UEAA@XZ 0000000180056190     BerconDistortion.obj
 0002:0000b198       $unwind$??0BerconXYZDlgProc@@QEAA@PEAVReferenceTarget@@@Z 0000000180056198     BerconDistortion.obj
 0002:0000b1a8       $ip2state$??0BerconXYZDlgProc@@QEAA@PEAVReferenceTarget@@@Z 00000001800561a8     BerconDistortion.obj
 0002:0000b1c0       $unwind$?DlgProc@BerconXYZDlgProc@@UEAA_JHPEAVIParamMap2@@PEAUHWND__@@I_K_J@Z 00000001800561c0     BerconDistortion.obj
 0002:0000b1d0       $unwind$??1BerconXYZDlgProc@@UEAA@XZ 00000001800561d0     BerconDistortion.obj
 0002:0000b1e0       $ip2state$??1BerconXYZDlgProc@@UEAA@XZ 00000001800561e0     BerconDistortion.obj
 0002:0000b1e8       $unwind$?CreateParamDlg@BerconDistortion@@UEAAPEAVParamDlg@@PEAUHWND__@@PEAVIMtlParams@@@Z 00000001800561e8     BerconDistortion.obj
 0002:0000b1f8       $ip2state$?CreateParamDlg@BerconDistortion@@UEAAPEAVParamDlg@@PEAUHWND__@@PEAVIMtlParams@@@Z 00000001800561f8     BerconDistortion.obj
 0002:0000b210       $unwind$?Update@BerconDistortion@@UEAAXHAEAVInterval@@@Z 0000000180056210     BerconDistortion.obj
 0002:0000b218       $unwind$?Reset@BerconDistortion@@UEAAXXZ 0000000180056218     BerconDistortion.obj
 0002:0000b220       $unwind$DllMain            0000000180056220     DllEntry.obj
 0002:0000b220       $unwind$?SetSubTexmap@BerconTile@@UEAAXHPEAVTexmap@@@Z 0000000180056220     BerconTile.obj
 0002:0000b220       $unwind$??$DLSetWindowLongPtr@H@@YAHPEAUHWND__@@HH@Z 0000000180056220     BerconGradient.obj
 0002:0000b220       $unwind$?SetSubTexmap@BerconNoise@@UEAAXHPEAVTexmap@@@Z 0000000180056220     BerconNoise.obj
 0002:0000b220       $unwind$?SetSubTexmap@BerconGradient@@UEAAXHPEAVTexmap@@@Z 0000000180056220     BerconGradient.obj
 0002:0000b220       $unwind$_DllMainCRTStartup 0000000180056220     MSVCRTD:dll_dllmain.obj
 0002:0000b220       $unwind$?setSubtex@GradientRamp@@QEAAXHPEAVTexmap@@@Z 0000000180056220     GradientRamp.obj
 0002:0000b220       $unwind$?SetSubTexmap@BerconDistortion@@UEAAXHPEAVTexmap@@@Z 0000000180056220     BerconDistortion.obj
 0002:0000b220       $unwind$?SetSubTexmap@BerconWood@@UEAAXHPEAVTexmap@@@Z 0000000180056220     BerconWood.obj
 0002:0000b228       $unwind$?GetSubTexmapSlotName@BerconDistortion@@UEAA?AVWStr@@H@Z 0000000180056228     BerconDistortion.obj
 0002:0000b240       $ip2state$?GetSubTexmapSlotName@BerconDistortion@@UEAA?AVWStr@@H@Z 0000000180056240     BerconDistortion.obj
 0002:0000b280       $unwind$?EvalColor@BerconDistortion@@UEAA?AVAColor@@AEAVShadeContext@@@Z 0000000180056280     BerconDistortion.obj
 0002:0000b298       $ip2state$?EvalColor@BerconDistortion@@UEAA?AVAColor@@AEAVShadeContext@@@Z 0000000180056298     BerconDistortion.obj
 0002:0000b2b0       $unwind$?EvalMono@BerconDistortion@@UEAAMAEAVShadeContext@@@Z 00000001800562b0     BerconDistortion.obj
 0002:0000b2c4       $stateUnwindMap$?EvalMono@BerconDistortion@@UEAAMAEAVShadeContext@@@Z 00000001800562c4     BerconDistortion.obj
 0002:0000b2d0       $ip2state$?EvalMono@BerconDistortion@@UEAAMAEAVShadeContext@@@Z 00000001800562d0     BerconDistortion.obj
 0002:0000b2e8       $unwind$?EvalNormalPerturb@BerconDistortion@@UEAA?AVPoint3@@AEAVShadeContext@@@Z 00000001800562e8     BerconDistortion.obj
 0002:0000b2fc       $stateUnwindMap$?EvalNormalPerturb@BerconDistortion@@UEAA?AVPoint3@@AEAVShadeContext@@@Z 00000001800562fc     BerconDistortion.obj
 0002:0000b2fc       $stateUnwindMap$?EvalColor@BerconDistortion@@UEAA?AVAColor@@AEAVShadeContext@@@Z 00000001800562fc     BerconDistortion.obj
 0002:0000b308       $ip2state$?EvalNormalPerturb@BerconDistortion@@UEAA?AVPoint3@@AEAVShadeContext@@@Z 0000000180056308     BerconDistortion.obj
 0002:0000b320       $unwind$??$destroy@VTileRow@@@?$allocator@VTileRow@@@std@@QEAAXPEAVTileRow@@@Z 0000000180056320     BerconTile.obj
 0002:0000b320       $unwind$??$destroy@VTileRow@@@?$allocator_traits@V?$allocator@VTileRow@@@std@@@std@@SAXAEAV?$allocator@VTileRow@@@1@PEAVTileRow@@@Z 0000000180056320     BerconTile.obj
 0002:0000b320       $unwind$??$destroy@VTileRow@@@?$_Wrap_alloc@V?$allocator@VTileRow@@@std@@@std@@QEAAXPEAVTileRow@@@Z 0000000180056320     BerconTile.obj
 0002:0000b320       $unwind$??$destroy@V?$basic_string@_WU?$char_traits@_W@std@@V?$allocator@_W@2@@std@@@?$allocator@V?$basic_string@_WU?$char_traits@_W@std@@V?$allocator@_W@2@@std@@@std@@QEAAXPEAV?$basic_string@_WU?$char_traits@_W@std@@V?$allocator@_W@2@@1@@Z 0000000180056320     tile.obj
 0002:0000b320       $unwind$?allocate@?$_Wrap_alloc@V?$allocator@_W@std@@@std@@QEAAPEA_W_K@Z 0000000180056320     BerconTile.obj
 0002:0000b320       $unwind$?allocate@?$allocator@_W@std@@QEAAPEA_W_K@Z 0000000180056320     BerconTile.obj
 0002:0000b320       $unwind$?SetUserDlgProc@ParamBlockDesc2@@QEAAXPEAVParamMap2UserDlgProc@@@Z 0000000180056320     BerconDistortion.obj
 0002:0000b320       $unwind$??$destroy@U_Container_proxy@std@@@?$allocator_traits@V?$allocator@U_Container_proxy@std@@@std@@@std@@SAXAEAV?$allocator@U_Container_proxy@std@@@1@PEAU_Container_proxy@1@@Z 0000000180056320     BerconTile.obj
 0002:0000b320       $unwind$??$destroy@PEA_W@?$allocator_traits@V?$allocator@_W@std@@@std@@SAXAEAV?$allocator@_W@1@PEAPEA_W@Z 0000000180056320     BerconTile.obj
 0002:0000b320       $unwind$?GetUVTransform@Texmap@@UEAAXAEAVMatrix3@@@Z 0000000180056320     BerconDistortion.obj
 0002:0000b320       $unwind$??$?0AEAU?$_Wrap_alloc@V?$allocator@_W@std@@@std@@@?$_Wrap_alloc@V?$allocator@U_Container_proxy@std@@@std@@@std@@QEAA@AEAU?$_Wrap_alloc@V?$allocator@_W@std@@@1@@Z 0000000180056320     BerconTile.obj
 0002:0000b320       $unwind$?allocate@?$allocator@M@std@@QEAAPEAM_K@Z 0000000180056320     tile.obj
 0002:0000b320       $unwind$??$destroy@V?$basic_string@_WU?$char_traits@_W@std@@V?$allocator@_W@2@@std@@@?$allocator_traits@V?$allocator@V?$basic_string@_WU?$char_traits@_W@std@@V?$allocator@_W@2@@std@@@std@@@std@@SAXAEAV?$allocator@V?$basic_string@_WU?$char_traits@_W@std@@V?$allocator@_W@2@@std@@@1@PEAV?$basic_string@_WU?$char_traits@_W@std@@V?$allocator@_W@2@@1@@Z 0000000180056320     tile.obj
 0002:0000b320       $unwind$?SetDlgThing@BerconNoise@@UEAAHPEAVParamDlg@@@Z 0000000180056320     BerconNoise.obj
 0002:0000b320       $unwind$??$destroy@V?$basic_string@_WU?$char_traits@_W@std@@V?$allocator@_W@2@@std@@@?$_Wrap_alloc@V?$allocator@V?$basic_string@_WU?$char_traits@_W@std@@V?$allocator@_W@2@@std@@@std@@@std@@QEAAXPEAV?$basic_string@_WU?$char_traits@_W@std@@V?$allocator@_W@2@@1@@Z 0000000180056320     tile.obj
 0002:0000b320       $unwind$??$?0AEBV?$allocator@_W@std@@@?$_Wrap_alloc@V?$allocator@_W@std@@@std@@QEAA@AEBV?$allocator@_W@1@@Z 0000000180056320     tile.obj
 0002:0000b320       $unwind$?select_on_container_copy_construction@?$allocator_traits@V?$allocator@M@std@@@std@@SA?AV?$allocator@M@2@AEBV32@@Z 0000000180056320     tile.obj
 0002:0000b320       $unwind$??$?0AEAU?$_Wrap_alloc@V?$allocator@M@std@@@std@@@?$_Wrap_alloc@V?$allocator@U_Container_proxy@std@@@std@@@std@@QEAA@AEAU?$_Wrap_alloc@V?$allocator@M@std@@@1@@Z 0000000180056320     BerconTile.obj
 0002:0000b320       $unwind$?ClassID@BerconGradientClassDesc@@UEAA?AVClass_ID@@XZ 0000000180056320     BerconGradient.obj
 0002:0000b320       $unwind$??$?0V?$allocator@M@std@@@?$_Wrap_alloc@V?$allocator@M@std@@@std@@QEAA@$$QEAV?$allocator@M@1@@Z 0000000180056320     tile.obj
 0002:0000b320       $unwind$??0?$_Wrap_alloc@V?$allocator@M@std@@@std@@QEAA@$$QEAU01@@Z 0000000180056320     tile.obj
 0002:0000b320       $unwind$??$?0AEAU?$_Wrap_alloc@V?$allocator@V?$basic_string@_WU?$char_traits@_W@std@@V?$allocator@_W@2@@std@@@std@@@std@@@?$_Wrap_alloc@V?$allocator@U_Container_proxy@std@@@std@@@std@@QEAA@AEAU?$_Wrap_alloc@V?$allocator@V?$basic_string@_WU?$char_traits@_W@std@@V?$allocator@_W@2@@std@@@std@@@1@@Z 0000000180056320     tile.obj
 0002:0000b320       $unwind$??$destroy@U_Container_proxy@std@@@?$_Wrap_alloc@V?$allocator@U_Container_proxy@std@@@std@@@std@@QEAAXPEAU_Container_proxy@1@@Z 0000000180056320     BerconTile.obj
 0002:0000b320       $unwind$??0bad_array_new_length@std@@QEAA@AEBV01@@Z 0000000180056320     MSVCRTD:throw_bad_alloc.obj
 0002:0000b320       $unwind$?DiffuseIllum@BerconSC@@UEAA?AVColor@@XZ 0000000180056320     BerconDistortion.obj
 0002:0000b320       $unwind$?allocate@?$_Wrap_alloc@V?$allocator@M@std@@@std@@QEAAPEAM_K@Z 0000000180056320     tile.obj
 0002:0000b320       $unwind$??0_Iterator_base12@std@@QEAA@AEBU01@@Z 0000000180056320     tile.obj
 0002:0000b320       $unwind$?ClassID@BerconNoise@@UEAA?AVClass_ID@@XZ 0000000180056320     BerconNoise.obj
 0002:0000b320       $unwind$??0GradientRamp@@QEAA@PEAVGradientMap@@@Z 0000000180056320     BerconGradient.obj
 0002:0000b320       $unwind$?SetDlgThing@BerconWood@@UEAAHPEAVParamDlg@@@Z 0000000180056320     BerconWood.obj
 0002:0000b320       $unwind$??$?0AEAU?$_Wrap_alloc@V?$allocator@VTileRow@@@std@@@std@@@?$_Wrap_alloc@V?$allocator@U_Container_proxy@std@@@std@@@std@@QEAA@AEAU?$_Wrap_alloc@V?$allocator@VTileRow@@@std@@@1@@Z 0000000180056320     BerconTile.obj
 0002:0000b320       $unwind$??0bad_alloc@std@@QEAA@AEBV01@@Z 0000000180056320     MSVCRTD:throw_bad_alloc.obj
 0002:0000b320       $unwind$?TossCache@BerconSC@@UEAAXPEAVTexmap@@@Z 0000000180056320     BerconDistortion.obj
 0002:0000b320       $unwind$?GetClassName@BerconDistortion@@UEAAXAEAVWStr@@@Z 0000000180056320     BerconDistortion.obj
 0002:0000b320       $unwind$?assign@?$basic_string@_WU?$char_traits@_W@std@@V?$allocator@_W@2@@std@@QEAAAEAV12@PEB_W@Z 0000000180056320     BerconTile.obj
 0002:0000b320       $unwind$?GetClassName@BerconNoise@@UEAAXAEAVWStr@@@Z 0000000180056320     BerconNoise.obj
 0002:0000b320       $unwind$?GetParamBlockByID@BerconTile@@UEAAPEAVIParamBlock2@@F@Z 0000000180056320     BerconTile.obj
 0002:0000b320       $unwind$?select_on_container_copy_construction@?$allocator_traits@V?$allocator@_W@std@@@std@@SA?AV?$allocator@_W@2@AEBV32@@Z 0000000180056320     tile.obj
 0002:0000b320       $unwind$??0bad_alloc@std@@AEAA@QEBD@Z 0000000180056320     MSVCRTD:throw_bad_alloc.obj
 0002:0000b320       $unwind$?ClassID@BerconDistortion@@UEAA?AVClass_ID@@XZ 0000000180056320     BerconDistortion.obj
 0002:0000b320       $unwind$?allocate@?$_Wrap_alloc@V?$allocator@U_Container_proxy@std@@@std@@@std@@QEAAPEAU_Container_proxy@2@_K@Z 0000000180056320     BerconTile.obj
 0002:0000b320       $unwind$?address@?$_Wrap_alloc@V?$allocator@U_Container_proxy@std@@@std@@@std@@QEBAPEAU_Container_proxy@2@AEAU32@@Z 0000000180056320     BerconTile.obj
 0002:0000b320       $unwind$?allocate@?$allocator@U_Container_proxy@std@@@std@@QEAAPEAU_Container_proxy@2@_K@Z 0000000180056320     BerconTile.obj
 0002:0000b320       $unwind$?GetParamBlockByID@BerconNoise@@UEAAPEAVIParamBlock2@@F@Z 0000000180056320     BerconNoise.obj
 0002:0000b320       $unwind$??3@YAXPEAX_K@Z    0000000180056320     MSVCRTD:delete_scalar_size.obj
 0002:0000b320       $unwind$??$destroy@PEA_W@?$_Wrap_alloc@V?$allocator@_W@std@@@std@@QEAAXPEAPEA_W@Z 0000000180056320     BerconTile.obj
 0002:0000b320       $unwind$?allocate@?$_Wrap_alloc@V?$allocator@V?$basic_string@_WU?$char_traits@_W@std@@V?$allocator@_W@2@@std@@@std@@@std@@QEAAPEAV?$basic_string@_WU?$char_traits@_W@std@@V?$allocator@_W@2@@2@_K@Z 0000000180056320     tile.obj
 0002:0000b320       $unwind$?GetParamBlockByID@BerconGradient@@UEAAPEAVIParamBlock2@@F@Z 0000000180056320     BerconGradient.obj
 0002:0000b320       $unwind$?ClassID@BerconNoiseClassDesc@@UEAA?AVClass_ID@@XZ 0000000180056320     BerconNoise.obj
 0002:0000b320       $unwind$?erase@?$basic_string@_WU?$char_traits@_W@std@@V?$allocator@_W@2@@std@@QEAAAEAV12@_K@Z 0000000180056320     BerconTile.obj
 0002:0000b320       $unwind$??0TilePoint@@QEAA@$$QEAV0@@Z 0000000180056320     tile.obj
 0002:0000b320       $unwind$?SetThing@BerconCurveDlgProcGRADIENT@@UEAAXPEAVReferenceTarget@@@Z 0000000180056320     BerconGradient.obj
 0002:0000b320       $unwind$?allocate@?$allocator@V?$basic_string@_WU?$char_traits@_W@std@@V?$allocator@_W@2@@std@@@std@@QEAAPEAV?$basic_string@_WU?$char_traits@_W@std@@V?$allocator@_W@2@@2@_K@Z 0000000180056320     tile.obj
 0002:0000b320       $unwind$?ClassID@BerconDistortionClassDesc@@UEAA?AVClass_ID@@XZ 0000000180056320     BerconDistortion.obj
 0002:0000b320       $unwind$?ClassID@BerconSC@@UEAA?AVClass_ID@@XZ 0000000180056320     BerconDistortion.obj
 0002:0000b320       $unwind$?SetThing@BerconWoodDlgProc@@UEAAXPEAVReferenceTarget@@@Z 0000000180056320     BerconWood.obj
 0002:0000b320       $unwind$?ClassID@BerconWood@@UEAA?AVClass_ID@@XZ 0000000180056320     BerconWood.obj
 0002:0000b320       $unwind$?GetClassName@BerconGradient@@UEAAXAEAVWStr@@@Z 0000000180056320     BerconGradient.obj
 0002:0000b320       $unwind$?GetClassName@BerconWood@@UEAAXAEAVWStr@@@Z 0000000180056320     BerconWood.obj
 0002:0000b320       $unwind$?ClassID@BerconGradient@@UEAA?AVClass_ID@@XZ 0000000180056320     BerconGradient.obj
 0002:0000b320       $unwind$?setSubtex@GradientRamp@@QEAAXPEAVTexmap@@@Z 0000000180056320     GradientRamp.obj
 0002:0000b320       $unwind$?SurfacePtScreen@ShadeContext@@UEAA?AVPoint2@@XZ 0000000180056320     BerconDistortion.obj
 0002:0000b320       $unwind$?SetThing@BerconCurveDlgProcNOISE@@UEAAXPEAVReferenceTarget@@@Z 0000000180056320     BerconNoise.obj
 0002:0000b320       $unwind$?allocate@?$allocator@VTileRow@@@std@@QEAAPEAVTileRow@@_K@Z 0000000180056320     tile.obj
 0002:0000b320       $unwind$?GetClassName@BerconTile@@UEAAXAEAVWStr@@@Z 0000000180056320     BerconTile.obj
 0002:0000b320       $unwind$?OrigView@ShadeContext@@UEAA?AVPoint3@@XZ 0000000180056320     BerconDistortion.obj
 0002:0000b320       $unwind$?OrigNormal@ShadeContext@@UEAA?AVPoint3@@XZ 0000000180056320     BerconDistortion.obj
 0002:0000b320       $unwind$?ClassID@BerconTile@@UEAA?AVClass_ID@@XZ 0000000180056320     BerconTile.obj
 0002:0000b320       $unwind$?BarycentricCoords@BerconSC@@UEAA?AVPoint3@@XZ 0000000180056320     BerconDistortion.obj
 0002:0000b320       $unwind$?allocate@?$_Wrap_alloc@V?$allocator@VTileRow@@@std@@@std@@QEAAPEAVTileRow@@_K@Z 0000000180056320     tile.obj
 0002:0000b320       $unwind$?BarycentricCoords@ShadeContext@@UEAA?AVPoint3@@XZ 0000000180056320     BerconDistortion.obj
 0002:0000b320       $unwind$?SetThing@BerconCurveDlgProc@@UEAAXPEAVReferenceTarget@@@Z 0000000180056320     BerconWood.obj
 0002:0000b320       $unwind$?Normal@BerconSC@@UEAA?AVPoint3@@XZ 0000000180056320     BerconDistortion.obj
 0002:0000b320       $unwind$?ClassID@ShadeContext@@UEAA?AVClass_ID@@XZ 0000000180056320     BerconDistortion.obj
 0002:0000b320       $unwind$?_Check_offset@?$basic_string@_WU?$char_traits@_W@std@@V?$allocator@_W@2@@std@@QEBAX_K@Z 0000000180056320     BerconTile.obj
 0002:0000b320       $unwind$?OrigNormal@BerconSC@@UEAA?AVPoint3@@XZ 0000000180056320     BerconDistortion.obj
 0002:0000b320       $unwind$?GNormal@BerconSC@@UEAA?AVPoint3@@XZ 0000000180056320     BerconDistortion.obj
 0002:0000b320       $unwind$?V@BerconSC@@UEAA?AVPoint3@@XZ 0000000180056320     BerconDistortion.obj
 0002:0000b320       $unwind$?ClassID@BerconTileClassDesc@@UEAA?AVClass_ID@@XZ 0000000180056320     BerconTile.obj
 0002:0000b320       $unwind$?OrigView@BerconSC@@UEAA?AVPoint3@@XZ 0000000180056320     BerconDistortion.obj
 0002:0000b320       $unwind$?ReflectVector@BerconSC@@UEAA?AVPoint3@@XZ 0000000180056320     BerconDistortion.obj
 0002:0000b320       $unwind$?CamPos@BerconSC@@UEAA?AVPoint3@@XZ 0000000180056320     BerconDistortion.obj
 0002:0000b320       $unwind$?DP@BerconSC@@UEAA?AVPoint3@@XZ 0000000180056320     BerconDistortion.obj
 0002:0000b320       $unwind$?ClassID@BerconWoodClassDesc@@UEAA?AVClass_ID@@XZ 0000000180056320     BerconWood.obj
 0002:0000b320       $unwind$?GetParamBlockByID@BerconWood@@UEAAPEAVIParamBlock2@@F@Z 0000000180056320     BerconWood.obj
 0002:0000b320       $unwind$?DPObj@BerconSC@@UEAA?AVPoint3@@XZ 0000000180056320     BerconDistortion.obj
 0002:0000b320       $unwind$?ObjectBox@BerconSC@@UEAA?AVBox3@@XZ 0000000180056320     BerconDistortion.obj
 0002:0000b320       $unwind$?SetThing@BerconNoiseDlgProc@@UEAAXPEAVReferenceTarget@@@Z 0000000180056320     BerconNoise.obj
 0002:0000b320       $unwind$??0?$_Wrap_alloc@V?$allocator@_W@std@@@std@@QEAA@$$QEAU01@@Z 0000000180056320     tile.obj
 0002:0000b320       $unwind$?PObjRelBox@BerconSC@@UEAA?AVPoint3@@XZ 0000000180056320     BerconDistortion.obj
 0002:0000b320       $unwind$?DPObjRelBox@BerconSC@@UEAA?AVPoint3@@XZ 0000000180056320     BerconDistortion.obj
 0002:0000b320       $unwind$?ScreenCoord@BerconSC@@UEAA?AVIPoint2@@XZ 0000000180056320     BerconDistortion.obj
 0002:0000b320       $unwind$?SetDlgThing@BerconTile@@UEAAHPEAVParamDlg@@@Z 0000000180056320     BerconTile.obj
 0002:0000b320       $unwind$?SetDlgThing@BerconGradient@@UEAAHPEAVParamDlg@@@Z 0000000180056320     BerconGradient.obj
 0002:0000b320       $unwind$?SurfacePtScreen@BerconSC@@UEAA?AVPoint2@@XZ 0000000180056320     BerconDistortion.obj
 0002:0000b320       $unwind$?SubClassID@ClassDesc@@UEAA?AVClass_ID@@XZ 0000000180056320     BerconDistortion.obj
 0002:0000b320       $unwind$??$?0V?$allocator@_W@std@@@?$_Wrap_alloc@V?$allocator@_W@std@@@std@@QEAA@$$QEAV?$allocator@_W@1@@Z 0000000180056320     tile.obj
 0002:0000b328       $unwind$?Clone@BerconDistortion@@UEAAPEAVReferenceTarget@@AEAVRemapDir@@@Z 0000000180056328     BerconDistortion.obj
 0002:0000b338       $ip2state$?Clone@BerconDistortion@@UEAAPEAVReferenceTarget@@AEAVRemapDir@@@Z 0000000180056338     BerconDistortion.obj
 0002:0000b350       $unwind$?SubAnimName@BerconDistortion@@UEAA?AVWStr@@H@Z 0000000180056350     BerconDistortion.obj
 0002:0000b360       $ip2state$?SubAnimName@BerconDistortion@@UEAA?AVWStr@@H@Z 0000000180056360     BerconDistortion.obj
 0002:0000b390       $unwind$??0BerconDistortion@@QEAA@XZ 0000000180056390     BerconDistortion.obj
 0002:0000b3a0       $ip2state$??0BerconDistortion@@QEAA@XZ 00000001800563a0     BerconDistortion.obj
 0002:0000b3b8       $unwind$??1BerconDistortion@@UEAA@XZ 00000001800563b8     BerconDistortion.obj
 0002:0000b3c8       $stateUnwindMap$??0BerconNoise@@QEAA@XZ 00000001800563c8     BerconNoise.obj
 0002:0000b3c8       $stateUnwindMap$??1BerconNoise@@UEAA@XZ 00000001800563c8     BerconNoise.obj
 0002:0000b3c8       $stateUnwindMap$??0BerconDistortion@@QEAA@XZ 00000001800563c8     BerconDistortion.obj
 0002:0000b3c8       $stateUnwindMap$??0BerconWood@@QEAA@XZ 00000001800563c8     BerconWood.obj
 0002:0000b3c8       $stateUnwindMap$??1BerconWood@@UEAA@XZ 00000001800563c8     BerconWood.obj
 0002:0000b3c8       $stateUnwindMap$??1BerconDistortion@@UEAA@XZ 00000001800563c8     BerconDistortion.obj
 0002:0000b3d0       $ip2state$??1BerconDistortion@@UEAA@XZ 00000001800563d0     BerconDistortion.obj
 0002:0000b3e8       $unwind$?__autoclassinit2@BerconWoodDlgProc@@QEAAX_K@Z 00000001800563e8     BerconWood.obj
 0002:0000b3e8       $unwind$?__autoclassinit2@GradientRamp@@QEAAX_K@Z 00000001800563e8     BerconGradient.obj
 0002:0000b3e8       $unwind$??0?$fpos@U_Mbstatet@@@std@@QEAA@_J@Z 00000001800563e8     tile.obj
 0002:0000b3e8       $unwind$?__autoclassinit2@IGradient@@QEAAX_K@Z 00000001800563e8     BerconGradient.obj
 0002:0000b3e8       $unwind$?__autoclassinit2@ParamBlockDesc2@@QEAAX_K@Z 00000001800563e8     BerconDistortion.obj
 0002:0000b3e8       $unwind$?__autoclassinit2@BerconCurveDlgProcNOISE@@QEAAX_K@Z 00000001800563e8     BerconNoise.obj
 0002:0000b3e8       $unwind$?__autoclassinit2@BitArray@@QEAAX_K@Z 00000001800563e8     curvectrl.obj
 0002:0000b3e8       $unwind$?__autoclassinit2@BerconDistortionClassDesc@@QEAAX_K@Z 00000001800563e8     BerconDistortion.obj
 0002:0000b3e8       $unwind$?__autoclassinit2@BerconTile@@QEAAX_K@Z 00000001800563e8     BerconTile.obj
 0002:0000b3e8       $unwind$?__autoclassinit2@BerconNoiseDlgProc@@QEAAX_K@Z 00000001800563e8     BerconNoise.obj
 0002:0000b3e8       $unwind$?__autoclassinit2@BerconGradient@@QEAAX_K@Z 00000001800563e8     BerconGradient.obj
 0002:0000b3e8       $unwind$?__autoclassinit2@BerconGradientDlgProc@@QEAAX_K@Z 00000001800563e8     BerconGradient.obj
 0002:0000b3e8       $unwind$?__autoclassinit2@BerconWood@@QEAAX_K@Z 00000001800563e8     BerconWood.obj
 0002:0000b3e8       $unwind$?__autoclassinit2@BerconGradientClassDesc@@QEAAX_K@Z 00000001800563e8     BerconGradient.obj
 0002:0000b3e8       $unwind$?__autoclassinit2@?$vector@V?$basic_string@_WU?$char_traits@_W@std@@V?$allocator@_W@2@@std@@V?$allocator@V?$basic_string@_WU?$char_traits@_W@std@@V?$allocator@_W@2@@std@@@2@@std@@QEAAX_K@Z 00000001800563e8     tile.obj
 0002:0000b3e8       $unwind$?__autoclassinit2@BerconNoise@@QEAAX_K@Z 00000001800563e8     BerconNoise.obj
 0002:0000b3e8       $unwind$?__autoclassinit2@BerconSC@@QEAAX_K@Z 00000001800563e8     BerconTile.obj
 0002:0000b3e8       $unwind$?__autoclassinit2@TileParam@@QEAAX_K@Z 00000001800563e8     BerconTile.obj
 0002:0000b3e8       $unwind$?__autoclassinit2@BerconTileClassDesc@@QEAAX_K@Z 00000001800563e8     BerconTile.obj
 0002:0000b3e8       $unwind$?__autoclassinit2@BerconCurveDlgProcGRADIENT@@QEAAX_K@Z 00000001800563e8     BerconGradient.obj
 0002:0000b3e8       $unwind$?__autoclassinit2@?$basic_stringstream@_WU?$char_traits@_W@std@@V?$allocator@_W@2@@std@@QEAAX_K@Z 00000001800563e8     tile.obj
 0002:0000b3e8       $unwind$?__autoclassinit2@BerconDistortion@@QEAAX_K@Z 00000001800563e8     BerconDistortion.obj
 0002:0000b3e8       $unwind$?__autoclassinit2@BerconWoodClassDesc@@QEAAX_K@Z 00000001800563e8     BerconWood.obj
 0002:0000b3e8       $unwind$?__autoclassinit2@BerconTileDlgProc@@QEAAX_K@Z 00000001800563e8     BerconTile.obj
 0002:0000b3e8       $unwind$?__autoclassinit2@BerconXYZDlgProc@@QEAAX_K@Z 00000001800563e8     BerconDistortion.obj
 0002:0000b3e8       $unwind$?__autoclassinit2@BerconNoiseClassDesc@@QEAAX_K@Z 00000001800563e8     BerconNoise.obj
 0002:0000b3e8       $unwind$?__autoclassinit2@BerconCurveDlgProc@@QEAAX_K@Z 00000001800563e8     BerconWood.obj
 0002:0000b3e8       $unwind$?__autoclassinit2@TileRow@@QEAAX_K@Z 00000001800563e8     tile.obj
 0002:0000b3e8       $unwind$?__autoclassinit2@XYZ_Desc@@QEAAX_K@Z 00000001800563e8     BerconDistortion.obj
 0002:0000b3f0       $unwind$??0BerconDistortionClassDesc@@QEAA@XZ 00000001800563f0     BerconDistortion.obj
 0002:0000b400       $ip2state$??0BerconDistortionClassDesc@@QEAA@XZ 0000000180056400     BerconDistortion.obj
 0002:0000b418       $unwind$??1BerconDistortionClassDesc@@UEAA@XZ 0000000180056418     BerconDistortion.obj
 0002:0000b428       $ip2state$??1BerconDistortionClassDesc@@UEAA@XZ 0000000180056428     BerconDistortion.obj
 0002:0000b430       $unwind$?Create@BerconDistortionClassDesc@@UEAAPEAXH@Z 0000000180056430     BerconDistortion.obj
 0002:0000b440       $ip2state$?Create@BerconDistortionClassDesc@@UEAAPEAXH@Z 0000000180056440     BerconDistortion.obj
 0002:0000b458       $unwind$??0BerconSC@@QEAA@QEAVShadeContext@@@Z 0000000180056458     BerconDistortion.obj
 0002:0000b46c       $stateUnwindMap$??0BerconSC@@QEAA@QEAVShadeContext@@@Z 000000018005646c     BerconDistortion.obj
 0002:0000b478       $ip2state$??0BerconSC@@QEAA@QEAVShadeContext@@@Z 0000000180056478     BerconDistortion.obj
 0002:0000b490       $unwind$?setParams@BerconSC@@QEAAXVPoint3@@HH@Z 0000000180056490     BerconDistortion.obj
 0002:0000b498       $unwind$?SetIOR@BerconSC@@UEAAXM@Z 0000000180056498     BerconDistortion.obj
 0002:0000b4a0       $unwind$?SetView@BerconSC@@UEAAXVPoint3@@@Z 00000001800564a0     BerconDistortion.obj
 0002:0000b4a0       $unwind$?P@BerconSC@@UEAA?AVPoint3@@XZ 00000001800564a0     BerconDistortion.obj
 0002:0000b4a0       $unwind$?PObj@BerconSC@@UEAA?AVPoint3@@XZ 00000001800564a0     BerconDistortion.obj
 0002:0000b4a0       $unwind$?SetNormal@BerconSC@@UEAAXVPoint3@@@Z 00000001800564a0     BerconDistortion.obj
 0002:0000b4a0       $unwind$?_Assign_rv@?$basic_string@_WU?$char_traits@_W@std@@V?$allocator@_W@2@@std@@QEAAX$$QEAV12@@Z 00000001800564a0     tile.obj
 0002:0000b4a8       $unwind$?GetBGColor@BerconSC@@UEAAXAEAVColor@@0H@Z 00000001800564a8     BerconDistortion.obj
 0002:0000b4a8       $unwind$?VectorTo@BerconSC@@UEAA?AVPoint3@@AEBV2@W4RefFrame@@@Z 00000001800564a8     BerconDistortion.obj
 0002:0000b4a8       $unwind$??$_Umove@PEAVTileRow@@@?$vector@VTileRow@@V?$allocator@VTileRow@@@std@@@std@@IEAAPEAVTileRow@@PEAV2@00@Z 00000001800564a8     tile.obj
 0002:0000b4a8       $unwind$??$_Uninitialized_move_al_unchecked1@MMV?$allocator@M@std@@@std@@YAPEAMPEAM00AEAU?$_Wrap_alloc@V?$allocator@M@std@@@0@U_Really_trivial_ptr_iterator_tag@0@U?$integral_constant@_N$00@0@@Z 00000001800564a8     tile.obj
 0002:0000b4a8       $unwind$?VectorFromNoScale@BerconSC@@UEAA?AVPoint3@@AEBV2@W4RefFrame@@@Z 00000001800564a8     BerconDistortion.obj
 0002:0000b4a8       $unwind$?VectorToNoScale@BerconSC@@UEAA?AVPoint3@@AEBV2@W4RefFrame@@@Z 00000001800564a8     BerconDistortion.obj
 0002:0000b4a8       $unwind$??$_Destroy_range1@V?$allocator@VTileRow@@@std@@PEAVTileRow@@@std@@YAXPEAVTileRow@@0AEAU?$_Wrap_alloc@V?$allocator@VTileRow@@@std@@@0@U?$integral_constant@_N$0A@@0@@Z 00000001800564a8     BerconTile.obj
 0002:0000b4a8       $unwind$??$_Umove@PEAV?$basic_string@_WU?$char_traits@_W@std@@V?$allocator@_W@2@@std@@@?$vector@V?$basic_string@_WU?$char_traits@_W@std@@V?$allocator@_W@2@@std@@V?$allocator@V?$basic_string@_WU?$char_traits@_W@std@@V?$allocator@_W@2@@std@@@2@@std@@IEAAPEAV?$basic_string@_WU?$char_traits@_W@std@@V?$allocator@_W@2@@1@PEAV21@00@Z 00000001800564a8     tile.obj
 0002:0000b4a8       $unwind$??$_Uninitialized_copy_al_unchecked1@$$CBMMV?$allocator@M@std@@@std@@YAPEAMPEBM0PEAMAEAU?$_Wrap_alloc@V?$allocator@M@std@@@0@U_Really_trivial_ptr_iterator_tag@0@U?$integral_constant@_N$00@0@@Z 00000001800564a8     tile.obj
 0002:0000b4a8       $unwind$??$_Destroy_range1@V?$allocator@V?$basic_string@_WU?$char_traits@_W@std@@V?$allocator@_W@2@@std@@@std@@PEAV?$basic_string@_WU?$char_traits@_W@std@@V?$allocator@_W@2@@2@@std@@YAXPEAV?$basic_string@_WU?$char_traits@_W@std@@V?$allocator@_W@2@@0@0AEAU?$_Wrap_alloc@V?$allocator@V?$basic_string@_WU?$char_traits@_W@std@@V?$allocator@_W@2@@std@@@std@@@0@U?$integral_constant@_N$0A@@0@@Z 00000001800564a8     tile.obj
 0002:0000b4a8       $unwind$?VectorFrom@BerconSC@@UEAA?AVPoint3@@AEBV2@W4RefFrame@@@Z 00000001800564a8     BerconDistortion.obj
 0002:0000b4a8       $unwind$?PointTo@BerconSC@@UEAA?AVPoint3@@AEBV2@W4RefFrame@@@Z 00000001800564a8     BerconDistortion.obj
 0002:0000b4a8       $unwind$?BumpBasisVectors@BerconSC@@UEAAHQEAVPoint3@@HH@Z 00000001800564a8     BerconDistortion.obj
 0002:0000b4a8       $unwind$??$_Umove@PEAM@?$vector@MV?$allocator@M@std@@@std@@IEAAPEAMPEAM00@Z 00000001800564a8     tile.obj
 0002:0000b4a8       $unwind$__GSHandlerCheck   00000001800564a8     MSVCRTD:_gshandler_.obj
 0002:0000b4a8       $unwind$?PointFrom@BerconSC@@UEAA?AVPoint3@@AEBV2@W4RefFrame@@@Z 00000001800564a8     BerconDistortion.obj
 0002:0000b4b0       $unwind$??1BerconSC@@UEAA@XZ 00000001800564b0     BerconDistortion.obj
 0002:0000b4c0       $stateUnwindMap$??1BerconSC@@UEAA@XZ 00000001800564c0     BerconDistortion.obj
 0002:0000b4c8       $ip2state$??1BerconSC@@UEAA@XZ 00000001800564c8     BerconDistortion.obj
 0002:0000b4d0       $unwind$?__scrt_initialize_thread_safe_statics@@YAHXZ 00000001800564d0     MSVCRTD:thread_safe_statics.obj
 0002:0000b4d0       $unwind$??__Exyz_blk@@YAXXZ 00000001800564d0     BerconGradient.obj
 0002:0000b4d0       $unwind$??__Exyz_blk@@YAXXZ 00000001800564d0     BerconNoise.obj
 0002:0000b4d0       $unwind$??__Exyz_blk@@YAXXZ 00000001800564d0     BerconDistortion.obj
 0002:0000b4d0       $unwind$??__Exyz_blk@@YAXXZ 00000001800564d0     BerconTile.obj
 0002:0000b4d0       $unwind$??__Exyz_blk@@YAXXZ 00000001800564d0     BerconWood.obj
 0002:0000b4d8       $unwind$??__EBerconDistortion_param_blk@@YAXXZ 00000001800564d8     BerconDistortion.obj
 0002:0000b4e0       $unwind$fabsf              00000001800564e0     BerconGradient.obj
 0002:0000b4e8       $unwind$?acos@@YAMM@Z      00000001800564e8     BerconGradient.obj
 0002:0000b4f8       $ip2state$?acos@@YAMM@Z    00000001800564f8     BerconGradient.obj
 0002:0000b500       $unwind$?fabs@@YAMM@Z      0000000180056500     BerconGradient.obj
 0002:0000b510       $ip2state$?fabs@@YAMM@Z    0000000180056510     BerconGradient.obj
 0002:0000b518       $unwind$?sqrt@@YAMM@Z      0000000180056518     BerconGradient.obj
 0002:0000b528       $ip2state$?sqrt@@YAMM@Z    0000000180056528     BerconGradient.obj
 0002:0000b530       $unwind$??0ICustomControl@@QEAA@XZ 0000000180056530     BerconGradient.obj
 0002:0000b540       $ip2state$??0ICustomControl@@QEAA@XZ 0000000180056540     BerconGradient.obj
 0002:0000b558       $unwind$??1ICustomControl@@UEAA@XZ 0000000180056558     BerconGradient.obj
 0002:0000b568       $stateUnwindMap$??1ICustomControl@@UEAA@XZ 0000000180056568     BerconGradient.obj
 0002:0000b568       $stateUnwindMap$??0ICustomControl@@QEAA@XZ 0000000180056568     BerconGradient.obj
 0002:0000b570       $ip2state$??1ICustomControl@@UEAA@XZ 0000000180056570     BerconGradient.obj
 0002:0000b578       $unwind$??0IGradient@@QEAA@PEAUHWND__@@PEAVGradientRamp@@@Z 0000000180056578     BerconGradient.obj
 0002:0000b588       $stateUnwindMap$??0IGradient@@QEAA@PEAUHWND__@@PEAVGradientRamp@@@Z 0000000180056588     BerconGradient.obj
 0002:0000b590       $ip2state$??0IGradient@@QEAA@PEAUHWND__@@PEAVGradientRamp@@@Z 0000000180056590     BerconGradient.obj
 0002:0000b5a8       $unwind$??1IGradient@@UEAA@XZ 00000001800565a8     BerconGradient.obj
 0002:0000b5b8       $stateUnwindMap$??1IGradient@@UEAA@XZ 00000001800565b8     BerconGradient.obj
 0002:0000b5c0       $ip2state$??1IGradient@@UEAA@XZ 00000001800565c0     BerconGradient.obj
 0002:0000b5d8       $unwind$?EnableStuff@BerconGradient@@QEAAXXZ 00000001800565d8     BerconGradient.obj
 0002:0000b5e0       $unwind$?getGradientValueUVW@BerconGradient@@QEAAMVPoint3@@@Z 00000001800565e0     BerconGradient.obj
 0002:0000b5ec       $unwind$?getGradientValueDist@BerconGradient@@QEAAMAEAVShadeContext@@@Z 00000001800565ec     BerconGradient.obj
 0002:0000b5fc       $unwind$?getGradientValueNormal@BerconGradient@@QEAAMAEAVShadeContext@@@Z 00000001800565fc     BerconGradient.obj
 0002:0000b604       $unwind$?getGradientValue@BerconGradient@@QEAAMAEAVShadeContext@@@Z 0000000180056604     BerconGradient.obj
 0002:0000b60c       $unwind$?_Getpfirst@?$_Vector_alloc@U?$_Vec_base_types@VTileRow@@V?$allocator@VTileRow@@@std@@@std@@@std@@QEBAPEAPEAU_Iterator_base12@2@XZ 000000018005660c     tile.obj
 0002:0000b60c       $unwind$?_Myfirst@?$_Vector_alloc@U?$_Vec_base_types@VTileRow@@V?$allocator@VTileRow@@@std@@@std@@@std@@QEAAAEAPEAVTileRow@@XZ 000000018005660c     BerconTile.obj
 0002:0000b60c       $unwind$?DiscardTexHandle@BerconGradient@@QEAAXXZ 000000018005660c     BerconGradient.obj
 0002:0000b60c       $unwind$?_Getal@?$_Vector_alloc@U?$_Vec_base_types@VTileRow@@V?$allocator@VTileRow@@@std@@@std@@@std@@QEBAAEBU?$_Wrap_alloc@V?$allocator@VTileRow@@@std@@@2@XZ 000000018005660c     tile.obj
 0002:0000b60c       $unwind$?SetAll@BitArray@@QEAAXXZ 000000018005660c     curvectrl.obj
 0002:0000b60c       $unwind$??$__crt_fast_encode_pointer@P6AHPEAU_RTL_CONDITION_VARIABLE@@PEAU_RTL_CRITICAL_SECTION@@K@Z@@YAP6AHPEAU_RTL_CONDITION_VARIABLE@@PEAU_RTL_CRITICAL_SECTION@@K@ZQ6AH01K@Z@Z 000000018005660c     MSVCRTD:thread_safe_statics.obj
 0002:0000b60c       $unwind$?_Xlen@?$vector@MV?$allocator@M@std@@@std@@IEBAXXZ 000000018005660c     tile.obj
 0002:0000b60c       $unwind$?ClassName@BerconDistortionClassDesc@@UEAAPEB_WXZ 000000018005660c     BerconDistortion.obj
 0002:0000b60c       $unwind$?_Get_data@?$_Vector_alloc@U?$_Vec_base_types@VTileRow@@V?$allocator@VTileRow@@@std@@@std@@@std@@QEBAAEBV?$_Vector_val@U?$_Simple_types@VTileRow@@@std@@@2@XZ 000000018005660c     BerconTile.obj
 0002:0000b60c       $unwind$?Curve@BerconSC@@UEAAMXZ 000000018005660c     BerconDistortion.obj
 0002:0000b60c       $unwind$?_Get_data@?$_Vector_alloc@U?$_Vec_base_types@MV?$allocator@M@std@@@std@@@std@@QEBAAEBV?$_Vector_val@U?$_Simple_types@M@std@@@2@XZ 000000018005660c     BerconTile.obj
 0002:0000b60c       $unwind$?_Mylast@?$_Vector_alloc@U?$_Vec_base_types@MV?$allocator@M@std@@@std@@@std@@QEAAAEAPEAMXZ 000000018005660c     BerconTile.obj
 0002:0000b60c       $unwind$?_Mysize@?$_String_alloc@U?$_String_base_types@_WV?$allocator@_W@std@@@std@@@std@@QEBAAEB_KXZ 000000018005660c     BerconTile.obj
 0002:0000b60c       $unwind$?NumSubs@BerconGradient@@UEAAHXZ 000000018005660c     BerconGradient.obj
 0002:0000b60c       $unwind$??$__crt_fast_decode_pointer@P6AXPEAU_RTL_CONDITION_VARIABLE@@@Z@@YAP6AXPEAU_RTL_CONDITION_VARIABLE@@@ZQ6AX0@Z@Z 000000018005660c     MSVCRTD:thread_safe_statics.obj
 0002:0000b60c       $unwind$?_Myend@?$_Vector_alloc@U?$_Vec_base_types@VTileRow@@V?$allocator@VTileRow@@@std@@@std@@@std@@QEBAAEBQEAVTileRow@@XZ 000000018005660c     tile.obj
 0002:0000b60c       $unwind$?_Xlen@?$basic_string@_WU?$char_traits@_W@std@@V?$allocator@_W@2@@std@@QEBAXXZ 000000018005660c     BerconTile.obj
 0002:0000b60c       $unwind$?_Myproxy@?$_Vector_alloc@U?$_Vec_base_types@VTileRow@@V?$allocator@VTileRow@@@std@@@std@@@std@@QEAAAEAPEAU_Container_proxy@2@XZ 000000018005660c     BerconTile.obj
 0002:0000b60c       $unwind$??0TilePoint@@QEAA@XZ 000000018005660c     tile.obj
 0002:0000b60c       $unwind$__raise_securityfailure 000000018005660c     MSVCRTD:gs_report.obj
 0002:0000b60c       $unwind$?GetTrans@Matrix3@@QEBAAEBVPoint3@@XZ 000000018005660c     BerconGradient.obj
 0002:0000b60c       $unwind$?DebugFile@BerconSC@@UEAAPEAU_iobuf@@XZ 000000018005660c     BerconDistortion.obj
 0002:0000b60c       $unwind$?DiscardTexHandle@BerconDistortion@@QEAAXXZ 000000018005660c     BerconDistortion.obj
 0002:0000b60c       $unwind$?_Myproxy@?$_String_alloc@U?$_String_base_types@_WV?$allocator@_W@std@@@std@@@std@@QEAAAEAPEAU_Container_proxy@2@XZ 000000018005660c     BerconTile.obj
 0002:0000b60c       $unwind$_guard_check_icall 000000018005660c     MSVCRTD:checkcfg.obj
 0002:0000b60c       $unwind$?_Myfirst@?$_Vector_alloc@U?$_Vec_base_types@MV?$allocator@M@std@@@std@@@std@@QEBAAEBQEAMXZ 000000018005660c     BerconTile.obj
 0002:0000b60c       $unwind$?_Myptr@?$_String_alloc@U?$_String_base_types@_WV?$allocator@_W@std@@@std@@@std@@QEBAPEB_WXZ 000000018005660c     BerconTile.obj
 0002:0000b60c       $unwind$?_Orphan_all@?$_String_alloc@U?$_String_base_types@_WV?$allocator@_W@std@@@std@@@std@@QEAAXXZ 000000018005660c     BerconTile.obj
 0002:0000b60c       $unwind$?_Myptr@?$_String_alloc@U?$_String_base_types@_WV?$allocator@_W@std@@@std@@@std@@QEAAPEA_WXZ 000000018005660c     BerconTile.obj
 0002:0000b60c       $unwind$?GetIOR@BerconSC@@UEAAMXZ 000000018005660c     BerconDistortion.obj
 0002:0000b60c       $unwind$?RayConeAngle@BerconSC@@UEAAMXZ 000000018005660c     BerconDistortion.obj
 0002:0000b60c       $unwind$?_Getal@?$_String_alloc@U?$_String_base_types@_WV?$allocator@_W@std@@@std@@@std@@QEAAAEAU?$_Wrap_alloc@V?$allocator@_W@std@@@2@XZ 000000018005660c     BerconTile.obj
 0002:0000b60c       $unwind$?NumRefs@BerconGradient@@UEAAHXZ 000000018005660c     BerconGradient.obj
 0002:0000b60c       $unwind$?_Get_data@?$_Vector_alloc@U?$_Vec_base_types@MV?$allocator@M@std@@@std@@@std@@QEAAAEAV?$_Vector_val@U?$_Simple_types@M@std@@@2@XZ 000000018005660c     BerconTile.obj
 0002:0000b60c       $unwind$?_Getal@?$_String_alloc@U?$_String_base_types@_WV?$allocator@_W@std@@@std@@@std@@QEBAAEBU?$_Wrap_alloc@V?$allocator@_W@std@@@2@XZ 000000018005660c     BerconTile.obj
 0002:0000b60c       $unwind$?_Getal@?$_Vector_alloc@U?$_Vec_base_types@MV?$allocator@M@std@@@std@@@std@@QEAAAEAU?$_Wrap_alloc@V?$allocator@M@std@@@2@XZ 000000018005660c     BerconTile.obj
 0002:0000b60c       $unwind$?disable@CurveCtrl@@SAXPEAVICurveCtl@@@Z 000000018005660c     curvectrl.obj
 0002:0000b60c       $unwind$?CamNearRange@BerconSC@@UEAAMXZ 000000018005660c     BerconDistortion.obj
 0002:0000b60c       $unwind$??_V@YAXPEAX@Z     000000018005660c     MSVCRTD:delete_array.obj
 0002:0000b60c       $unwind$?pointer_to@?$pointer_traits@PEAU_Container_proxy@std@@@std@@SAPEAU_Container_proxy@2@AEAU32@@Z 000000018005660c     BerconTile.obj
 0002:0000b60c       $unwind$?ClassName@BerconNoiseClassDesc@@UEAAPEB_WXZ 000000018005660c     BerconNoise.obj
 0002:0000b60c       $unwind$?_Orphan_all@?$_Vector_alloc@U?$_Vec_base_types@VTileRow@@V?$allocator@VTileRow@@@std@@@std@@@std@@QEAAXXZ 000000018005660c     BerconTile.obj
 0002:0000b60c       $unwind$?RayDiam@BerconSC@@UEAAMXZ 000000018005660c     BerconDistortion.obj
 0002:0000b60c       $unwind$?max_size@?$allocator_traits@V?$allocator@V?$basic_string@_WU?$char_traits@_W@std@@V?$allocator@_W@2@@std@@@std@@@std@@SA_KAEBV?$allocator@V?$basic_string@_WU?$char_traits@_W@std@@V?$allocator@_W@2@@std@@@2@@Z 000000018005660c     tile.obj
 0002:0000b60c       $unwind$??0?$_Wrap_alloc@V?$allocator@V?$basic_string@_WU?$char_traits@_W@std@@V?$allocator@_W@2@@std@@@std@@@std@@QEAA@XZ 000000018005660c     tile.obj
 0002:0000b60c       $unwind$?ClassName@BerconTileClassDesc@@UEAAPEB_WXZ 000000018005660c     BerconTile.obj
 0002:0000b60c       $unwind$?ClassName@BerconWoodClassDesc@@UEAAPEB_WXZ 000000018005660c     BerconWood.obj
 0002:0000b60c       $unwind$?invalidate@GradientRamp@@QEAAXXZ 000000018005660c     GradientRamp.obj
 0002:0000b60c       $unwind$?_Getal@?$_Vector_alloc@U?$_Vec_base_types@VTileRow@@V?$allocator@VTileRow@@@std@@@std@@@std@@QEAAAEAU?$_Wrap_alloc@V?$allocator@VTileRow@@@std@@@2@XZ 000000018005660c     BerconTile.obj
 0002:0000b60c       $unwind$??$__crt_fast_encode_pointer@P6AXPEAU_RTL_CONDITION_VARIABLE@@@Z@@YAP6AXPEAU_RTL_CONDITION_VARIABLE@@@ZQ6AX0@Z@Z 000000018005660c     MSVCRTD:thread_safe_statics.obj
 0002:0000b60c       $unwind$?GetSampleSizeScale@BerconSC@@UEAAMXZ 000000018005660c     BerconDistortion.obj
 0002:0000b60c       $unwind$?GetNSuperSample@BerconSC@@UEAAHXZ 000000018005660c     BerconDistortion.obj
 0002:0000b60c       $unwind$?_Mylast@?$_Vector_alloc@U?$_Vec_base_types@VTileRow@@V?$allocator@VTileRow@@@std@@@std@@@std@@QEAAAEAPEAVTileRow@@XZ 000000018005660c     BerconTile.obj
 0002:0000b60c       $unwind$?_Getpfirst@?$_Vector_alloc@U?$_Vec_base_types@V?$basic_string@_WU?$char_traits@_W@std@@V?$allocator@_W@2@@std@@V?$allocator@V?$basic_string@_WU?$char_traits@_W@std@@V?$allocator@_W@2@@std@@@2@@std@@@std@@QEBAPEAPEAU_Iterator_base12@2@XZ 000000018005660c     tile.obj
 0002:0000b60c       $unwind$?_Myproxy@?$_Vector_alloc@U?$_Vec_base_types@V?$basic_string@_WU?$char_traits@_W@std@@V?$allocator@_W@2@@std@@V?$allocator@V?$basic_string@_WU?$char_traits@_W@std@@V?$allocator@_W@2@@std@@@2@@std@@@std@@QEAAAEAPEAU_Container_proxy@2@XZ 000000018005660c     tile.obj
 0002:0000b60c       $unwind$?_Orphan_all@?$_Vector_alloc@U?$_Vec_base_types@V?$basic_string@_WU?$char_traits@_W@std@@V?$allocator@_W@2@@std@@V?$allocator@V?$basic_string@_WU?$char_traits@_W@std@@V?$allocator@_W@2@@std@@@2@@std@@@std@@QEAAXXZ 000000018005660c     tile.obj
 0002:0000b60c       $unwind$?getKeyTex@BerconGradient@@QEAAPEAVTexmap@@XZ 000000018005660c     BerconGradient.obj
 0002:0000b60c       $unwind$?_Getal@?$_Vector_alloc@U?$_Vec_base_types@V?$basic_string@_WU?$char_traits@_W@std@@V?$allocator@_W@2@@std@@V?$allocator@V?$basic_string@_WU?$char_traits@_W@std@@V?$allocator@_W@2@@std@@@2@@std@@@std@@QEAAAEAU?$_Wrap_alloc@V?$allocator@V?$basic_string@_WU?$char_traits@_W@std@@V?$allocator@_W@2@@std@@@std@@@2@XZ 000000018005660c     tile.obj
 0002:0000b60c       $unwind$_Init_thread_footer 000000018005660c     MSVCRTD:thread_safe_statics.obj
 0002:0000b60c       $unwind$?_Getal@?$_Vector_alloc@U?$_Vec_base_types@V?$basic_string@_WU?$char_traits@_W@std@@V?$allocator@_W@2@@std@@V?$allocator@V?$basic_string@_WU?$char_traits@_W@std@@V?$allocator@_W@2@@std@@@2@@std@@@std@@QEBAAEBU?$_Wrap_alloc@V?$allocator@V?$basic_string@_WU?$char_traits@_W@std@@V?$allocator@_W@2@@std@@@std@@@2@XZ 000000018005660c     tile.obj
 0002:0000b60c       $unwind$?_Get_data@?$_Vector_alloc@U?$_Vec_base_types@V?$basic_string@_WU?$char_traits@_W@std@@V?$allocator@_W@2@@std@@V?$allocator@V?$basic_string@_WU?$char_traits@_W@std@@V?$allocator@_W@2@@std@@@2@@std@@@std@@QEAAAEAV?$_Vector_val@U?$_Simple_types@V?$basic_string@_WU?$char_traits@_W@std@@V?$allocator@_W@2@@std@@@std@@@2@XZ 000000018005660c     tile.obj
 0002:0000b60c       $unwind$?_Get_data@?$_Vector_alloc@U?$_Vec_base_types@V?$basic_string@_WU?$char_traits@_W@std@@V?$allocator@_W@2@@std@@V?$allocator@V?$basic_string@_WU?$char_traits@_W@std@@V?$allocator@_W@2@@std@@@2@@std@@@std@@QEBAAEBV?$_Vector_val@U?$_Simple_types@V?$basic_string@_WU?$char_traits@_W@std@@V?$allocator@_W@2@@std@@@std@@@2@XZ 000000018005660c     tile.obj
 0002:0000b60c       $unwind$?_Myfirst@?$_Vector_alloc@U?$_Vec_base_types@V?$basic_string@_WU?$char_traits@_W@std@@V?$allocator@_W@2@@std@@V?$allocator@V?$basic_string@_WU?$char_traits@_W@std@@V?$allocator@_W@2@@std@@@2@@std@@@std@@QEAAAEAPEAV?$basic_string@_WU?$char_traits@_W@std@@V?$allocator@_W@2@@2@XZ 000000018005660c     tile.obj
 0002:0000b60c       $unwind$?_Myfirst@?$_Vector_alloc@U?$_Vec_base_types@V?$basic_string@_WU?$char_traits@_W@std@@V?$allocator@_W@2@@std@@V?$allocator@V?$basic_string@_WU?$char_traits@_W@std@@V?$allocator@_W@2@@std@@@2@@std@@@std@@QEBAAEBQEAV?$basic_string@_WU?$char_traits@_W@std@@V?$allocator@_W@2@@2@XZ 000000018005660c     tile.obj
 0002:0000b60c       $unwind$?DiscardTexHandle@BerconTile@@QEAAXXZ 000000018005660c     BerconTile.obj
 0002:0000b60c       $unwind$?_Mylast@?$_Vector_alloc@U?$_Vec_base_types@V?$basic_string@_WU?$char_traits@_W@std@@V?$allocator@_W@2@@std@@V?$allocator@V?$basic_string@_WU?$char_traits@_W@std@@V?$allocator@_W@2@@std@@@2@@std@@@std@@QEAAAEAPEAV?$basic_string@_WU?$char_traits@_W@std@@V?$allocator@_W@2@@2@XZ 000000018005660c     tile.obj
 0002:0000b60c       $unwind$?_Mylast@?$_Vector_alloc@U?$_Vec_base_types@V?$basic_string@_WU?$char_traits@_W@std@@V?$allocator@_W@2@@std@@V?$allocator@V?$basic_string@_WU?$char_traits@_W@std@@V?$allocator@_W@2@@std@@@2@@std@@@std@@QEBAAEBQEAV?$basic_string@_WU?$char_traits@_W@std@@V?$allocator@_W@2@@2@XZ 000000018005660c     tile.obj
 0002:0000b60c       $unwind$?_Myend@?$_Vector_alloc@U?$_Vec_base_types@V?$basic_string@_WU?$char_traits@_W@std@@V?$allocator@_W@2@@std@@V?$allocator@V?$basic_string@_WU?$char_traits@_W@std@@V?$allocator@_W@2@@std@@@2@@std@@@std@@QEAAAEAPEAV?$basic_string@_WU?$char_traits@_W@std@@V?$allocator@_W@2@@2@XZ 000000018005660c     tile.obj
 0002:0000b60c       $unwind$?_Myend@?$_Vector_alloc@U?$_Vec_base_types@V?$basic_string@_WU?$char_traits@_W@std@@V?$allocator@_W@2@@std@@V?$allocator@V?$basic_string@_WU?$char_traits@_W@std@@V?$allocator@_W@2@@std@@@2@@std@@@std@@QEBAAEBQEAV?$basic_string@_WU?$char_traits@_W@std@@V?$allocator@_W@2@@2@XZ 000000018005660c     tile.obj
 0002:0000b60c       $unwind$??3@YAXPEAX@Z      000000018005660c     MSVCRTD:delete_scalar.obj
 0002:0000b60c       $unwind$?_Get_data@?$_String_alloc@U?$_String_base_types@_WV?$allocator@_W@std@@@std@@@std@@QEAAAEAV?$_String_val@U?$_Simple_types@_W@std@@@2@XZ 000000018005660c     BerconTile.obj
 0002:0000b60c       $unwind$??_U@YAPEAX_K@Z    000000018005660c     MSVCRTD:new_array.obj
 0002:0000b60c       $unwind$?max_size@?$allocator_traits@V?$allocator@_W@std@@@std@@SA_KAEBV?$allocator@_W@2@@Z 000000018005660c     BerconTile.obj
 0002:0000b60c       $unwind$?_Myfirst@?$_Vector_alloc@U?$_Vec_base_types@MV?$allocator@M@std@@@std@@@std@@QEAAAEAPEAMXZ 000000018005660c     BerconTile.obj
 0002:0000b60c       $unwind$?_Orphan_all@?$_Vector_alloc@U?$_Vec_base_types@MV?$allocator@M@std@@@std@@@std@@QEAAXXZ 000000018005660c     BerconTile.obj
 0002:0000b60c       $unwind$??0?$_Wrap_alloc@V?$allocator@_W@std@@@std@@QEAA@XZ 000000018005660c     BerconTile.obj
 0002:0000b60c       $unwind$?_Mylast@?$_Vector_alloc@U?$_Vec_base_types@VTileRow@@V?$allocator@VTileRow@@@std@@@std@@@std@@QEBAAEBQEAVTileRow@@XZ 000000018005660c     BerconTile.obj
 0002:0000b60c       $unwind$??_D?$basic_stringstream@_WU?$char_traits@_W@std@@V?$allocator@_W@2@@std@@QEAAXXZ 000000018005660c     tile.obj
 0002:0000b60c       $unwind$??1exception@std@@UEAA@XZ 000000018005660c     MSVCRTD:throw_bad_alloc.obj
 0002:0000b60c       $unwind$?_Xlen@?$vector@VTileRow@@V?$allocator@VTileRow@@@std@@@std@@IEBAXXZ 000000018005660c     tile.obj
 0002:0000b60c       $unwind$?gradReset@BerconGradient@@UEAAXXZ 000000018005660c     BerconGradient.obj
 0002:0000b60c       $unwind$??0bad_alloc@std@@QEAA@XZ 000000018005660c     MSVCRTD:throw_bad_alloc.obj
 0002:0000b60c       $unwind$?_Myend@?$_Vector_alloc@U?$_Vec_base_types@MV?$allocator@M@std@@@std@@@std@@QEBAAEBQEAMXZ 000000018005660c     tile.obj
 0002:0000b60c       $unwind$?BypassTrackBar@Animatable@@UEAAHXZ 000000018005660c     BerconDistortion.obj
 0002:0000b60c       $unwind$?FaceNumber@BerconSC@@UEAAHXZ 000000018005660c     BerconDistortion.obj
 0002:0000b60c       $unwind$?_Get_data@?$_String_alloc@U?$_String_base_types@_WV?$allocator@_W@std@@@std@@@std@@QEBAAEBV?$_String_val@U?$_Simple_types@_W@std@@@2@XZ 000000018005660c     BerconTile.obj
 0002:0000b60c       $unwind$?CamFarRange@BerconSC@@UEAAMXZ 000000018005660c     BerconDistortion.obj
 0002:0000b60c       $unwind$??$__crt_fast_decode_pointer@P6AHPEAU_RTL_CONDITION_VARIABLE@@PEAU_RTL_CRITICAL_SECTION@@K@Z@@YAP6AHPEAU_RTL_CONDITION_VARIABLE@@PEAU_RTL_CRITICAL_SECTION@@K@ZQ6AH01K@Z@Z 000000018005660c     MSVCRTD:thread_safe_statics.obj
 0002:0000b60c       $unwind$?InMtlEditor@BerconSC@@UEAAHXZ 000000018005660c     BerconDistortion.obj
 0002:0000b60c       $unwind$?_Mylast@?$_Vector_alloc@U?$_Vec_base_types@MV?$allocator@M@std@@@std@@@std@@QEBAAEBQEAMXZ 000000018005660c     BerconTile.obj
 0002:0000b60c       $unwind$?Antialias@BerconSC@@UEAAHXZ 000000018005660c     BerconDistortion.obj
 0002:0000b60c       $unwind$_Init_thread_abort 000000018005660c     MSVCRTD:thread_safe_statics.obj
 0002:0000b60c       $unwind$??1bad_alloc@std@@UEAA@XZ 000000018005660c     MSVCRTD:throw_bad_alloc.obj
 0002:0000b60c       $unwind$?_Myproxy@?$_Vector_alloc@U?$_Vec_base_types@MV?$allocator@M@std@@@std@@@std@@QEAAAEAPEAU_Container_proxy@2@XZ 000000018005660c     BerconTile.obj
 0002:0000b60c       $unwind$?_Getal@?$_Vector_alloc@U?$_Vec_base_types@MV?$allocator@M@std@@@std@@@std@@QEBAAEBU?$_Wrap_alloc@V?$allocator@M@std@@@2@XZ 000000018005660c     tile.obj
 0002:0000b60c       $unwind$?size@?$basic_string@_WU?$char_traits@_W@std@@V?$allocator@_W@2@@std@@QEBA_KXZ 000000018005660c     tile.obj
 0002:0000b60c       $unwind$??$__crt_fast_decode_pointer@PEAP6AXXZ@@YAPEAP6AXXZQEAP6AXXZ@Z 000000018005660c     MSVCRTD:utility.obj
 0002:0000b60c       $unwind$??0Interval@@QEAA@XZ 000000018005660c     BerconDistortion.obj
 0002:0000b60c       $unwind$?DiscardTexHandle@BerconNoise@@QEAAXXZ 000000018005660c     BerconNoise.obj
 0002:0000b60c       $unwind$?_Getpfirst@?$_Vector_alloc@U?$_Vec_base_types@MV?$allocator@M@std@@@std@@@std@@QEBAPEAPEAU_Iterator_base12@2@XZ 000000018005660c     tile.obj
 0002:0000b60c       $unwind$?NRenderElements@BerconSC@@UEAAHXZ 000000018005660c     BerconDistortion.obj
 0002:0000b60c       $unwind$?is_potentially_valid_image_base@@YA_NQEAX@Z 000000018005660c     MSVCRTD:utility.obj
 0002:0000b60c       $unwind$?_Myend@?$_Vector_alloc@U?$_Vec_base_types@VTileRow@@V?$allocator@VTileRow@@@std@@@std@@@std@@QEAAAEAPEAVTileRow@@XZ 000000018005660c     BerconTile.obj
 0002:0000b60c       $unwind$?_Xran@?$basic_string@_WU?$char_traits@_W@std@@V?$allocator@_W@2@@std@@QEBAXXZ 000000018005660c     BerconTile.obj
 0002:0000b60c       $unwind$??0bad_array_new_length@std@@QEAA@XZ 000000018005660c     MSVCRTD:throw_bad_alloc.obj
 0002:0000b60c       $unwind$?_Myfirst@?$_Vector_alloc@U?$_Vec_base_types@VTileRow@@V?$allocator@VTileRow@@@std@@@std@@@std@@QEBAAEBQEAVTileRow@@XZ 000000018005660c     BerconTile.obj
 0002:0000b60c       $unwind$??$__crt_fast_encode_pointer@PEAP6AXXZ@@YAPEAP6AXXZQEAP6AXXZ@Z 000000018005660c     MSVCRTD:utility.obj
 0002:0000b60c       $unwind$??0?$_Wrap_alloc@V?$allocator@VTileRow@@@std@@@std@@QEAA@XZ 000000018005660c     BerconTile.obj
 0002:0000b60c       $unwind$??1bad_array_new_length@std@@UEAA@XZ 000000018005660c     MSVCRTD:throw_bad_alloc.obj
 0002:0000b60c       $unwind$?ProjType@BerconSC@@UEAAHXZ 000000018005660c     BerconDistortion.obj
 0002:0000b60c       $unwind$?_Myres@?$_String_alloc@U?$_String_base_types@_WV?$allocator@_W@std@@@std@@@std@@QEAAAEA_KXZ 000000018005660c     BerconTile.obj
 0002:0000b60c       $unwind$?NumSubTexmaps@BerconGradient@@UEAAHXZ 000000018005660c     BerconGradient.obj
 0002:0000b60c       $unwind$?_Myend@?$_Vector_alloc@U?$_Vec_base_types@MV?$allocator@M@std@@@std@@@std@@QEAAAEAPEAMXZ 000000018005660c     BerconTile.obj
 0002:0000b60c       $unwind$?DiscardTexHandle@BerconWood@@QEAAXXZ 000000018005660c     BerconWood.obj
 0002:0000b60c       $unwind$?max_size@?$allocator_traits@V?$allocator@VTileRow@@@std@@@std@@SA_KAEBV?$allocator@VTileRow@@@2@@Z 000000018005660c     tile.obj
 0002:0000b60c       $unwind$?IsTextureSuperSampleOn@BerconSC@@UEAAHXZ 000000018005660c     BerconDistortion.obj
 0002:0000b60c       $unwind$_Init_thread_header 000000018005660c     MSVCRTD:thread_safe_statics.obj
 0002:0000b60c       $unwind$?GetEvalObject@BerconSC@@UEAAPEAVObject@@XZ 000000018005660c     BerconDistortion.obj
 0002:0000b60c       $unwind$?_Xlen@?$vector@V?$basic_string@_WU?$char_traits@_W@std@@V?$allocator@_W@2@@std@@V?$allocator@V?$basic_string@_WU?$char_traits@_W@std@@V?$allocator@_W@2@@std@@@2@@std@@IEBAXXZ 000000018005660c     tile.obj
 0002:0000b60c       $unwind$?_Bx@?$_String_alloc@U?$_String_base_types@_WV?$allocator@_W@std@@@std@@@std@@QEAAAEAT_Bxty@?$_String_val@U?$_Simple_types@_W@std@@@2@XZ 000000018005660c     BerconTile.obj
 0002:0000b60c       $unwind$?ClassName@BerconGradientClassDesc@@UEAAPEB_WXZ 000000018005660c     BerconGradient.obj
 0002:0000b60c       $unwind$??0BerconXYZ@@QEAA@XZ 000000018005660c     BerconDistortion.obj
 0002:0000b60c       $unwind$?ClearInterfaces@ClassDesc@@UEAAXXZ 000000018005660c     BerconDistortion.obj
 0002:0000b60c       $unwind$?max_size@?$allocator_traits@V?$allocator@M@std@@@std@@SA_KAEBV?$allocator@M@2@@Z 000000018005660c     tile.obj
 0002:0000b60c       $unwind$?Node@BerconSC@@UEAAPEAVINode@@XZ 000000018005660c     BerconDistortion.obj
 0002:0000b60c       $unwind$?IsSuperSampleOn@BerconSC@@UEAAHXZ 000000018005660c     BerconDistortion.obj
 0002:0000b60c       $unwind$?CurTime@BerconSC@@UEAAHXZ 000000018005660c     BerconDistortion.obj
 0002:0000b60c       $unwind$?NumInterfaces@ClassDesc@@UEAAHXZ 000000018005660c     BerconDistortion.obj
 0002:0000b60c       $unwind$?_Get_data@?$_Vector_alloc@U?$_Vec_base_types@VTileRow@@V?$allocator@VTileRow@@@std@@@std@@@std@@QEAAAEAV?$_Vector_val@U?$_Simple_types@VTileRow@@@std@@@2@XZ 000000018005660c     BerconTile.obj
 0002:0000b60c       $unwind$?_Mysize@?$_String_alloc@U?$_String_base_types@_WV?$allocator@_W@std@@@std@@@std@@QEAAAEA_KXZ 000000018005660c     BerconTile.obj
 0002:0000b60c       $unwind$?NodeID@BerconSC@@UEAAHXZ 000000018005660c     BerconDistortion.obj
 0002:0000b60c       $unwind$??0?$_Wrap_alloc@V?$allocator@M@std@@@std@@QEAA@XZ 000000018005660c     BerconTile.obj
 0002:0000b614       $unwind$?keyColorChanged@BerconGradient@@QEAAXVAColor@@@Z 0000000180056614     BerconGradient.obj
 0002:0000b624       $stateUnwindMap$?keyColorChanged@BerconGradient@@QEAAXVAColor@@@Z 0000000180056624     BerconGradient.obj
 0002:0000b630       $ip2state$?keyColorChanged@BerconGradient@@QEAAXVAColor@@@Z 0000000180056630     BerconGradient.obj
 0002:0000b648       $unwind$?keyNumChanged@BerconGradient@@QEAAXH@Z 0000000180056648     BerconGradient.obj
 0002:0000b658       $stateUnwindMap$?keyNumChanged@BerconGradient@@QEAAXH@Z 0000000180056658     BerconGradient.obj
 0002:0000b660       $ip2state$?keyNumChanged@BerconGradient@@QEAAXH@Z 0000000180056660     BerconGradient.obj
 0002:0000b678       $unwind$?keyPosChanged@BerconGradient@@QEAAXM@Z 0000000180056678     BerconGradient.obj
 0002:0000b688       $stateUnwindMap$?keyPosChanged@BerconGradient@@QEAAXM@Z 0000000180056688     BerconGradient.obj
 0002:0000b690       $ip2state$?keyPosChanged@BerconGradient@@QEAAXM@Z 0000000180056690     BerconGradient.obj
 0002:0000b6a8       $unwind$?resetKeys@BerconGradient@@QEAAXXZ 00000001800566a8     BerconGradient.obj
 0002:0000b6b8       $unwind$?gradAddKey@BerconGradient@@UEAAXM@Z 00000001800566b8     BerconGradient.obj
 0002:0000b6cc       $stateUnwindMap$?gradAddKey@BerconGradient@@UEAAXM@Z 00000001800566cc     BerconGradient.obj
 0002:0000b6d8       $ip2state$?gradAddKey@BerconGradient@@UEAAXM@Z 00000001800566d8     BerconGradient.obj
 0002:0000b6f0       $unwind$?gradMoveKey@BerconGradient@@UEAAXHM@Z 00000001800566f0     BerconGradient.obj
 0002:0000b700       $stateUnwindMap$?gradMoveKey@BerconGradient@@UEAAXHM@Z 0000000180056700     BerconGradient.obj
 0002:0000b708       $ip2state$?gradMoveKey@BerconGradient@@UEAAXHM@Z 0000000180056708     BerconGradient.obj
 0002:0000b720       $unwind$?gradDelKey@BerconGradient@@UEAAXH@Z 0000000180056720     BerconGradient.obj
 0002:0000b730       $stateUnwindMap$?gradDelKey@BerconGradient@@UEAAXH@Z 0000000180056730     BerconGradient.obj
 0002:0000b738       $ip2state$?gradDelKey@BerconGradient@@UEAAXH@Z 0000000180056738     BerconGradient.obj
 0002:0000b750       $unwind$?gradSelKey@BerconGradient@@UEAAXXZ 0000000180056750     BerconGradient.obj
 0002:0000b760       $stateUnwindMap$?gradSelKey@BerconGradient@@UEAAXXZ 0000000180056760     BerconGradient.obj
 0002:0000b768       $ip2state$?gradSelKey@BerconGradient@@UEAAXXZ 0000000180056768     BerconGradient.obj
 0002:0000b780       $unwind$?CreateParamDlg@BerconGradient@@UEAAPEAVParamDlg@@PEAUHWND__@@PEAVIMtlParams@@@Z 0000000180056780     BerconGradient.obj
 0002:0000b790       $ip2state$?CreateParamDlg@BerconGradient@@UEAAPEAVParamDlg@@PEAUHWND__@@PEAVIMtlParams@@@Z 0000000180056790     BerconGradient.obj
 0002:0000b7c8       $unwind$?Update@BerconGradient@@UEAAXHAEAVInterval@@@Z 00000001800567c8     BerconGradient.obj
 0002:0000b7d8       $unwind$?Reset@BerconGradient@@UEAAXXZ 00000001800567d8     BerconGradient.obj
 0002:0000b7e0       $unwind$?GetSubTexmapSlotName@BerconGradient@@UEAA?AVWStr@@H@Z 00000001800567e0     BerconGradient.obj
 0002:0000b7f4       $stateUnwindMap$?GetSubTexmapSlotName@BerconGradient@@UEAA?AVWStr@@H@Z 00000001800567f4     BerconGradient.obj
 0002:0000b810       $ip2state$?GetSubTexmapSlotName@BerconGradient@@UEAA?AVWStr@@H@Z 0000000180056810     BerconGradient.obj
 0002:0000b858       $unwind$?EvalNormalPerturb@BerconGradient@@UEAA?AVPoint3@@AEAVShadeContext@@@Z 0000000180056858     BerconGradient.obj
 0002:0000b86c       $unwind$?Clone@BerconGradient@@UEAAPEAVReferenceTarget@@AEAVRemapDir@@@Z 000000018005686c     BerconGradient.obj
 0002:0000b880       $ip2state$?Clone@BerconGradient@@UEAAPEAVReferenceTarget@@AEAVRemapDir@@@Z 0000000180056880     BerconGradient.obj
 0002:0000b898       $unwind$?SubAnimName@BerconGradient@@UEAA?AVWStr@@H@Z 0000000180056898     BerconGradient.obj
 0002:0000b8b0       $ip2state$?SubAnimName@BerconGradient@@UEAA?AVWStr@@H@Z 00000001800568b0     BerconGradient.obj
 0002:0000b910       $unwind$??0BerconGradient@@QEAA@XZ 0000000180056910     BerconGradient.obj
 0002:0000b920       $stateUnwindMap$??0BerconGradient@@QEAA@XZ 0000000180056920     BerconGradient.obj
 0002:0000b930       $ip2state$??0BerconGradient@@QEAA@XZ 0000000180056930     BerconGradient.obj
 0002:0000b958       $unwind$??1BerconGradient@@UEAA@XZ 0000000180056958     BerconGradient.obj
 0002:0000b968       $stateUnwindMap$??1BerconGradient@@UEAA@XZ 0000000180056968     BerconGradient.obj
 0002:0000b970       $ip2state$??1BerconGradient@@UEAA@XZ 0000000180056970     BerconGradient.obj
 0002:0000b988       $unwind$??0BerconGradientClassDesc@@QEAA@XZ 0000000180056988     BerconGradient.obj
 0002:0000b998       $ip2state$??0BerconGradientClassDesc@@QEAA@XZ 0000000180056998     BerconGradient.obj
 0002:0000b9b0       $unwind$??1BerconGradientClassDesc@@UEAA@XZ 00000001800569b0     BerconGradient.obj
 0002:0000b9c0       $ip2state$??1BerconGradientClassDesc@@UEAA@XZ 00000001800569c0     BerconGradient.obj
 0002:0000b9c8       $unwind$?Create@BerconGradientClassDesc@@UEAAPEAXH@Z 00000001800569c8     BerconGradient.obj
 0002:0000b9d8       $ip2state$?Create@BerconGradientClassDesc@@UEAAPEAXH@Z 00000001800569d8     BerconGradient.obj
 0002:0000b9f0       $unwind$??__Egradientmap_param_blk@@YAXXZ 00000001800569f0     BerconGradient.obj
 0002:0000b9fc       $unwind$??__EBerconDistortionDesc@@YAXXZ 00000001800569fc     BerconDistortion.obj
 0002:0000b9fc       $unwind$?__scrt_uninitialize_thread_safe_statics@@YAXXZ 00000001800569fc     MSVCRTD:thread_safe_statics.obj
 0002:0000b9fc       $unwind$??__Fgradientmap_param_blk@@YAXXZ 00000001800569fc     BerconGradient.obj
 0002:0000b9fc       $unwind$??__FBerconDistortionDesc@@YAXXZ 00000001800569fc     BerconDistortion.obj
 0002:0000b9fc       $unwind$??__EkInvalidId@AssetManagement@MaxSDK@@YAXXZ 00000001800569fc     worley.obj
 0002:0000b9fc       $unwind$??__Eintvalid@@YAXXZ 00000001800569fc     BerconTile.obj
 0002:0000b9fc       $unwind$??__EkTriObjNormalXTCID@@YAXXZ 00000001800569fc     worley.obj
 0002:0000b9fc       $unwind$__scrt_dllmain_crt_thread_attach 00000001800569fc     MSVCRTD:utility.obj
 0002:0000b9fc       $unwind$??__EkTriObjNormalXTCID@@YAXXZ 00000001800569fc     BerconTile.obj
 0002:0000b9fc       $unwind$??__EkInvalidId@AssetManagement@MaxSDK@@YAXXZ 00000001800569fc     BerconTile.obj
 0002:0000b9fc       $unwind$__scrt_dllmain_after_initialize_c 00000001800569fc     MSVCRTD:utility.obj
 0002:0000b9fc       $unwind$__scrt_dllmain_before_initialize_c 00000001800569fc     MSVCRTD:utility.obj
 0002:0000b9fc       $unwind$__scrt_dllmain_crt_thread_detach 00000001800569fc     MSVCRTD:utility.obj
 0002:0000b9fc       $unwind$??__Fxyz_blk@@YAXXZ 00000001800569fc     BerconGradient.obj
 0002:0000b9fc       $unwind$??__FBerconGradientDesc@@YAXXZ 00000001800569fc     BerconGradient.obj
 0002:0000b9fc       $unwind$??__EBerconGradientDesc@@YAXXZ 00000001800569fc     BerconGradient.obj
 0002:0000b9fc       $unwind$?configure_argv@__scrt_narrow_argv_policy@@SAHXZ 00000001800569fc     MSVCRTD:utility.obj
 0002:0000b9fc       $unwind$??__Eintvalid@@YAXXZ 00000001800569fc     BerconGradient.obj
 0002:0000b9fc       $unwind$??__EkTriObjNormalXTCID@@YAXXZ 00000001800569fc     BerconGradient.obj
 0002:0000b9fc       $unwind$??__Eintvalid@@YAXXZ 00000001800569fc     BerconDistortion.obj
 0002:0000b9fc       $unwind$__scrt_dllmain_uninitialize_critical 00000001800569fc     MSVCRTD:utility.obj
 0002:0000b9fc       $unwind$??__EkInvalidId@AssetManagement@MaxSDK@@YAXXZ 00000001800569fc     tile.obj
 0002:0000b9fc       $unwind$??__EkTriObjNormalXTCID@@YAXXZ 00000001800569fc     tile.obj
 0002:0000b9fc       $unwind$??__FBerconCurve_param_blk@@YAXXZ 00000001800569fc     BerconGradient.obj
 0002:0000b9fc       $unwind$__scrt_dllmain_uninitialize_c 00000001800569fc     MSVCRTD:utility.obj
 0002:0000b9fc       $unwind$??__Fxyz_blk@@YAXXZ 00000001800569fc     BerconDistortion.obj
 0002:0000b9fc       $unwind$??__EkTriObjNormalXTCID@@YAXXZ 00000001800569fc     BerconDistortion.obj
 0002:0000b9fc       $unwind$??__EkInvalidId@AssetManagement@MaxSDK@@YAXXZ 00000001800569fc     noise.obj
 0002:0000b9fc       $unwind$??__EkTriObjNormalXTCID@@YAXXZ 00000001800569fc     noise.obj
 0002:0000b9fc       $unwind$_Init_thread_unlock 00000001800569fc     MSVCRTD:thread_safe_statics.obj
 0002:0000b9fc       $unwind$??__EkInvalidId@AssetManagement@MaxSDK@@YAXXZ 00000001800569fc     fractal.obj
 0002:0000b9fc       $unwind$?__scrt_uninitialize_type_info@@YAXXZ 00000001800569fc     MSVCRTD:tncleanup.obj
 0002:0000b9fc       $unwind$??__EkTriObjNormalXTCID@@YAXXZ 00000001800569fc     BerconWood.obj
 0002:0000b9fc       $unwind$??__FBerconDistortion_param_blk@@YAXXZ 00000001800569fc     BerconDistortion.obj
 0002:0000b9fc       $unwind$??__EkTriObjNormalXTCID@@YAXXZ 00000001800569fc     fractal.obj
 0002:0000b9fc       $unwind$??__EBerconNoiseDesc@@YAXXZ 00000001800569fc     BerconNoise.obj
 0002:0000b9fc       $unwind$??__FBerconNoiseDesc@@YAXXZ 00000001800569fc     BerconNoise.obj
 0002:0000b9fc       $unwind$??__Fxyz_blk@@YAXXZ 00000001800569fc     BerconNoise.obj
 0002:0000b9fc       $unwind$?__scrt_initialize_type_info@@YAXXZ 00000001800569fc     MSVCRTD:tncleanup.obj
 0002:0000b9fc       $unwind$??__Fberconnoise_param_blk@@YAXXZ 00000001800569fc     BerconNoise.obj
 0002:0000b9fc       $unwind$??__FBerconCurve_param_blk@@YAXXZ 00000001800569fc     BerconNoise.obj
 0002:0000b9fc       $unwind$??__EkInvalidId@AssetManagement@MaxSDK@@YAXXZ 00000001800569fc     BerconNoise.obj
 0002:0000b9fc       $unwind$??__EkInvalidId@AssetManagement@MaxSDK@@YAXXZ 00000001800569fc     BerconGradient.obj
 0002:0000b9fc       $unwind$??__EkInvalidId@AssetManagement@MaxSDK@@YAXXZ 00000001800569fc     BerconWood.obj
 0002:0000b9fc       $unwind$?LibDescription@@YAPEB_WXZ 00000001800569fc     DllEntry.obj
 0002:0000b9fc       $unwind$_Init_thread_lock  00000001800569fc     MSVCRTD:thread_safe_statics.obj
 0002:0000b9fc       $unwind$??__Eintvalid@@YAXXZ 00000001800569fc     BerconNoise.obj
 0002:0000b9fc       $unwind$??__FBerconMap_param_blk@@YAXXZ 00000001800569fc     BerconTile.obj
 0002:0000b9fc       $unwind$??__FBerconMap_param_blk@@YAXXZ 00000001800569fc     BerconNoise.obj
 0002:0000b9fc       $unwind$??__Eintvalid@@YAXXZ 00000001800569fc     DllEntry.obj
 0002:0000b9fc       $unwind$??__EkTriObjNormalXTCID@@YAXXZ 00000001800569fc     BerconNoise.obj
 0002:0000b9fc       $unwind$??__FBerconTile_param_blk@@YAXXZ 00000001800569fc     BerconTile.obj
 0002:0000b9fc       $unwind$??__EkTriObjNormalXTCID@@YAXXZ 00000001800569fc     DllEntry.obj
 0002:0000b9fc       $unwind$??__EkInvalidId@AssetManagement@MaxSDK@@YAXXZ 00000001800569fc     DllEntry.obj
 0002:0000b9fc       $unwind$??__Fxyz_blk@@YAXXZ 00000001800569fc     BerconTile.obj
