; Listing generated by Microsoft (R) Optimizing Compiler Version 19.00.24231.0 

include listing.inc

INCLUDELIB MSVCRTD
INCLUDELIB OLDNAMES

PUBLIC	?texoutDlg@BerconTile@@2PEAVParamDlg@@EA	; BerconTile::texoutDlg
PUBLIC	WinbaseIsolationAwarePrivateT_UnPgpgk
PUBLIC	IsolationAwarePrivateT_SqbjaYRiRY
PUBLIC	IsolationAwarePrivateT_SAbnPgpgk
PUBLIC	WinbaseIsolationAwarePrivateT_SpeRNgRQnPgpgk
PUBLIC	WinbaseIsolationAwarePrivateT_SpYRNahcpNYYRQ
_BSS	SEGMENT
?texoutDlg@BerconTile@@2PEAVParamDlg@@EA DQ 01H DUP (?)	; BerconTile::texoutDlg
_BSS	ENDS
;	COMDAT IsolationAwarePrivateT_SqbjaYRiRY
_BSS	SEGMENT
IsolationAwarePrivateT_SqbjaYRiRY DD 01H DUP (?)
_BSS	ENDS
;	COMDAT IsolationAwarePrivateT_SAbnPgpgk
_BSS	SEGMENT
IsolationAwarePrivateT_SAbnPgpgk DD 01H DUP (?)
_BSS	ENDS
;	COMDAT WinbaseIsolationAwarePrivateT_SpeRNgRQnPgpgk
_BSS	SEGMENT
WinbaseIsolationAwarePrivateT_SpeRNgRQnPgpgk DD 01H DUP (?)
_BSS	ENDS
;	COMDAT WinbaseIsolationAwarePrivateT_SpYRNahcpNYYRQ
_BSS	SEGMENT
WinbaseIsolationAwarePrivateT_SpYRNahcpNYYRQ DD 01H DUP (?)
_BSS	ENDS
;	COMDAT WinbaseIsolationAwarePrivateT_UnPgpgk
_DATA	SEGMENT
WinbaseIsolationAwarePrivateT_UnPgpgk DQ ffffffffffffffffH
_DATA	ENDS
CONST	SEGMENT
$SG219458 DB	'0,1,1/.5,.5,1', 00H
	ORG $+2
$SG219459 DB	'p', 00H, 'a', 00H, 't', 00H, 't', 00H, 'e', 00H, 'r', 00H
	DB	'n', 00H, 00H, 00H
$SG219460 DB	'O', 00H, 'u', 00H, 't', 00H, 'p', 00H, 'u', 00H, 't', 00H
	DB	00H, 00H
	ORG $+2
$SG219461 DB	'u', 00H, 's', 00H, 'e', 00H, 'D', 00H, 'i', 00H, 's', 00H
	DB	't', 00H, 'o', 00H, 'r', 00H, 't', 00H, 'i', 00H, 'o', 00H, 'n'
	DB	00H, 00H, 00H
$SG219625 DB	'L', 00H, 00H, 00H
$SG219462 DB	'd', 00H, 'i', 00H, 's', 00H, 't', 00H, 'o', 00H, 'r', 00H
	DB	't', 00H, 'i', 00H, 'o', 00H, 'n', 00H, 'S', 00H, 't', 00H, 'r'
	DB	00H, 00H, 00H
$SG219626 DB	'L', 00H, 00H, 00H
$SG219463 DB	'm', 00H, 'a', 00H, 'p', 00H, '5', 00H, 00H, 00H
	ORG $+2
$SG219788 DB	00H, 00H
	ORG $+2
$SG219464 DB	'm', 00H, 'a', 00H, 'p', 00H, '4', 00H, 00H, 00H
	ORG $+6
$SG219465 DB	'p', 00H, 'b', 00H, '_', 00H, 'c', 00H, 'e', 00H, 'n', 00H
	DB	't', 00H, 'e', 00H, 'r', 00H, '_', 00H, 'c', 00H, 'h', 00H, 'a'
	DB	00H, 'n', 00H, 'n', 00H, 'e', 00H, 'l', 00H, 00H, 00H
	ORG $+4
$SG219466 DB	'p', 00H, 'b', 00H, '_', 00H, 'c', 00H, 'e', 00H, 'n', 00H
	DB	't', 00H, 'e', 00H, 'r', 00H, 00H, 00H
	ORG $+4
$SG219467 DB	'p', 00H, 'b', 00H, '_', 00H, 'r', 00H, 'a', 00H, 'n', 00H
	DB	'd', 00H, 'Z', 00H, 00H, 00H
	ORG $+6
$SG219468 DB	'p', 00H, 'b', 00H, '_', 00H, 'f', 00H, 'l', 00H, 'i', 00H
	DB	'p', 00H, 'Y', 00H, 00H, 00H
	ORG $+6
$SG219469 DB	'p', 00H, 'b', 00H, '_', 00H, 'f', 00H, 'l', 00H, 'i', 00H
	DB	'p', 00H, 'X', 00H, 00H, 00H
	ORG $+6
$SG219470 DB	'p', 00H, 'b', 00H, '_', 00H, 'r', 00H, 'a', 00H, 'n', 00H
	DB	'd', 00H, 'R', 00H, 'o', 00H, 't', 00H, 00H, 00H
	ORG $+2
$SG219471 DB	'r', 00H, 'o', 00H, 't', 00H, 'U', 00H, 'V', 00H, 00H, 00H
	ORG $+4
$SG219472 DB	'p', 00H, 'b', 00H, '_', 00H, 'l', 00H, 'o', 00H, 'c', 00H
	DB	'k', 00H, 00H, 00H
$SG219473 DB	'p', 00H, 'b', 00H, '_', 00H, 'r', 00H, 'a', 00H, 'n', 00H
	DB	'd', 00H, 'S', 00H, 'Y', 00H, 00H, 00H
	ORG $+4
$SG219474 DB	'p', 00H, 'b', 00H, '_', 00H, 'r', 00H, 'a', 00H, 'n', 00H
	DB	'd', 00H, 'S', 00H, 'X', 00H, 00H, 00H
	ORG $+4
$SG219475 DB	'p', 00H, 'b', 00H, '_', 00H, 'r', 00H, 'a', 00H, 'n', 00H
	DB	'd', 00H, 'Y', 00H, 00H, 00H
	ORG $+6
$SG219476 DB	'p', 00H, 'b', 00H, '_', 00H, 'r', 00H, 'a', 00H, 'n', 00H
	DB	'd', 00H, 'X', 00H, 00H, 00H
	ORG $+6
$SG219477 DB	'u', 00H, 'v', 00H, 'C', 00H, 'h', 00H, 'a', 00H, 'n', 00H
	DB	'n', 00H, 'e', 00H, 'l', 00H, 00H, 00H
	ORG $+4
$SG219478 DB	'm', 00H, 'a', 00H, 'p', 00H, 'U', 00H, 'V', 00H, 00H, 00H
	ORG $+4
$SG219479 DB	'p', 00H, 'b', 00H, '_', 00H, 'a', 00H, 'u', 00H, 't', 00H
	DB	'o', 00H, 00H, 00H
$SG219480 DB	'r', 00H, 'o', 00H, 'u', 00H, 'n', 00H, 'd', 00H, 'R', 00H
	DB	'a', 00H, 'd', 00H, 00H, 00H
	ORG $+6
$SG219481 DB	'p', 00H, 'b', 00H, '_', 00H, 'r', 00H, 'o', 00H, 'u', 00H
	DB	'n', 00H, 'd', 00H, 00H, 00H
	ORG $+6
$SG219482 DB	's', 00H, 'o', 00H, 'f', 00H, 't', 00H, 'e', 00H, 'n', 00H
	DB	'R', 00H, 'a', 00H, 'd', 00H, 00H, 00H
	ORG $+4
$SG219483 DB	's', 00H, 'o', 00H, 'f', 00H, 't', 00H, 'e', 00H, 'n', 00H
	DB	00H, 00H
	ORG $+2
$SG219484 DB	'e', 00H, 'd', 00H, 'g', 00H, 'e', 00H, 'h', 00H, 'e', 00H
	DB	'i', 00H, 'g', 00H, 'h', 00H, 't', 00H, '2', 00H, 00H, 00H
$SG219485 DB	'e', 00H, 'd', 00H, 'g', 00H, 'e', 00H, 'W', 00H, 'i', 00H
	DB	'd', 00H, 't', 00H, 'h', 00H, '2', 00H, 00H, 00H
	ORG $+2
$SG219486 DB	't', 00H, 'i', 00H, 'l', 00H, 'e', 00H, 'h', 00H, 'e', 00H
	DB	'i', 00H, 'g', 00H, 'h', 00H, 't', 00H, '2', 00H, 00H, 00H
$SG219487 DB	't', 00H, 'i', 00H, 'l', 00H, 'e', 00H, 'W', 00H, 'i', 00H
	DB	'd', 00H, 't', 00H, 'h', 00H, '2', 00H, 00H, 00H
	ORG $+2
$SG219488 DB	'e', 00H, 'd', 00H, 'g', 00H, 'e', 00H, 'h', 00H, 'e', 00H
	DB	'i', 00H, 'g', 00H, 'h', 00H, 't', 00H, 00H, 00H
	ORG $+2
$SG219489 DB	'e', 00H, 'd', 00H, 'g', 00H, 'e', 00H, 'W', 00H, 'i', 00H
	DB	'd', 00H, 't', 00H, 'h', 00H, 00H, 00H
	ORG $+4
$SG219490 DB	't', 00H, 'i', 00H, 'l', 00H, 'e', 00H, 'h', 00H, 'e', 00H
	DB	'i', 00H, 'g', 00H, 'h', 00H, 't', 00H, 00H, 00H
	ORG $+2
$SG219491 DB	't', 00H, 'i', 00H, 'l', 00H, 'e', 00H, 'W', 00H, 'i', 00H
	DB	'd', 00H, 't', 00H, 'h', 00H, 00H, 00H
	ORG $+4
$SG219492 DB	's', 00H, 'i', 00H, 'z', 00H, 'e', 00H, 00H, 00H
	ORG $+6
$SG219493 DB	's', 00H, 't', 00H, 'y', 00H, 'l', 00H, 'e', 00H, 00H, 00H
	ORG $+4
$SG219494 DB	'l', 00H, 'o', 00H, 'c', 00H, 'k', 00H, 'E', 00H, 'd', 00H
	DB	'g', 00H, 'e', 00H, 00H, 00H
	ORG $+6
$SG219495 DB	'm', 00H, 'a', 00H, 'p', 00H, '3', 00H, 'E', 00H, 'n', 00H
	DB	'a', 00H, 'b', 00H, 'l', 00H, 'e', 00H, 'd', 00H, 00H, 00H
$SG219496 DB	'm', 00H, 'a', 00H, 'p', 00H, '2', 00H, 'E', 00H, 'n', 00H
	DB	'a', 00H, 'b', 00H, 'l', 00H, 'e', 00H, 'd', 00H, 00H, 00H
$SG219497 DB	'm', 00H, 'a', 00H, 'p', 00H, '1', 00H, 'E', 00H, 'n', 00H
	DB	'a', 00H, 'b', 00H, 'l', 00H, 'e', 00H, 'd', 00H, 00H, 00H
$SG219498 DB	'm', 00H, 'a', 00H, 'p', 00H, '3', 00H, 00H, 00H
	ORG $+6
$SG219499 DB	'm', 00H, 'a', 00H, 'p', 00H, '2', 00H, 00H, 00H
	ORG $+6
$SG219500 DB	'm', 00H, 'a', 00H, 'p', 00H, '1', 00H, 00H, 00H
	ORG $+6
$SG219501 DB	'c', 00H, 'o', 00H, 'l', 00H, 'o', 00H, 'r', 00H, '3', 00H
	DB	00H, 00H
	ORG $+2
$SG219502 DB	'c', 00H, 'o', 00H, 'l', 00H, 'o', 00H, 'r', 00H, '2', 00H
	DB	00H, 00H
	ORG $+2
$SG219503 DB	'c', 00H, 'o', 00H, 'l', 00H, 'o', 00H, 'r', 00H, '1', 00H
	DB	00H, 00H
	ORG $+2
$SG219504 DB	'p', 00H, 'a', 00H, 'r', 00H, 'a', 00H, 'm', 00H, 's', 00H
	DB	00H, 00H
	ORG $+2
$SG219519 DB	'b', 00H, 'm', 00H, 'a', 00H, 'p', 00H, '2', 00H, 'E', 00H
	DB	'n', 00H, 'a', 00H, 'b', 00H, 'l', 00H, 'e', 00H, 'd', 00H, 00H
	DB	00H
	ORG $+6
$SG219520 DB	'b', 00H, 'm', 00H, 'a', 00H, 'p', 00H, '2', 00H, 00H, 00H
	ORG $+4
$SG219521 DB	'b', 00H, 'm', 00H, 'a', 00H, 'p', 00H, '1', 00H, 'E', 00H
	DB	'n', 00H, 'a', 00H, 'b', 00H, 'l', 00H, 'e', 00H, 'd', 00H, 00H
	DB	00H
	ORG $+6
$SG219522 DB	'b', 00H, 'm', 00H, 'a', 00H, 'p', 00H, '1', 00H, 00H, 00H
	ORG $+4
$SG219523 DB	'p', 00H, 'a', 00H, 'r', 00H, 'a', 00H, 'm', 00H, 's', 00H
	DB	00H, 00H
	ORG $+2
$SG219669 DB	'0', 00H, ',', 00H, '1', 00H, ',', 00H, '1', 00H, '/', 00H
	DB	'.', 00H, '5', 00H, ',', 00H, '.', 00H, '5', 00H, ',', 00H, '1'
	DB	00H, 00H, 00H
CONST	ENDS
PUBLIC	??_H@YAXPEAX_K1P6APEAX0@Z@Z			; `vector constructor iterator'
PUBLIC	?__empty_global_delete@@YAXPEAX@Z		; __empty_global_delete
PUBLIC	?__empty_global_delete@@YAXPEAX_K@Z		; __empty_global_delete
PUBLIC	wmemcpy
PUBLIC	wmemmove
PUBLIC	??2@YAPEAX_KPEAX@Z				; operator new
PUBLIC	??0Class_ID@@QEAA@XZ				; Class_ID::Class_ID
PUBLIC	??0Class_ID@@QEAA@KK@Z				; Class_ID::Class_ID
PUBLIC	??8Class_ID@@QEBA_NAEBV0@@Z			; Class_ID::operator==
PUBLIC	??0Interface_ID@@QEAA@AEBV0@@Z			; Interface_ID::Interface_ID
PUBLIC	??0TabOutOfRangeException@Util@MaxSDK@@QEAA@PEB_W@Z ; MaxSDK::Util::TabOutOfRangeException::TabOutOfRangeException
PUBLIC	?What@TabOutOfRangeException@Util@MaxSDK@@UEBAPEB_WXZ ; MaxSDK::Util::TabOutOfRangeException::What
PUBLIC	??1TabOutOfRangeException@Util@MaxSDK@@UEAA@XZ	; MaxSDK::Util::TabOutOfRangeException::~TabOutOfRangeException
PUBLIC	??0TabOutOfRangeException@Util@MaxSDK@@QEAA@AEBV012@@Z ; MaxSDK::Util::TabOutOfRangeException::TabOutOfRangeException
PUBLIC	??_GTabOutOfRangeException@Util@MaxSDK@@UEAAPEAXI@Z ; MaxSDK::Util::TabOutOfRangeException::`scalar deleting destructor'
PUBLIC	?length@?$char_traits@_W@std@@SA_KPEB_W@Z	; std::char_traits<wchar_t>::length
PUBLIC	?copy@?$char_traits@_W@std@@SAPEA_WPEA_WPEB_W_K@Z ; std::char_traits<wchar_t>::copy
PUBLIC	?move@?$char_traits@_W@std@@SAPEA_WPEA_WPEB_W_K@Z ; std::char_traits<wchar_t>::move
PUBLIC	?assign@?$char_traits@_W@std@@SAXAEA_WAEB_W@Z	; std::char_traits<wchar_t>::assign
PUBLIC	??0_Container_proxy@std@@QEAA@XZ		; std::_Container_proxy::_Container_proxy
PUBLIC	??0_Container_base12@std@@QEAA@XZ		; std::_Container_base12::_Container_base12
PUBLIC	??1_Container_base12@std@@QEAA@XZ		; std::_Container_base12::~_Container_base12
PUBLIC	?_Orphan_all@_Container_base12@std@@QEAAXXZ	; std::_Container_base12::_Orphan_all
PUBLIC	?_Allocate@std@@YAPEAX_K0_N@Z			; std::_Allocate
PUBLIC	?_Deallocate@std@@YAXPEAX_K1@Z			; std::_Deallocate
PUBLIC	??D@YA?AVPoint3@@MAEBV0@@Z			; operator*
PUBLIC	??D@YA?AVPoint3@@AEBV0@M@Z			; operator*
PUBLIC	??0InterfaceServer@@QEAA@XZ			; InterfaceServer::InterfaceServer
PUBLIC	??_GInterfaceServer@@UEAAPEAXI@Z		; InterfaceServer::`scalar deleting destructor'
PUBLIC	??0?$Tab@PEAVBaseInterface@@@@QEAA@XZ		; Tab<BaseInterface * __ptr64>::Tab<BaseInterface * __ptr64>
PUBLIC	??1?$Tab@PEAVBaseInterface@@@@QEAA@XZ		; Tab<BaseInterface * __ptr64>::~Tab<BaseInterface * __ptr64>
PUBLIC	??0BaseInterfaceServer@@QEAA@XZ			; BaseInterfaceServer::BaseInterfaceServer
PUBLIC	??_GBaseInterfaceServer@@UEAAPEAXI@Z		; BaseInterfaceServer::`scalar deleting destructor'
PUBLIC	??0AssetId@AssetManagement@MaxSDK@@QEAA@XZ	; MaxSDK::AssetManagement::AssetId::AssetId
PUBLIC	?Count@?$Tab@PEAVFPInterface@@@@QEBAHXZ		; Tab<FPInterface * __ptr64>::Count
PUBLIC	?ZeroCount@?$Tab@PEAVFPInterface@@@@QEAAXXZ	; Tab<FPInterface * __ptr64>::ZeroCount
PUBLIC	??A?$Tab@PEAVFPInterface@@@@QEBAAEAPEAVFPInterface@@_J@Z ; Tab<FPInterface * __ptr64>::operator[]
PUBLIC	?BeginCreate@ClassDesc@@UEAAHPEAVInterface@@@Z	; ClassDesc::BeginCreate
PUBLIC	?EndCreate@ClassDesc@@UEAAHPEAVInterface@@@Z	; ClassDesc::EndCreate
PUBLIC	?OkToCreate@ClassDesc@@UEAAHPEAVInterface@@@Z	; ClassDesc::OkToCreate
PUBLIC	?HasClassParams@ClassDesc@@UEAAHXZ		; ClassDesc::HasClassParams
PUBLIC	?EditClassParams@ClassDesc@@UEAAXPEAUHWND__@@@Z	; ClassDesc::EditClassParams
PUBLIC	?NumActionTables@ClassDesc@@UEAAHXZ		; ClassDesc::NumActionTables
PUBLIC	?GetActionTable@ClassDesc@@UEAAPEAVActionTable@@H@Z ; ClassDesc::GetActionTable
PUBLIC	?IsManipulator@ClassDesc@@UEAAHXZ		; ClassDesc::IsManipulator
PUBLIC	?CanManipulate@ClassDesc@@UEAAHPEAVReferenceTarget@@@Z ; ClassDesc::CanManipulate
PUBLIC	?CanManipulateNode@ClassDesc@@UEAAHPEAVINode@@@Z ; ClassDesc::CanManipulateNode
PUBLIC	?CreateManipulator@ClassDesc@@UEAAPEAVManipulator@@PEAVReferenceTarget@@PEAVINode@@@Z ; ClassDesc::CreateManipulator
PUBLIC	?CreateManipulator@ClassDesc@@UEAAPEAVManipulator@@PEAVINode@@@Z ; ClassDesc::CreateManipulator
PUBLIC	?NeedsToSave@ClassDesc@@UEAAHXZ			; ClassDesc::NeedsToSave
PUBLIC	?Save@ClassDesc@@UEAA?AW4IOResult@@PEAVISave@@@Z ; ClassDesc::Save
PUBLIC	?Load@ClassDesc@@UEAA?AW4IOResult@@PEAVILoad@@@Z ; ClassDesc::Load
PUBLIC	?InitialRollupPageState@ClassDesc@@UEAAKXZ	; ClassDesc::InitialRollupPageState
PUBLIC	?UseOnlyInternalNameForMAXScriptExposure@ClassDesc@@UEAA_NXZ ; ClassDesc::UseOnlyInternalNameForMAXScriptExposure
PUBLIC	?GetParamMap@ClassDesc@@UEAAPEAVIParamMap2@@PEAVParamBlockDesc2@@@Z ; ClassDesc::GetParamMap
PUBLIC	?GetUserDlgProc@ClassDesc@@UEAAPEAVParamMap2UserDlgProc@@PEAVParamBlockDesc2@@@Z ; ClassDesc::GetUserDlgProc
PUBLIC	?DrawRepresentation@ClassDesc@@UEAA_NKPEAUHDC__@@AEAVBox2@@@Z ; ClassDesc::DrawRepresentation
PUBLIC	?NumInterfaces@ClassDesc@@UEAAHXZ		; ClassDesc::NumInterfaces
PUBLIC	?GetInterfaceAt@ClassDesc@@UEAAPEAVFPInterface@@H@Z ; ClassDesc::GetInterfaceAt
PUBLIC	?ClearInterfaces@ClassDesc@@UEAAXXZ		; ClassDesc::ClearInterfaces
PUBLIC	?SubClassID@ClassDesc@@UEAA?AVClass_ID@@XZ	; ClassDesc::SubClassID
PUBLIC	?Execute@ClassDesc@@UEAA_JH_K00@Z		; ClassDesc::Execute
PUBLIC	??0Matrix3@@QEAA@XZ				; Matrix3::Matrix3
PUBLIC	?Set@BitArray@@QEAAXH@Z				; BitArray::Set
PUBLIC	?UseLocalBits@BitArray@@AEBA_NXZ		; BitArray::UseLocalBits
PUBLIC	?BitMask@BitArray@@AEBA_KH@Z			; BitArray::BitMask
PUBLIC	??0Color@@QEAA@XZ				; Color::Color
PUBLIC	??0Color@@QEAA@MMM@Z				; Color::Color
PUBLIC	??0AColor@@QEAA@XZ				; AColor::AColor
PUBLIC	??0AColor@@QEAA@MMMM@Z				; AColor::AColor
PUBLIC	??0AColor@@QEAA@HHHH@Z				; AColor::AColor
PUBLIC	??0AColor@@QEAA@AEBV0@@Z			; AColor::AColor
PUBLIC	??0AColor@@QEAA@AEBVColor@@M@Z			; AColor::AColor
PUBLIC	??HAColor@@QEBA?AV0@AEBV0@@Z			; AColor::operator+
PUBLIC	??D@YA?AVAColor@@MAEBV0@@Z			; operator*
PUBLIC	??0Interval@@QEAA@XZ				; Interval::Interval
PUBLIC	?SetEmpty@Interval@@QEAAXXZ			; Interval::SetEmpty
PUBLIC	?SetInfinite@Interval@@QEAAXXZ			; Interval::SetInfinite
PUBLIC	??_4Interval@@QEAAAEAV0@V0@@Z			; Interval::operator&=
PUBLIC	?FreeCaches@Animatable@@UEAAXXZ			; Animatable::FreeCaches
PUBLIC	?BeginEditParams@Animatable@@UEAAXPEAVIObjParam@@KPEAV1@@Z ; Animatable::BeginEditParams
PUBLIC	?EndEditParams@Animatable@@UEAAXPEAVIObjParam@@KPEAV1@@Z ; Animatable::EndEditParams
PUBLIC	?BypassTreeView@Animatable@@UEAAHXZ		; Animatable::BypassTreeView
PUBLIC	?BypassTrackBar@Animatable@@UEAAHXZ		; Animatable::BypassTrackBar
PUBLIC	?BypassPropertyLevel@Animatable@@UEAAHXZ	; Animatable::BypassPropertyLevel
PUBLIC	?InvisibleProperty@Animatable@@UEAAHXZ		; Animatable::InvisibleProperty
PUBLIC	?AssignController@Animatable@@UEAAHPEAV1@H@Z	; Animatable::AssignController
PUBLIC	?CanAssignController@Animatable@@UEAAHH@Z	; Animatable::CanAssignController
PUBLIC	?CanDeleteSubAnim@Animatable@@UEAAHH@Z		; Animatable::CanDeleteSubAnim
PUBLIC	?DeleteSubAnim@Animatable@@UEAAXH@Z		; Animatable::DeleteSubAnim
PUBLIC	?GetSubAnimCurveColor@Animatable@@UEAAKH@Z	; Animatable::GetSubAnimCurveColor
PUBLIC	?CanCopyAnim@Animatable@@UEAAHXZ		; Animatable::CanCopyAnim
PUBLIC	?CanMakeUnique@Animatable@@UEAAHXZ		; Animatable::CanMakeUnique
PUBLIC	?NumChildren@Animatable@@UEAAHXZ		; Animatable::NumChildren
PUBLIC	?ChildAnim@Animatable@@UEAAPEAV1@H@Z		; Animatable::ChildAnim
PUBLIC	?RenderBegin@Animatable@@UEAAHHK@Z		; Animatable::RenderBegin
PUBLIC	?RenderEnd@Animatable@@UEAAHH@Z			; Animatable::RenderEnd
PUBLIC	?EditTrack@Animatable@@UEAAXXZ			; Animatable::EditTrack
PUBLIC	?NumKeys@Animatable@@UEAAHXZ			; Animatable::NumKeys
PUBLIC	?GetKeyTime@Animatable@@UEAAHH@Z		; Animatable::GetKeyTime
PUBLIC	?GetKeyIndex@Animatable@@UEAAHH@Z		; Animatable::GetKeyIndex
PUBLIC	?GetNextKeyTime@Animatable@@UEAAHHKAEAH@Z	; Animatable::GetNextKeyTime
PUBLIC	?CopyKeysFromTime@Animatable@@UEAAXHHK@Z	; Animatable::CopyKeysFromTime
PUBLIC	?DeleteKeyAtTime@Animatable@@UEAAXH@Z		; Animatable::DeleteKeyAtTime
PUBLIC	?IsKeyAtTime@Animatable@@UEAAHHK@Z		; Animatable::IsKeyAtTime
PUBLIC	?GetKeyTimes@Animatable@@UEAAHAEAV?$Tab@H@@VInterval@@K@Z ; Animatable::GetKeyTimes
PUBLIC	?GetKeySelState@Animatable@@UEAAHAEAVBitArray@@VInterval@@K@Z ; Animatable::GetKeySelState
PUBLIC	?EditTimeRange@Animatable@@UEAAXVInterval@@K@Z	; Animatable::EditTimeRange
PUBLIC	?DeleteTime@Animatable@@UEAAXVInterval@@K@Z	; Animatable::DeleteTime
PUBLIC	?ReverseTime@Animatable@@UEAAXVInterval@@K@Z	; Animatable::ReverseTime
PUBLIC	?ScaleTime@Animatable@@UEAAXVInterval@@M@Z	; Animatable::ScaleTime
PUBLIC	?InsertTime@Animatable@@UEAAXHH@Z		; Animatable::InsertTime
PUBLIC	?SupportTimeOperations@Animatable@@UEAAHXZ	; Animatable::SupportTimeOperations
PUBLIC	?DeleteKeys@Animatable@@UEAAXK@Z		; Animatable::DeleteKeys
PUBLIC	?DeleteKeyByIndex@Animatable@@UEAAXH@Z		; Animatable::DeleteKeyByIndex
PUBLIC	?SelectKeys@Animatable@@UEAAXAEAV?$Tab@VTrackHitRecord@@@@K@Z ; Animatable::SelectKeys
PUBLIC	?SelectSubKeys@Animatable@@UEAAXHAEAV?$Tab@VTrackHitRecord@@@@K@Z ; Animatable::SelectSubKeys
PUBLIC	?SelectSubCurve@Animatable@@UEAAXHH@Z		; Animatable::SelectSubCurve
PUBLIC	?SelectKeyByIndex@Animatable@@UEAAXHH@Z		; Animatable::SelectKeyByIndex
PUBLIC	?IsKeySelected@Animatable@@UEAAHH@Z		; Animatable::IsKeySelected
PUBLIC	?FlagKey@Animatable@@UEAAXVTrackHitRecord@@@Z	; Animatable::FlagKey
PUBLIC	?GetFlagKeyIndex@Animatable@@UEAAHXZ		; Animatable::GetFlagKeyIndex
PUBLIC	?NumSelKeys@Animatable@@UEAAHXZ			; Animatable::NumSelKeys
PUBLIC	?CloneSelectedKeys@Animatable@@UEAAXH@Z		; Animatable::CloneSelectedKeys
PUBLIC	?AddNewKey@Animatable@@UEAAXHK@Z		; Animatable::AddNewKey
PUBLIC	?MoveKeys@Animatable@@UEAAXPEAVParamDimensionBase@@MK@Z ; Animatable::MoveKeys
PUBLIC	?ScaleKeyValues@Animatable@@UEAAXPEAVParamDimensionBase@@MMK@Z ; Animatable::ScaleKeyValues
PUBLIC	?SelectCurve@Animatable@@UEAAXH@Z		; Animatable::SelectCurve
PUBLIC	?IsCurveSelected@Animatable@@UEAAHXZ		; Animatable::IsCurveSelected
PUBLIC	?IsSubCurveSelected@Animatable@@UEAAHH@Z	; Animatable::IsSubCurveSelected
PUBLIC	?GetSelKeyCoords@Animatable@@UEAAHAEAHAEAMK@Z	; Animatable::GetSelKeyCoords
PUBLIC	?SetSelKeyCoords@Animatable@@UEAAXHMK@Z		; Animatable::SetSelKeyCoords
PUBLIC	?SetSelKeyCoordsExpr@Animatable@@UEAAHPEAVParamDimension@@PEB_W1K@Z ; Animatable::SetSelKeyCoordsExpr
PUBLIC	?AdjustTangents@Animatable@@UEAAXVTrackHitRecord@@PEAVParamDimensionBase@@AEAVBox2@@MHMHHHK@Z ; Animatable::AdjustTangents
PUBLIC	?AdjustTangents@Animatable@@UEAAXVTrackHitRecord@@PEAVParamDimensionBase@@MMK@Z ; Animatable::AdjustTangents
PUBLIC	?SetKeyBufferPresent@Animatable@@UEAAHXZ	; Animatable::SetKeyBufferPresent
PUBLIC	?CommitSetKeyBuffer@Animatable@@UEAAXH@Z	; Animatable::CommitSetKeyBuffer
PUBLIC	?RevertSetKeyBuffer@Animatable@@UEAAXXZ		; Animatable::RevertSetKeyBuffer
PUBLIC	?CanCopyTrack@Animatable@@UEAAHVInterval@@K@Z	; Animatable::CanCopyTrack
PUBLIC	?CanPasteTrack@Animatable@@UEAAHPEAVTrackClipObject@@VInterval@@K@Z ; Animatable::CanPasteTrack
PUBLIC	?CopyTrack@Animatable@@UEAAPEAVTrackClipObject@@VInterval@@K@Z ; Animatable::CopyTrack
PUBLIC	?PasteTrack@Animatable@@UEAAXPEAVTrackClipObject@@VInterval@@K@Z ; Animatable::PasteTrack
PUBLIC	?CanCopySubTrack@Animatable@@UEAAHHVInterval@@K@Z ; Animatable::CanCopySubTrack
PUBLIC	?CanPasteSubTrack@Animatable@@UEAAHHPEAVTrackClipObject@@VInterval@@K@Z ; Animatable::CanPasteSubTrack
PUBLIC	?CopySubTrack@Animatable@@UEAAPEAVTrackClipObject@@HVInterval@@K@Z ; Animatable::CopySubTrack
PUBLIC	?PasteSubTrack@Animatable@@UEAAXHPEAVTrackClipObject@@VInterval@@K@Z ; Animatable::PasteSubTrack
PUBLIC	?GetTrackVSpace@Animatable@@UEAAHH@Z		; Animatable::GetTrackVSpace
PUBLIC	?HitTestTrack@Animatable@@UEAAHAEAV?$Tab@VTrackHitRecord@@@@AEAVBox2@@1MHK@Z ; Animatable::HitTestTrack
PUBLIC	?PaintTrack@Animatable@@UEAAHPEAVParamDimensionBase@@PEAUHDC__@@AEAVBox2@@2MHK@Z ; Animatable::PaintTrack
PUBLIC	?PaintSubTrack@Animatable@@UEAAHHPEAVParamDimensionBase@@PEAUHDC__@@AEAVBox2@@2MHK@Z ; Animatable::PaintSubTrack
PUBLIC	?PaintFCurves@Animatable@@UEAAHPEAVParamDimensionBase@@PEAUHDC__@@AEAVBox2@@2MHMHK@Z ; Animatable::PaintFCurves
PUBLIC	?HitTestFCurves@Animatable@@UEAAHPEAVParamDimensionBase@@AEAV?$Tab@VTrackHitRecord@@@@AEAVBox2@@2MHMHK@Z ; Animatable::HitTestFCurves
PUBLIC	?PaintSubFCurves@Animatable@@UEAAHHPEAVParamDimensionBase@@PEAUHDC__@@AEAVBox2@@2MHMHK@Z ; Animatable::PaintSubFCurves
PUBLIC	?HitTestSubFCurves@Animatable@@UEAAHHPEAVParamDimensionBase@@AEAV?$Tab@VTrackHitRecord@@@@AEAVBox2@@2MHMHK@Z ; Animatable::HitTestSubFCurves
PUBLIC	?EditTrackParams@Animatable@@UEAAXHPEAVParamDimensionBase@@PEB_WPEAUHWND__@@PEAVIObjParam@@K@Z ; Animatable::EditTrackParams
PUBLIC	?TrackParamsType@Animatable@@UEAAHXZ		; Animatable::TrackParamsType
PUBLIC	?GetFCurveExtents@Animatable@@UEAAHPEAVParamDimensionBase@@AEAM1K@Z ; Animatable::GetFCurveExtents
PUBLIC	?GetSubFCurveExtents@Animatable@@UEAAHHPEAVParamDimensionBase@@AEAM1K@Z ; Animatable::GetSubFCurveExtents
PUBLIC	?GetParamDimension@Animatable@@UEAAPEAVParamDimension@@H@Z ; Animatable::GetParamDimension
PUBLIC	?TrackViewWinProc@Animatable@@UEAA_JPEAUHWND__@@I_K_J@Z ; Animatable::TrackViewWinProc
PUBLIC	?SelectSubAnim@Animatable@@UEAAHH@Z		; Animatable::SelectSubAnim
PUBLIC	?FreeAllBitmaps@Animatable@@UEAAXXZ		; Animatable::FreeAllBitmaps
PUBLIC	?GetSystemNodes@Animatable@@UEAAXAEAVINodeTab@@W4SysNodeContext@@@Z ; Animatable::GetSystemNodes
PUBLIC	?IsSubClassOf@Animatable@@UEAAHVClass_ID@@@Z	; Animatable::IsSubClassOf
PUBLIC	?IsParamBlockDesc2Used@Animatable@@UEAA_NPEAVParamBlockDesc2@@@Z ; Animatable::IsParamBlockDesc2Used
PUBLIC	?GetMacroRecorderName@Animatable@@UEAA_N_NAEAVWStr@@@Z ; Animatable::GetMacroRecorderName
PUBLIC	?CanTransferReference@ReferenceMaker@@UEAAHH@Z	; ReferenceMaker::CanTransferReference
PUBLIC	?RemapRefOnLoad@ReferenceMaker@@UEAAHH@Z	; ReferenceMaker::RemapRefOnLoad
PUBLIC	?NotifyDependents@ReferenceMaker@@EEAA?AW4RefResult@@AEBVInterval@@_KIKHPEAVReferenceTarget@@@Z ; ReferenceMaker::NotifyDependents
PUBLIC	?IsRefMaker@ReferenceMaker@@UEAAHXZ		; ReferenceMaker::IsRefMaker
PUBLIC	?IsRealDependency@ReferenceMaker@@UEAAHPEAVReferenceTarget@@@Z ; ReferenceMaker::IsRealDependency
PUBLIC	?ShouldPersistWeakRef@ReferenceMaker@@UEAAHPEAVReferenceTarget@@@Z ; ReferenceMaker::ShouldPersistWeakRef
PUBLIC	?IsRefTarget@ReferenceTarget@@UEAAHXZ		; ReferenceTarget::IsRefTarget
PUBLIC	?RefAddedUndoRedo@ReferenceTarget@@UEAAXPEAVReferenceMaker@@@Z ; ReferenceTarget::RefAddedUndoRedo
PUBLIC	?RefDeleted@ReferenceTarget@@UEAAXXZ		; ReferenceTarget::RefDeleted
PUBLIC	?RefDeletedUndoRedo@ReferenceTarget@@UEAAXXZ	; ReferenceTarget::RefDeletedUndoRedo
PUBLIC	?NotifyForeground@ReferenceTarget@@UEAAXH@Z	; ReferenceTarget::NotifyForeground
PUBLIC	?NotifyTarget@ReferenceTarget@@UEAAXHPEAVReferenceMaker@@@Z ; ReferenceTarget::NotifyTarget
PUBLIC	?NRenderElements@RenderGlobalContext@@QEAAHXZ	; RenderGlobalContext::NRenderElements
PUBLIC	?GetRenderElement@RenderGlobalContext@@QEAAPEAVIRenderElement@@H@Z ; RenderGlobalContext::GetRenderElement
PUBLIC	??0ShadeOutput@@QEAA@XZ				; ShadeOutput::ShadeOutput
PUBLIC	??4ShadeOutput@@QEAAAEAV0@AEBV0@@Z		; ShadeOutput::operator=
PUBLIC	??1ShadeOutput@@UEAA@XZ				; ShadeOutput::~ShadeOutput
PUBLIC	??_GShadeOutput@@UEAAPEAXI@Z			; ShadeOutput::`scalar deleting destructor'
PUBLIC	?ClassID@ShadeContext@@UEAA?AVClass_ID@@XZ	; ShadeContext::ClassID
PUBLIC	?Antialias@ShadeContext@@UEAAHXZ		; ShadeContext::Antialias
PUBLIC	?ProjType@ShadeContext@@UEAAHXZ			; ShadeContext::ProjType
PUBLIC	?NodeID@ShadeContext@@UEAAHXZ			; ShadeContext::NodeID
PUBLIC	?Node@ShadeContext@@UEAAPEAVINode@@XZ		; ShadeContext::Node
PUBLIC	?GetEvalObject@ShadeContext@@UEAAPEAVObject@@XZ	; ShadeContext::GetEvalObject
PUBLIC	?BarycentricCoords@ShadeContext@@UEAA?AVPoint3@@XZ ; ShadeContext::BarycentricCoords
PUBLIC	?SetNormal@ShadeContext@@UEAAXVPoint3@@@Z	; ShadeContext::SetNormal
PUBLIC	?OrigNormal@ShadeContext@@UEAA?AVPoint3@@XZ	; ShadeContext::OrigNormal
PUBLIC	?Curve@ShadeContext@@UEAAMXZ			; ShadeContext::Curve
PUBLIC	?OrigView@ShadeContext@@UEAA?AVPoint3@@XZ	; ShadeContext::OrigView
PUBLIC	?SetIOR@ShadeContext@@UEAAXM@Z			; ShadeContext::SetIOR
PUBLIC	?GetIOR@ShadeContext@@UEAAMXZ			; ShadeContext::GetIOR
PUBLIC	?DP@ShadeContext@@UEAAXAEAVPoint3@@0@Z		; ShadeContext::DP
PUBLIC	?SurfacePtScreen@ShadeContext@@UEAA?AVPoint2@@XZ ; ShadeContext::SurfacePtScreen
PUBLIC	?BumpBasisVectors@ShadeContext@@UEAAHQEAVPoint3@@HH@Z ; ShadeContext::BumpBasisVectors
PUBLIC	?IsSuperSampleOn@ShadeContext@@UEAAHXZ		; ShadeContext::IsSuperSampleOn
PUBLIC	?IsTextureSuperSampleOn@ShadeContext@@UEAAHXZ	; ShadeContext::IsTextureSuperSampleOn
PUBLIC	?GetNSuperSample@ShadeContext@@UEAAHXZ		; ShadeContext::GetNSuperSample
PUBLIC	?GetSampleSizeScale@ShadeContext@@UEAAMXZ	; ShadeContext::GetSampleSizeScale
PUBLIC	?UVWNormal@ShadeContext@@UEAA?AVPoint3@@H@Z	; ShadeContext::UVWNormal
PUBLIC	?RayDiam@ShadeContext@@UEAAMXZ			; ShadeContext::RayDiam
PUBLIC	?RayConeAngle@ShadeContext@@UEAAMXZ		; ShadeContext::RayConeAngle
PUBLIC	?CamNearRange@ShadeContext@@UEAAMXZ		; ShadeContext::CamNearRange
PUBLIC	?CamFarRange@ShadeContext@@UEAAMXZ		; ShadeContext::CamFarRange
PUBLIC	?SetGBufferID@ShadeContext@@UEAAXH@Z		; ShadeContext::SetGBufferID
PUBLIC	?DebugFile@ShadeContext@@UEAAPEAU_iobuf@@XZ	; ShadeContext::DebugFile
PUBLIC	?EvalGlobalEnvironMap@ShadeContext@@UEAA?AVAColor@@VPoint3@@@Z ; ShadeContext::EvalGlobalEnvironMap
PUBLIC	?GetCache@ShadeContext@@UEAAHPEAVTexmap@@AEAVAColor@@@Z ; ShadeContext::GetCache
PUBLIC	?GetCache@ShadeContext@@UEAAHPEAVTexmap@@AEAM@Z	; ShadeContext::GetCache
PUBLIC	?GetCache@ShadeContext@@UEAAHPEAVTexmap@@AEAVPoint3@@@Z ; ShadeContext::GetCache
PUBLIC	?PutCache@ShadeContext@@UEAAXPEAVTexmap@@AEBVAColor@@@Z ; ShadeContext::PutCache
PUBLIC	?PutCache@ShadeContext@@UEAAXPEAVTexmap@@M@Z	; ShadeContext::PutCache
PUBLIC	?PutCache@ShadeContext@@UEAAXPEAVTexmap@@AEBVPoint3@@@Z ; ShadeContext::PutCache
PUBLIC	?TossCache@ShadeContext@@UEAAXPEAVTexmap@@@Z	; ShadeContext::TossCache
PUBLIC	?Execute@ShadeContext@@UEAA_JH_K00@Z		; ShadeContext::Execute
PUBLIC	?NRenderElements@ShadeContext@@UEAAHXZ		; ShadeContext::NRenderElements
PUBLIC	?GetRenderElement@ShadeContext@@UEAAPEAVIRenderElement@@H@Z ; ShadeContext::GetRenderElement
PUBLIC	??0ShadeContext@@QEAA@XZ			; ShadeContext::ShadeContext
PUBLIC	??1ShadeContext@@UEAA@XZ			; ShadeContext::~ShadeContext
PUBLIC	??_GShadeContext@@UEAAPEAXI@Z			; ShadeContext::`scalar deleting destructor'
PUBLIC	?SubTexmapOn@ISubMap@@UEAAHH@Z			; ISubMap::SubTexmapOn
PUBLIC	?BuildMaps@MtlBase@@UEAAHHAEAVRenderMapsContext@@@Z ; MtlBase::BuildMaps
PUBLIC	?LocalMappingsRequired@MtlBase@@UEAAXHAEAVBitArray@@0@Z ; MtlBase::LocalMappingsRequired
PUBLIC	?IsMultiMtl@MtlBase@@UEAAHXZ			; MtlBase::IsMultiMtl
PUBLIC	?SupportsMultiMapsInViewport@MtlBase@@UEAAHXZ	; MtlBase::SupportsMultiMapsInViewport
PUBLIC	?SetupGfxMultiMaps@MtlBase@@UEAAXHPEAVMaterial@@AEAVMtlMakerCallback@@@Z ; MtlBase::SetupGfxMultiMaps
PUBLIC	?GetInterface@MtlBase@@UEAAPEAVBaseInterface@@VInterface_ID@@@Z ; MtlBase::GetInterface
PUBLIC	?GetRefTarget@MtlBase@@UEAAPEAVReferenceTarget@@XZ ; MtlBase::GetRefTarget
PUBLIC	?GetTransparencyHint@MtlBase@@UEAAHHAEAVInterval@@@Z ; MtlBase::GetTransparencyHint
PUBLIC	?HandleOwnViewPerturb@Texmap@@UEAAHXZ		; Texmap::HandleOwnViewPerturb
PUBLIC	?GetUVTransform@Texmap@@UEAAXAEAVMatrix3@@@Z	; Texmap::GetUVTransform
PUBLIC	?GetTextureTiling@Texmap@@UEAAHXZ		; Texmap::GetTextureTiling
PUBLIC	?GetUVWSource@Texmap@@UEAAHXZ			; Texmap::GetUVWSource
PUBLIC	?GetMapChannel@Texmap@@UEAAHXZ			; Texmap::GetMapChannel
PUBLIC	?InitSlotType@Texmap@@UEAAXH@Z			; Texmap::InitSlotType
PUBLIC	?MapSlotType@Texmap@@UEAAHH@Z			; Texmap::MapSlotType
PUBLIC	?GetTheUVGen@Texmap@@UEAAPEAVUVGen@@XZ		; Texmap::GetTheUVGen
PUBLIC	?GetTheXYZGen@Texmap@@UEAAPEAVXYZGen@@XZ	; Texmap::GetTheXYZGen
PUBLIC	?SetOutputLevel@Texmap@@UEAAXHM@Z		; Texmap::SetOutputLevel
PUBLIC	?IsLocalOutputMeaningful@Texmap@@UEAA_NAEAVShadeContext@@@Z ; Texmap::IsLocalOutputMeaningful
PUBLIC	?LoadMapFiles@Texmap@@UEAAHH@Z			; Texmap::LoadMapFiles
PUBLIC	?IsHighDynamicRange@Texmap@@UEBAHXZ		; Texmap::IsHighDynamicRange
PUBLIC	??1Texmap@@UEAA@XZ				; Texmap::~Texmap
PUBLIC	?SetUserDlgProc@ClassDesc2@@UEAA_NPEAVParamBlockDesc2@@PEAVParamMap2UserDlgProc@@@Z ; ClassDesc2::SetUserDlgProc
PUBLIC	?CreateQtWidget@ClassDesc2@@UEAAPEAVQMaxParamBlockWidget@MaxSDK@@AEAVReferenceMaker@@AEAVIParamBlock2@@FAEAVWStr@@AEAH3@Z ; ClassDesc2::CreateQtWidget
PUBLIC	?SetUserDlgProc@ParamBlockDesc2@@QEAAXPEAVParamMap2UserDlgProc@@@Z ; ParamBlockDesc2::SetUserDlgProc
PUBLIC	?__autoclassinit2@ParamBlockDesc2@@QEAAX_K@Z	; ParamBlockDesc2::__autoclassinit2
PUBLIC	??1ParamMap2UserDlgProc@@UEAA@XZ		; ParamMap2UserDlgProc::~ParamMap2UserDlgProc
PUBLIC	?SetThing@ParamMap2UserDlgProc@@UEAAXPEAVReferenceTarget@@@Z ; ParamMap2UserDlgProc::SetThing
PUBLIC	?Update@ParamMap2UserDlgProc@@UEAAXH@Z		; ParamMap2UserDlgProc::Update
PUBLIC	?SetParamBlock@ParamMap2UserDlgProc@@UEAAXPEAVIParamBlock2@@@Z ; ParamMap2UserDlgProc::SetParamBlock
PUBLIC	?Update@ParamMap2UserDlgProc@@UEAAXHAEAVInterval@@PEAVIParamMap2@@@Z ; ParamMap2UserDlgProc::Update
PUBLIC	??0ParamMap2UserDlgProc@@QEAA@XZ		; ParamMap2UserDlgProc::ParamMap2UserDlgProc
PUBLIC	??_GParamMap2UserDlgProc@@UEAAPEAXI@Z		; ParamMap2UserDlgProc::`scalar deleting destructor'
PUBLIC	?SetCustomImageList@ResourceMakerCallback@@UEAAHAEAPEAU_IMAGELIST@@PEAVICurveCtl@@@Z ; ResourceMakerCallback::SetCustomImageList
PUBLIC	?GetToolTip@ResourceMakerCallback@@UEAAHHAEAVWStr@@PEAVICurveCtl@@@Z ; ResourceMakerCallback::GetToolTip
PUBLIC	?ResetCallback@ResourceMakerCallback@@UEAAXHPEAVICurveCtl@@@Z ; ResourceMakerCallback::ResetCallback
PUBLIC	?NewCurveCreatedCallback@ResourceMakerCallback@@UEAAXHPEAVICurveCtl@@@Z ; ResourceMakerCallback::NewCurveCreatedCallback
PUBLIC	?GetInterface@ResourceMakerCallback@@UEAAPEAXK@Z ; ResourceMakerCallback::GetInterface
PUBLIC	??0ResourceMakerCallback@@QEAA@XZ		; ResourceMakerCallback::ResourceMakerCallback
PUBLIC	??0XYZ_Desc@@QEAA@PEAVClassDesc2@@HHHHHHH@Z	; XYZ_Desc::XYZ_Desc
PUBLIC	??1XYZ_Desc@@UEAA@XZ				; XYZ_Desc::~XYZ_Desc
PUBLIC	?__autoclassinit2@XYZ_Desc@@QEAAX_K@Z		; XYZ_Desc::__autoclassinit2
PUBLIC	??_GXYZ_Desc@@UEAAPEAXI@Z			; XYZ_Desc::`scalar deleting destructor'
PUBLIC	??0BerconXYZDlgProc@@QEAA@PEAVReferenceTarget@@@Z ; BerconXYZDlgProc::BerconXYZDlgProc
PUBLIC	?DlgProc@BerconXYZDlgProc@@UEAA_JHPEAVIParamMap2@@PEAUHWND__@@I_K_J@Z ; BerconXYZDlgProc::DlgProc
PUBLIC	?DeleteThis@BerconXYZDlgProc@@UEAAXXZ		; BerconXYZDlgProc::DeleteThis
PUBLIC	?SetThing@BerconXYZDlgProc@@UEAAXPEAVReferenceTarget@@@Z ; BerconXYZDlgProc::SetThing
PUBLIC	??1BerconXYZDlgProc@@UEAA@XZ			; BerconXYZDlgProc::~BerconXYZDlgProc
PUBLIC	?__autoclassinit2@BerconXYZDlgProc@@QEAAX_K@Z	; BerconXYZDlgProc::__autoclassinit2
PUBLIC	??_GBerconXYZDlgProc@@UEAAPEAXI@Z		; BerconXYZDlgProc::`scalar deleting destructor'
PUBLIC	??0BerconXYZ@@QEAA@XZ				; BerconXYZ::BerconXYZ
PUBLIC	?req@BerconXYZ@@QEAAKXZ				; BerconXYZ::req
PUBLIC	?map@BerconXYZ@@QEAAXHAEAVBitArray@@0@Z		; BerconXYZ::map
PUBLIC	?isRealworld@BerconXYZ@@QEAAHXZ			; BerconXYZ::isRealworld
PUBLIC	??0?$allocator@_W@std@@QEAA@XZ			; std::allocator<wchar_t>::allocator<wchar_t>
PUBLIC	?deallocate@?$allocator@_W@std@@QEAAXPEA_W_K@Z	; std::allocator<wchar_t>::deallocate
PUBLIC	?allocate@?$allocator@_W@std@@QEAAPEA_W_K@Z	; std::allocator<wchar_t>::allocate
PUBLIC	?max_size@?$allocator@_W@std@@QEBA_KXZ		; std::allocator<wchar_t>::max_size
PUBLIC	?max_size@?$allocator_traits@V?$allocator@_W@std@@@std@@SA_KAEBV?$allocator@_W@2@@Z ; std::allocator_traits<std::allocator<wchar_t> >::max_size
PUBLIC	??0?$_Wrap_alloc@V?$allocator@_W@std@@@std@@QEAA@XZ ; std::_Wrap_alloc<std::allocator<wchar_t> >::_Wrap_alloc<std::allocator<wchar_t> >
PUBLIC	?allocate@?$_Wrap_alloc@V?$allocator@_W@std@@@std@@QEAAPEA_W_K@Z ; std::_Wrap_alloc<std::allocator<wchar_t> >::allocate
PUBLIC	?deallocate@?$_Wrap_alloc@V?$allocator@_W@std@@@std@@QEAAXPEA_W_K@Z ; std::_Wrap_alloc<std::allocator<wchar_t> >::deallocate
PUBLIC	?max_size@?$_Wrap_alloc@V?$allocator@_W@std@@@std@@QEBA_KU_Nil@2@@Z ; std::_Wrap_alloc<std::allocator<wchar_t> >::max_size
PUBLIC	??0?$_String_val@U?$_Simple_types@_W@std@@@std@@QEAA@XZ ; std::_String_val<std::_Simple_types<wchar_t> >::_String_val<std::_Simple_types<wchar_t> >
PUBLIC	?_Myptr@?$_String_val@U?$_Simple_types@_W@std@@@std@@QEAAPEA_WXZ ; std::_String_val<std::_Simple_types<wchar_t> >::_Myptr
PUBLIC	?_Myptr@?$_String_val@U?$_Simple_types@_W@std@@@std@@QEBAPEB_WXZ ; std::_String_val<std::_Simple_types<wchar_t> >::_Myptr
PUBLIC	??0_Bxty@?$_String_val@U?$_Simple_types@_W@std@@@std@@QEAA@XZ ; std::_String_val<std::_Simple_types<wchar_t> >::_Bxty::_Bxty
PUBLIC	??1_Bxty@?$_String_val@U?$_Simple_types@_W@std@@@std@@QEAA@XZ ; std::_String_val<std::_Simple_types<wchar_t> >::_Bxty::~_Bxty
PUBLIC	??1?$_String_val@U?$_Simple_types@_W@std@@@std@@QEAA@XZ ; std::_String_val<std::_Simple_types<wchar_t> >::~_String_val<std::_Simple_types<wchar_t> >
PUBLIC	?_Myptr@?$_String_alloc@U?$_String_base_types@_WV?$allocator@_W@std@@@std@@@std@@QEAAPEA_WXZ ; std::_String_alloc<std::_String_base_types<wchar_t,std::allocator<wchar_t> > >::_Myptr
PUBLIC	?_Myptr@?$_String_alloc@U?$_String_base_types@_WV?$allocator@_W@std@@@std@@@std@@QEBAPEB_WXZ ; std::_String_alloc<std::_String_base_types<wchar_t,std::allocator<wchar_t> > >::_Myptr
PUBLIC	??0?$_String_alloc@U?$_String_base_types@_WV?$allocator@_W@std@@@std@@@std@@QEAA@XZ ; std::_String_alloc<std::_String_base_types<wchar_t,std::allocator<wchar_t> > >::_String_alloc<std::_String_base_types<wchar_t,std::allocator<wchar_t> > >
PUBLIC	??1?$_String_alloc@U?$_String_base_types@_WV?$allocator@_W@std@@@std@@@std@@QEAA@XZ ; std::_String_alloc<std::_String_base_types<wchar_t,std::allocator<wchar_t> > >::~_String_alloc<std::_String_base_types<wchar_t,std::allocator<wchar_t> > >
PUBLIC	?_Alloc_proxy@?$_String_alloc@U?$_String_base_types@_WV?$allocator@_W@std@@@std@@@std@@QEAAXXZ ; std::_String_alloc<std::_String_base_types<wchar_t,std::allocator<wchar_t> > >::_Alloc_proxy
PUBLIC	?_Free_proxy@?$_String_alloc@U?$_String_base_types@_WV?$allocator@_W@std@@@std@@@std@@QEAAXXZ ; std::_String_alloc<std::_String_base_types<wchar_t,std::allocator<wchar_t> > >::_Free_proxy
PUBLIC	?_Myproxy@?$_String_alloc@U?$_String_base_types@_WV?$allocator@_W@std@@@std@@@std@@QEAAAEAPEAU_Container_proxy@2@XZ ; std::_String_alloc<std::_String_base_types<wchar_t,std::allocator<wchar_t> > >::_Myproxy
PUBLIC	?_Orphan_all@?$_String_alloc@U?$_String_base_types@_WV?$allocator@_W@std@@@std@@@std@@QEAAXXZ ; std::_String_alloc<std::_String_base_types<wchar_t,std::allocator<wchar_t> > >::_Orphan_all
PUBLIC	?_Getal@?$_String_alloc@U?$_String_base_types@_WV?$allocator@_W@std@@@std@@@std@@QEAAAEAU?$_Wrap_alloc@V?$allocator@_W@std@@@2@XZ ; std::_String_alloc<std::_String_base_types<wchar_t,std::allocator<wchar_t> > >::_Getal
PUBLIC	?_Getal@?$_String_alloc@U?$_String_base_types@_WV?$allocator@_W@std@@@std@@@std@@QEBAAEBU?$_Wrap_alloc@V?$allocator@_W@std@@@2@XZ ; std::_String_alloc<std::_String_base_types<wchar_t,std::allocator<wchar_t> > >::_Getal
PUBLIC	?_Get_data@?$_String_alloc@U?$_String_base_types@_WV?$allocator@_W@std@@@std@@@std@@QEAAAEAV?$_String_val@U?$_Simple_types@_W@std@@@2@XZ ; std::_String_alloc<std::_String_base_types<wchar_t,std::allocator<wchar_t> > >::_Get_data
PUBLIC	?_Get_data@?$_String_alloc@U?$_String_base_types@_WV?$allocator@_W@std@@@std@@@std@@QEBAAEBV?$_String_val@U?$_Simple_types@_W@std@@@2@XZ ; std::_String_alloc<std::_String_base_types<wchar_t,std::allocator<wchar_t> > >::_Get_data
PUBLIC	?_Bx@?$_String_alloc@U?$_String_base_types@_WV?$allocator@_W@std@@@std@@@std@@QEAAAEAT_Bxty@?$_String_val@U?$_Simple_types@_W@std@@@2@XZ ; std::_String_alloc<std::_String_base_types<wchar_t,std::allocator<wchar_t> > >::_Bx
PUBLIC	?_Mysize@?$_String_alloc@U?$_String_base_types@_WV?$allocator@_W@std@@@std@@@std@@QEAAAEA_KXZ ; std::_String_alloc<std::_String_base_types<wchar_t,std::allocator<wchar_t> > >::_Mysize
PUBLIC	?_Mysize@?$_String_alloc@U?$_String_base_types@_WV?$allocator@_W@std@@@std@@@std@@QEBAAEB_KXZ ; std::_String_alloc<std::_String_base_types<wchar_t,std::allocator<wchar_t> > >::_Mysize
PUBLIC	?_Myres@?$_String_alloc@U?$_String_base_types@_WV?$allocator@_W@std@@@std@@@std@@QEAAAEA_KXZ ; std::_String_alloc<std::_String_base_types<wchar_t,std::allocator<wchar_t> > >::_Myres
PUBLIC	?_Get_first@?$_Compressed_pair@U?$_Wrap_alloc@V?$allocator@_W@std@@@std@@V?$_String_val@U?$_Simple_types@_W@std@@@2@$00@std@@QEAAAEAU?$_Wrap_alloc@V?$allocator@_W@std@@@2@XZ ; std::_Compressed_pair<std::_Wrap_alloc<std::allocator<wchar_t> >,std::_String_val<std::_Simple_types<wchar_t> >,1>::_Get_first
PUBLIC	?_Get_first@?$_Compressed_pair@U?$_Wrap_alloc@V?$allocator@_W@std@@@std@@V?$_String_val@U?$_Simple_types@_W@std@@@2@$00@std@@QEBAAEBU?$_Wrap_alloc@V?$allocator@_W@std@@@2@XZ ; std::_Compressed_pair<std::_Wrap_alloc<std::allocator<wchar_t> >,std::_String_val<std::_Simple_types<wchar_t> >,1>::_Get_first
PUBLIC	?_Get_second@?$_Compressed_pair@U?$_Wrap_alloc@V?$allocator@_W@std@@@std@@V?$_String_val@U?$_Simple_types@_W@std@@@2@$00@std@@QEAAAEAV?$_String_val@U?$_Simple_types@_W@std@@@2@XZ ; std::_Compressed_pair<std::_Wrap_alloc<std::allocator<wchar_t> >,std::_String_val<std::_Simple_types<wchar_t> >,1>::_Get_second
PUBLIC	?_Get_second@?$_Compressed_pair@U?$_Wrap_alloc@V?$allocator@_W@std@@@std@@V?$_String_val@U?$_Simple_types@_W@std@@@2@$00@std@@QEBAAEBV?$_String_val@U?$_Simple_types@_W@std@@@2@XZ ; std::_Compressed_pair<std::_Wrap_alloc<std::allocator<wchar_t> >,std::_String_val<std::_Simple_types<wchar_t> >,1>::_Get_second
PUBLIC	??1?$_Compressed_pair@U?$_Wrap_alloc@V?$allocator@_W@std@@@std@@V?$_String_val@U?$_Simple_types@_W@std@@@2@$00@std@@QEAA@XZ ; std::_Compressed_pair<std::_Wrap_alloc<std::allocator<wchar_t> >,std::_String_val<std::_Simple_types<wchar_t> >,1>::~_Compressed_pair<std::_Wrap_alloc<std::allocator<wchar_t> >,std::_String_val<std::_Simple_types<wchar_t> >,1>
PUBLIC	??0?$basic_string@_WU?$char_traits@_W@std@@V?$allocator@_W@2@@std@@QEAA@PEB_W@Z ; std::basic_string<wchar_t,std::char_traits<wchar_t>,std::allocator<wchar_t> >::basic_string<wchar_t,std::char_traits<wchar_t>,std::allocator<wchar_t> >
PUBLIC	??1?$basic_string@_WU?$char_traits@_W@std@@V?$allocator@_W@2@@std@@QEAA@XZ ; std::basic_string<wchar_t,std::char_traits<wchar_t>,std::allocator<wchar_t> >::~basic_string<wchar_t,std::char_traits<wchar_t>,std::allocator<wchar_t> >
PUBLIC	?assign@?$basic_string@_WU?$char_traits@_W@std@@V?$allocator@_W@2@@std@@QEAAAEAV12@AEBV12@_K1@Z ; std::basic_string<wchar_t,std::char_traits<wchar_t>,std::allocator<wchar_t> >::assign
PUBLIC	?assign@?$basic_string@_WU?$char_traits@_W@std@@V?$allocator@_W@2@@std@@QEAAAEAV12@PEB_W_K@Z ; std::basic_string<wchar_t,std::char_traits<wchar_t>,std::allocator<wchar_t> >::assign
PUBLIC	?assign@?$basic_string@_WU?$char_traits@_W@std@@V?$allocator@_W@2@@std@@QEAAAEAV12@PEB_W@Z ; std::basic_string<wchar_t,std::char_traits<wchar_t>,std::allocator<wchar_t> >::assign
PUBLIC	?erase@?$basic_string@_WU?$char_traits@_W@std@@V?$allocator@_W@2@@std@@QEAAAEAV12@_K@Z ; std::basic_string<wchar_t,std::char_traits<wchar_t>,std::allocator<wchar_t> >::erase
PUBLIC	?erase@?$basic_string@_WU?$char_traits@_W@std@@V?$allocator@_W@2@@std@@QEAAAEAV12@_K0@Z ; std::basic_string<wchar_t,std::char_traits<wchar_t>,std::allocator<wchar_t> >::erase
PUBLIC	?max_size@?$basic_string@_WU?$char_traits@_W@std@@V?$allocator@_W@2@@std@@QEBA_KXZ ; std::basic_string<wchar_t,std::char_traits<wchar_t>,std::allocator<wchar_t> >::max_size
PUBLIC	?_Clamp_suffix_size@?$basic_string@_WU?$char_traits@_W@std@@V?$allocator@_W@2@@std@@QEBA_K_K0@Z ; std::basic_string<wchar_t,std::char_traits<wchar_t>,std::allocator<wchar_t> >::_Clamp_suffix_size
PUBLIC	?_Copy@?$basic_string@_WU?$char_traits@_W@std@@V?$allocator@_W@2@@std@@QEAAX_K0@Z ; std::basic_string<wchar_t,std::char_traits<wchar_t>,std::allocator<wchar_t> >::_Copy
PUBLIC	?_Eos@?$basic_string@_WU?$char_traits@_W@std@@V?$allocator@_W@2@@std@@QEAAX_K@Z ; std::basic_string<wchar_t,std::char_traits<wchar_t>,std::allocator<wchar_t> >::_Eos
PUBLIC	?_Grow@?$basic_string@_WU?$char_traits@_W@std@@V?$allocator@_W@2@@std@@QEAA_N_K_N@Z ; std::basic_string<wchar_t,std::char_traits<wchar_t>,std::allocator<wchar_t> >::_Grow
PUBLIC	?_Inside@?$basic_string@_WU?$char_traits@_W@std@@V?$allocator@_W@2@@std@@QEAA_NPEB_W@Z ; std::basic_string<wchar_t,std::char_traits<wchar_t>,std::allocator<wchar_t> >::_Inside
PUBLIC	?_Tidy@?$basic_string@_WU?$char_traits@_W@std@@V?$allocator@_W@2@@std@@QEAAX_N_K@Z ; std::basic_string<wchar_t,std::char_traits<wchar_t>,std::allocator<wchar_t> >::_Tidy
PUBLIC	?_Xlen@?$basic_string@_WU?$char_traits@_W@std@@V?$allocator@_W@2@@std@@QEBAXXZ ; std::basic_string<wchar_t,std::char_traits<wchar_t>,std::allocator<wchar_t> >::_Xlen
PUBLIC	?_Check_offset@?$basic_string@_WU?$char_traits@_W@std@@V?$allocator@_W@2@@std@@QEBAX_K@Z ; std::basic_string<wchar_t,std::char_traits<wchar_t>,std::allocator<wchar_t> >::_Check_offset
PUBLIC	?_Xran@?$basic_string@_WU?$char_traits@_W@std@@V?$allocator@_W@2@@std@@QEBAXXZ ; std::basic_string<wchar_t,std::char_traits<wchar_t>,std::allocator<wchar_t> >::_Xran
PUBLIC	??0?$allocator@M@std@@QEAA@XZ			; std::allocator<float>::allocator<float>
PUBLIC	?deallocate@?$allocator@M@std@@QEAAXPEAM_K@Z	; std::allocator<float>::deallocate
PUBLIC	??0?$_Wrap_alloc@V?$allocator@M@std@@@std@@QEAA@XZ ; std::_Wrap_alloc<std::allocator<float> >::_Wrap_alloc<std::allocator<float> >
PUBLIC	?deallocate@?$_Wrap_alloc@V?$allocator@M@std@@@std@@QEAAXPEAM_K@Z ; std::_Wrap_alloc<std::allocator<float> >::deallocate
PUBLIC	??0?$_Vector_alloc@U?$_Vec_base_types@MV?$allocator@M@std@@@std@@@std@@QEAA@XZ ; std::_Vector_alloc<std::_Vec_base_types<float,std::allocator<float> > >::_Vector_alloc<std::_Vec_base_types<float,std::allocator<float> > >
PUBLIC	??1?$_Vector_alloc@U?$_Vec_base_types@MV?$allocator@M@std@@@std@@@std@@QEAA@XZ ; std::_Vector_alloc<std::_Vec_base_types<float,std::allocator<float> > >::~_Vector_alloc<std::_Vec_base_types<float,std::allocator<float> > >
PUBLIC	?_Alloc_proxy@?$_Vector_alloc@U?$_Vec_base_types@MV?$allocator@M@std@@@std@@@std@@QEAAXXZ ; std::_Vector_alloc<std::_Vec_base_types<float,std::allocator<float> > >::_Alloc_proxy
PUBLIC	?_Free_proxy@?$_Vector_alloc@U?$_Vec_base_types@MV?$allocator@M@std@@@std@@@std@@QEAAXXZ ; std::_Vector_alloc<std::_Vec_base_types<float,std::allocator<float> > >::_Free_proxy
PUBLIC	?_Myproxy@?$_Vector_alloc@U?$_Vec_base_types@MV?$allocator@M@std@@@std@@@std@@QEAAAEAPEAU_Container_proxy@2@XZ ; std::_Vector_alloc<std::_Vec_base_types<float,std::allocator<float> > >::_Myproxy
PUBLIC	?_Orphan_all@?$_Vector_alloc@U?$_Vec_base_types@MV?$allocator@M@std@@@std@@@std@@QEAAXXZ ; std::_Vector_alloc<std::_Vec_base_types<float,std::allocator<float> > >::_Orphan_all
PUBLIC	?_Getal@?$_Vector_alloc@U?$_Vec_base_types@MV?$allocator@M@std@@@std@@@std@@QEAAAEAU?$_Wrap_alloc@V?$allocator@M@std@@@2@XZ ; std::_Vector_alloc<std::_Vec_base_types<float,std::allocator<float> > >::_Getal
PUBLIC	?_Get_data@?$_Vector_alloc@U?$_Vec_base_types@MV?$allocator@M@std@@@std@@@std@@QEAAAEAV?$_Vector_val@U?$_Simple_types@M@std@@@2@XZ ; std::_Vector_alloc<std::_Vec_base_types<float,std::allocator<float> > >::_Get_data
PUBLIC	?_Get_data@?$_Vector_alloc@U?$_Vec_base_types@MV?$allocator@M@std@@@std@@@std@@QEBAAEBV?$_Vector_val@U?$_Simple_types@M@std@@@2@XZ ; std::_Vector_alloc<std::_Vec_base_types<float,std::allocator<float> > >::_Get_data
PUBLIC	?_Myfirst@?$_Vector_alloc@U?$_Vec_base_types@MV?$allocator@M@std@@@std@@@std@@QEAAAEAPEAMXZ ; std::_Vector_alloc<std::_Vec_base_types<float,std::allocator<float> > >::_Myfirst
PUBLIC	?_Myfirst@?$_Vector_alloc@U?$_Vec_base_types@MV?$allocator@M@std@@@std@@@std@@QEBAAEBQEAMXZ ; std::_Vector_alloc<std::_Vec_base_types<float,std::allocator<float> > >::_Myfirst
PUBLIC	?_Mylast@?$_Vector_alloc@U?$_Vec_base_types@MV?$allocator@M@std@@@std@@@std@@QEAAAEAPEAMXZ ; std::_Vector_alloc<std::_Vec_base_types<float,std::allocator<float> > >::_Mylast
PUBLIC	?_Mylast@?$_Vector_alloc@U?$_Vec_base_types@MV?$allocator@M@std@@@std@@@std@@QEBAAEBQEAMXZ ; std::_Vector_alloc<std::_Vec_base_types<float,std::allocator<float> > >::_Mylast
PUBLIC	?_Myend@?$_Vector_alloc@U?$_Vec_base_types@MV?$allocator@M@std@@@std@@@std@@QEAAAEAPEAMXZ ; std::_Vector_alloc<std::_Vec_base_types<float,std::allocator<float> > >::_Myend
PUBLIC	??0?$_Vector_val@U?$_Simple_types@M@std@@@std@@QEAA@XZ ; std::_Vector_val<std::_Simple_types<float> >::_Vector_val<std::_Simple_types<float> >
PUBLIC	??1?$_Vector_val@U?$_Simple_types@M@std@@@std@@QEAA@XZ ; std::_Vector_val<std::_Simple_types<float> >::~_Vector_val<std::_Simple_types<float> >
PUBLIC	?_Get_first@?$_Compressed_pair@U?$_Wrap_alloc@V?$allocator@M@std@@@std@@V?$_Vector_val@U?$_Simple_types@M@std@@@2@$00@std@@QEAAAEAU?$_Wrap_alloc@V?$allocator@M@std@@@2@XZ ; std::_Compressed_pair<std::_Wrap_alloc<std::allocator<float> >,std::_Vector_val<std::_Simple_types<float> >,1>::_Get_first
PUBLIC	?_Get_second@?$_Compressed_pair@U?$_Wrap_alloc@V?$allocator@M@std@@@std@@V?$_Vector_val@U?$_Simple_types@M@std@@@2@$00@std@@QEAAAEAV?$_Vector_val@U?$_Simple_types@M@std@@@2@XZ ; std::_Compressed_pair<std::_Wrap_alloc<std::allocator<float> >,std::_Vector_val<std::_Simple_types<float> >,1>::_Get_second
PUBLIC	?_Get_second@?$_Compressed_pair@U?$_Wrap_alloc@V?$allocator@M@std@@@std@@V?$_Vector_val@U?$_Simple_types@M@std@@@2@$00@std@@QEBAAEBV?$_Vector_val@U?$_Simple_types@M@std@@@2@XZ ; std::_Compressed_pair<std::_Wrap_alloc<std::allocator<float> >,std::_Vector_val<std::_Simple_types<float> >,1>::_Get_second
PUBLIC	??1?$_Compressed_pair@U?$_Wrap_alloc@V?$allocator@M@std@@@std@@V?$_Vector_val@U?$_Simple_types@M@std@@@2@$00@std@@QEAA@XZ ; std::_Compressed_pair<std::_Wrap_alloc<std::allocator<float> >,std::_Vector_val<std::_Simple_types<float> >,1>::~_Compressed_pair<std::_Wrap_alloc<std::allocator<float> >,std::_Vector_val<std::_Simple_types<float> >,1>
PUBLIC	??0?$vector@MV?$allocator@M@std@@@std@@QEAA@XZ	; std::vector<float,std::allocator<float> >::vector<float,std::allocator<float> >
PUBLIC	??1?$vector@MV?$allocator@M@std@@@std@@QEAA@XZ	; std::vector<float,std::allocator<float> >::~vector<float,std::allocator<float> >
PUBLIC	?size@?$vector@MV?$allocator@M@std@@@std@@QEBA_KXZ ; std::vector<float,std::allocator<float> >::size
PUBLIC	??A?$vector@MV?$allocator@M@std@@@std@@QEAAAEAM_K@Z ; std::vector<float,std::allocator<float> >::operator[]
PUBLIC	?_Destroy@?$vector@MV?$allocator@M@std@@@std@@IEAAXPEAM0@Z ; std::vector<float,std::allocator<float> >::_Destroy
PUBLIC	?_Tidy@?$vector@MV?$allocator@M@std@@@std@@IEAAXXZ ; std::vector<float,std::allocator<float> >::_Tidy
PUBLIC	?update@TileRow@@QEAAXXZ			; TileRow::update
PUBLIC	??1TileRow@@QEAA@XZ				; TileRow::~TileRow
PUBLIC	??_GTileRow@@QEAAPEAXI@Z			; TileRow::`scalar deleting destructor'
PUBLIC	??0TilePattern@@QEAA@XZ				; TilePattern::TilePattern
PUBLIC	??1TilePattern@@QEAA@XZ				; TilePattern::~TilePattern
PUBLIC	??0?$allocator@VTileRow@@@std@@QEAA@XZ		; std::allocator<TileRow>::allocator<TileRow>
PUBLIC	?deallocate@?$allocator@VTileRow@@@std@@QEAAXPEAVTileRow@@_K@Z ; std::allocator<TileRow>::deallocate
PUBLIC	??0?$_Wrap_alloc@V?$allocator@VTileRow@@@std@@@std@@QEAA@XZ ; std::_Wrap_alloc<std::allocator<TileRow> >::_Wrap_alloc<std::allocator<TileRow> >
PUBLIC	?deallocate@?$_Wrap_alloc@V?$allocator@VTileRow@@@std@@@std@@QEAAXPEAVTileRow@@_K@Z ; std::_Wrap_alloc<std::allocator<TileRow> >::deallocate
PUBLIC	??0?$_Vector_alloc@U?$_Vec_base_types@VTileRow@@V?$allocator@VTileRow@@@std@@@std@@@std@@QEAA@XZ ; std::_Vector_alloc<std::_Vec_base_types<TileRow,std::allocator<TileRow> > >::_Vector_alloc<std::_Vec_base_types<TileRow,std::allocator<TileRow> > >
PUBLIC	??1?$_Vector_alloc@U?$_Vec_base_types@VTileRow@@V?$allocator@VTileRow@@@std@@@std@@@std@@QEAA@XZ ; std::_Vector_alloc<std::_Vec_base_types<TileRow,std::allocator<TileRow> > >::~_Vector_alloc<std::_Vec_base_types<TileRow,std::allocator<TileRow> > >
PUBLIC	?_Alloc_proxy@?$_Vector_alloc@U?$_Vec_base_types@VTileRow@@V?$allocator@VTileRow@@@std@@@std@@@std@@QEAAXXZ ; std::_Vector_alloc<std::_Vec_base_types<TileRow,std::allocator<TileRow> > >::_Alloc_proxy
PUBLIC	?_Free_proxy@?$_Vector_alloc@U?$_Vec_base_types@VTileRow@@V?$allocator@VTileRow@@@std@@@std@@@std@@QEAAXXZ ; std::_Vector_alloc<std::_Vec_base_types<TileRow,std::allocator<TileRow> > >::_Free_proxy
PUBLIC	?_Myproxy@?$_Vector_alloc@U?$_Vec_base_types@VTileRow@@V?$allocator@VTileRow@@@std@@@std@@@std@@QEAAAEAPEAU_Container_proxy@2@XZ ; std::_Vector_alloc<std::_Vec_base_types<TileRow,std::allocator<TileRow> > >::_Myproxy
PUBLIC	?_Orphan_all@?$_Vector_alloc@U?$_Vec_base_types@VTileRow@@V?$allocator@VTileRow@@@std@@@std@@@std@@QEAAXXZ ; std::_Vector_alloc<std::_Vec_base_types<TileRow,std::allocator<TileRow> > >::_Orphan_all
PUBLIC	?_Getal@?$_Vector_alloc@U?$_Vec_base_types@VTileRow@@V?$allocator@VTileRow@@@std@@@std@@@std@@QEAAAEAU?$_Wrap_alloc@V?$allocator@VTileRow@@@std@@@2@XZ ; std::_Vector_alloc<std::_Vec_base_types<TileRow,std::allocator<TileRow> > >::_Getal
PUBLIC	?_Get_data@?$_Vector_alloc@U?$_Vec_base_types@VTileRow@@V?$allocator@VTileRow@@@std@@@std@@@std@@QEAAAEAV?$_Vector_val@U?$_Simple_types@VTileRow@@@std@@@2@XZ ; std::_Vector_alloc<std::_Vec_base_types<TileRow,std::allocator<TileRow> > >::_Get_data
PUBLIC	?_Get_data@?$_Vector_alloc@U?$_Vec_base_types@VTileRow@@V?$allocator@VTileRow@@@std@@@std@@@std@@QEBAAEBV?$_Vector_val@U?$_Simple_types@VTileRow@@@std@@@2@XZ ; std::_Vector_alloc<std::_Vec_base_types<TileRow,std::allocator<TileRow> > >::_Get_data
PUBLIC	?_Myfirst@?$_Vector_alloc@U?$_Vec_base_types@VTileRow@@V?$allocator@VTileRow@@@std@@@std@@@std@@QEAAAEAPEAVTileRow@@XZ ; std::_Vector_alloc<std::_Vec_base_types<TileRow,std::allocator<TileRow> > >::_Myfirst
PUBLIC	?_Myfirst@?$_Vector_alloc@U?$_Vec_base_types@VTileRow@@V?$allocator@VTileRow@@@std@@@std@@@std@@QEBAAEBQEAVTileRow@@XZ ; std::_Vector_alloc<std::_Vec_base_types<TileRow,std::allocator<TileRow> > >::_Myfirst
PUBLIC	?_Mylast@?$_Vector_alloc@U?$_Vec_base_types@VTileRow@@V?$allocator@VTileRow@@@std@@@std@@@std@@QEAAAEAPEAVTileRow@@XZ ; std::_Vector_alloc<std::_Vec_base_types<TileRow,std::allocator<TileRow> > >::_Mylast
PUBLIC	?_Mylast@?$_Vector_alloc@U?$_Vec_base_types@VTileRow@@V?$allocator@VTileRow@@@std@@@std@@@std@@QEBAAEBQEAVTileRow@@XZ ; std::_Vector_alloc<std::_Vec_base_types<TileRow,std::allocator<TileRow> > >::_Mylast
PUBLIC	?_Myend@?$_Vector_alloc@U?$_Vec_base_types@VTileRow@@V?$allocator@VTileRow@@@std@@@std@@@std@@QEAAAEAPEAVTileRow@@XZ ; std::_Vector_alloc<std::_Vec_base_types<TileRow,std::allocator<TileRow> > >::_Myend
PUBLIC	??0?$_Vector_val@U?$_Simple_types@VTileRow@@@std@@@std@@QEAA@XZ ; std::_Vector_val<std::_Simple_types<TileRow> >::_Vector_val<std::_Simple_types<TileRow> >
PUBLIC	??1?$_Vector_val@U?$_Simple_types@VTileRow@@@std@@@std@@QEAA@XZ ; std::_Vector_val<std::_Simple_types<TileRow> >::~_Vector_val<std::_Simple_types<TileRow> >
PUBLIC	?_Get_first@?$_Compressed_pair@U?$_Wrap_alloc@V?$allocator@VTileRow@@@std@@@std@@V?$_Vector_val@U?$_Simple_types@VTileRow@@@std@@@2@$00@std@@QEAAAEAU?$_Wrap_alloc@V?$allocator@VTileRow@@@std@@@2@XZ ; std::_Compressed_pair<std::_Wrap_alloc<std::allocator<TileRow> >,std::_Vector_val<std::_Simple_types<TileRow> >,1>::_Get_first
PUBLIC	?_Get_second@?$_Compressed_pair@U?$_Wrap_alloc@V?$allocator@VTileRow@@@std@@@std@@V?$_Vector_val@U?$_Simple_types@VTileRow@@@std@@@2@$00@std@@QEAAAEAV?$_Vector_val@U?$_Simple_types@VTileRow@@@std@@@2@XZ ; std::_Compressed_pair<std::_Wrap_alloc<std::allocator<TileRow> >,std::_Vector_val<std::_Simple_types<TileRow> >,1>::_Get_second
PUBLIC	?_Get_second@?$_Compressed_pair@U?$_Wrap_alloc@V?$allocator@VTileRow@@@std@@@std@@V?$_Vector_val@U?$_Simple_types@VTileRow@@@std@@@2@$00@std@@QEBAAEBV?$_Vector_val@U?$_Simple_types@VTileRow@@@std@@@2@XZ ; std::_Compressed_pair<std::_Wrap_alloc<std::allocator<TileRow> >,std::_Vector_val<std::_Simple_types<TileRow> >,1>::_Get_second
PUBLIC	??1?$_Compressed_pair@U?$_Wrap_alloc@V?$allocator@VTileRow@@@std@@@std@@V?$_Vector_val@U?$_Simple_types@VTileRow@@@std@@@2@$00@std@@QEAA@XZ ; std::_Compressed_pair<std::_Wrap_alloc<std::allocator<TileRow> >,std::_Vector_val<std::_Simple_types<TileRow> >,1>::~_Compressed_pair<std::_Wrap_alloc<std::allocator<TileRow> >,std::_Vector_val<std::_Simple_types<TileRow> >,1>
PUBLIC	??0?$vector@VTileRow@@V?$allocator@VTileRow@@@std@@@std@@QEAA@XZ ; std::vector<TileRow,std::allocator<TileRow> >::vector<TileRow,std::allocator<TileRow> >
PUBLIC	??1?$vector@VTileRow@@V?$allocator@VTileRow@@@std@@@std@@QEAA@XZ ; std::vector<TileRow,std::allocator<TileRow> >::~vector<TileRow,std::allocator<TileRow> >
PUBLIC	?size@?$vector@VTileRow@@V?$allocator@VTileRow@@@std@@@std@@QEBA_KXZ ; std::vector<TileRow,std::allocator<TileRow> >::size
PUBLIC	??A?$vector@VTileRow@@V?$allocator@VTileRow@@@std@@@std@@QEAAAEAVTileRow@@_K@Z ; std::vector<TileRow,std::allocator<TileRow> >::operator[]
PUBLIC	?_Destroy@?$vector@VTileRow@@V?$allocator@VTileRow@@@std@@@std@@IEAAXPEAVTileRow@@0@Z ; std::vector<TileRow,std::allocator<TileRow> >::_Destroy
PUBLIC	?_Tidy@?$vector@VTileRow@@V?$allocator@VTileRow@@@std@@@std@@IEAAXXZ ; std::vector<TileRow,std::allocator<TileRow> >::_Tidy
PUBLIC	?update@TilePattern@@QEAAXXZ			; TilePattern::update
PUBLIC	??0TileParam@@QEAA@XZ				; TileParam::TileParam
PUBLIC	?checkValues@TileParam@@QEAAXXZ			; TileParam::checkValues
PUBLIC	?__autoclassinit2@TileParam@@QEAAX_K@Z		; TileParam::__autoclassinit2
PUBLIC	?EvalParameters@BerconTile@@QEAA?AVTileParam@@AEAVShadeContext@@@Z ; BerconTile::EvalParameters
PUBLIC	?getDistVector@BerconTile@@QEAA?AVPoint3@@AEAVShadeContext@@@Z ; BerconTile::getDistVector
PUBLIC	?EnableStuff@BerconTile@@QEAAXH@Z		; BerconTile::EnableStuff
PUBLIC	?getColor@BerconTile@@QEAA?AVAColor@@AEAVShadeContext@@H@Z ; BerconTile::getColor
PUBLIC	?getFloat@BerconTile@@QEAAMAEAVShadeContext@@H@Z ; BerconTile::getFloat
PUBLIC	?getNormal@BerconTile@@QEAA?AVPoint3@@AEAVShadeContext@@H@Z ; BerconTile::getNormal
PUBLIC	?DiscardTexHandle@BerconTile@@QEAAXXZ		; BerconTile::DiscardTexHandle
PUBLIC	?SupportTexDisplay@BerconTile@@UEAAHXZ		; BerconTile::SupportTexDisplay
PUBLIC	?ActivateTexDisplay@BerconTile@@UEAAXH@Z	; BerconTile::ActivateTexDisplay
PUBLIC	?GetActiveTexHandle@BerconTile@@UEAA_KHAEAVTexHandleMaker@@@Z ; BerconTile::GetActiveTexHandle
PUBLIC	?CreateParamDlg@BerconTile@@UEAAPEAVParamDlg@@PEAUHWND__@@PEAVIMtlParams@@@Z ; BerconTile::CreateParamDlg
PUBLIC	?SetDlgThing@BerconTile@@UEAAHPEAVParamDlg@@@Z	; BerconTile::SetDlgThing
PUBLIC	?Update@BerconTile@@UEAAXHAEAVInterval@@@Z	; BerconTile::Update
PUBLIC	?Reset@BerconTile@@UEAAXXZ			; BerconTile::Reset
PUBLIC	?Validity@BerconTile@@UEAA?AVInterval@@H@Z	; BerconTile::Validity
PUBLIC	?LocalRequirements@BerconTile@@UEAAKH@Z		; BerconTile::LocalRequirements
PUBLIC	?MappingsRequired@BerconTile@@UEAAXHAEAVBitArray@@0@Z ; BerconTile::MappingsRequired
PUBLIC	?NumSubTexmaps@BerconTile@@UEAAHXZ		; BerconTile::NumSubTexmaps
PUBLIC	?GetSubTexmap@BerconTile@@UEAAPEAVTexmap@@H@Z	; BerconTile::GetSubTexmap
PUBLIC	?SetSubTexmap@BerconTile@@UEAAXHPEAVTexmap@@@Z	; BerconTile::SetSubTexmap
PUBLIC	?GetSubTexmapSlotName@BerconTile@@UEAA?AVWStr@@H@Z ; BerconTile::GetSubTexmapSlotName
PUBLIC	?EvalColor@BerconTile@@UEAA?AVAColor@@AEAVShadeContext@@@Z ; BerconTile::EvalColor
PUBLIC	?EvalMono@BerconTile@@UEAAMAEAVShadeContext@@@Z	; BerconTile::EvalMono
PUBLIC	?EvalNormalPerturb@BerconTile@@UEAA?AVPoint3@@AEAVShadeContext@@@Z ; BerconTile::EvalNormalPerturb
PUBLIC	?SubNumToRefNum@BerconTile@@UEAAHH@Z		; BerconTile::SubNumToRefNum
PUBLIC	?ClassID@BerconTile@@UEAA?AVClass_ID@@XZ	; BerconTile::ClassID
PUBLIC	?SuperClassID@BerconTile@@UEAAKXZ		; BerconTile::SuperClassID
PUBLIC	?GetClassName@BerconTile@@UEAAXAEAVWStr@@@Z	; BerconTile::GetClassName
PUBLIC	?Clone@BerconTile@@UEAAPEAVReferenceTarget@@AEAVRemapDir@@@Z ; BerconTile::Clone
PUBLIC	?NotifyRefChanged@BerconTile@@UEAA?AW4RefResult@@AEBVInterval@@PEAVReferenceTarget@@AEA_KIH@Z ; BerconTile::NotifyRefChanged
PUBLIC	?NumSubs@BerconTile@@UEAAHXZ			; BerconTile::NumSubs
PUBLIC	?SubAnim@BerconTile@@UEAAPEAVAnimatable@@H@Z	; BerconTile::SubAnim
PUBLIC	?SubAnimName@BerconTile@@UEAA?AVWStr@@H@Z	; BerconTile::SubAnimName
PUBLIC	?NumRefs@BerconTile@@UEAAHXZ			; BerconTile::NumRefs
PUBLIC	?GetReference@BerconTile@@UEAAPEAVReferenceTarget@@H@Z ; BerconTile::GetReference
PUBLIC	?SetReference@BerconTile@@UEAAXHPEAVReferenceTarget@@@Z ; BerconTile::SetReference
PUBLIC	?NumParamBlocks@BerconTile@@UEAAHXZ		; BerconTile::NumParamBlocks
PUBLIC	?GetParamBlock@BerconTile@@UEAAPEAVIParamBlock2@@H@Z ; BerconTile::GetParamBlock
PUBLIC	?GetParamBlockByID@BerconTile@@UEAAPEAVIParamBlock2@@F@Z ; BerconTile::GetParamBlockByID
PUBLIC	?DeleteThis@BerconTile@@UEAAXXZ			; BerconTile::DeleteThis
PUBLIC	??0BerconTile@@QEAA@XZ				; BerconTile::BerconTile
PUBLIC	??1BerconTile@@UEAA@XZ				; BerconTile::~BerconTile
PUBLIC	?GetInterface@BerconTile@@UEAAPEAXK@Z		; BerconTile::GetInterface
PUBLIC	?__autoclassinit2@BerconTile@@QEAAX_K@Z		; BerconTile::__autoclassinit2
PUBLIC	??_GBerconTile@@UEAAPEAXI@Z			; BerconTile::`scalar deleting destructor'
PUBLIC	??0BerconTileClassDesc@@QEAA@XZ			; BerconTileClassDesc::BerconTileClassDesc
PUBLIC	??1BerconTileClassDesc@@UEAA@XZ			; BerconTileClassDesc::~BerconTileClassDesc
PUBLIC	?IsPublic@BerconTileClassDesc@@UEAAHXZ		; BerconTileClassDesc::IsPublic
PUBLIC	?Create@BerconTileClassDesc@@UEAAPEAXH@Z	; BerconTileClassDesc::Create
PUBLIC	?ClassName@BerconTileClassDesc@@UEAAPEB_WXZ	; BerconTileClassDesc::ClassName
PUBLIC	?SuperClassID@BerconTileClassDesc@@UEAAKXZ	; BerconTileClassDesc::SuperClassID
PUBLIC	?ClassID@BerconTileClassDesc@@UEAA?AVClass_ID@@XZ ; BerconTileClassDesc::ClassID
PUBLIC	?Category@BerconTileClassDesc@@UEAAPEB_WXZ	; BerconTileClassDesc::Category
PUBLIC	?InternalName@BerconTileClassDesc@@UEAAPEB_WXZ	; BerconTileClassDesc::InternalName
PUBLIC	?HInstance@BerconTileClassDesc@@UEAAPEAUHINSTANCE__@@XZ ; BerconTileClassDesc::HInstance
PUBLIC	?__autoclassinit2@BerconTileClassDesc@@QEAAX_K@Z ; BerconTileClassDesc::__autoclassinit2
PUBLIC	??_GBerconTileClassDesc@@UEAAPEAXI@Z		; BerconTileClassDesc::`scalar deleting destructor'
PUBLIC	??0BerconSC@@QEAA@QEAVShadeContext@@@Z		; BerconSC::BerconSC
PUBLIC	?setUV1@BerconSC@@QEAAXVPoint3@@H@Z		; BerconSC::setUV1
PUBLIC	?setUV2@BerconSC@@QEAAXVPoint3@@H@Z		; BerconSC::setUV2
PUBLIC	?setMultiTexture@BerconSC@@QEAAXM@Z		; BerconSC::setMultiTexture
PUBLIC	?ClassID@BerconSC@@UEAA?AVClass_ID@@XZ		; BerconSC::ClassID
PUBLIC	?InMtlEditor@BerconSC@@UEAAHXZ			; BerconSC::InMtlEditor
PUBLIC	?Antialias@BerconSC@@UEAAHXZ			; BerconSC::Antialias
PUBLIC	?ProjType@BerconSC@@UEAAHXZ			; BerconSC::ProjType
PUBLIC	?Light@BerconSC@@UEAAPEAVLightDesc@@H@Z		; BerconSC::Light
PUBLIC	?CurTime@BerconSC@@UEAAHXZ			; BerconSC::CurTime
PUBLIC	?NodeID@BerconSC@@UEAAHXZ			; BerconSC::NodeID
PUBLIC	?Node@BerconSC@@UEAAPEAVINode@@XZ		; BerconSC::Node
PUBLIC	?GetEvalObject@BerconSC@@UEAAPEAVObject@@XZ	; BerconSC::GetEvalObject
PUBLIC	?BarycentricCoords@BerconSC@@UEAA?AVPoint3@@XZ	; BerconSC::BarycentricCoords
PUBLIC	?FaceNumber@BerconSC@@UEAAHXZ			; BerconSC::FaceNumber
PUBLIC	?Normal@BerconSC@@UEAA?AVPoint3@@XZ		; BerconSC::Normal
PUBLIC	?SetNormal@BerconSC@@UEAAXVPoint3@@@Z		; BerconSC::SetNormal
PUBLIC	?OrigNormal@BerconSC@@UEAA?AVPoint3@@XZ		; BerconSC::OrigNormal
PUBLIC	?GNormal@BerconSC@@UEAA?AVPoint3@@XZ		; BerconSC::GNormal
PUBLIC	?Curve@BerconSC@@UEAAMXZ			; BerconSC::Curve
PUBLIC	?V@BerconSC@@UEAA?AVPoint3@@XZ			; BerconSC::V
PUBLIC	?SetView@BerconSC@@UEAAXVPoint3@@@Z		; BerconSC::SetView
PUBLIC	?OrigView@BerconSC@@UEAA?AVPoint3@@XZ		; BerconSC::OrigView
PUBLIC	?ReflectVector@BerconSC@@UEAA?AVPoint3@@XZ	; BerconSC::ReflectVector
PUBLIC	?RefractVector@BerconSC@@UEAA?AVPoint3@@M@Z	; BerconSC::RefractVector
PUBLIC	?SetIOR@BerconSC@@UEAAXM@Z			; BerconSC::SetIOR
PUBLIC	?GetIOR@BerconSC@@UEAAMXZ			; BerconSC::GetIOR
PUBLIC	?CamPos@BerconSC@@UEAA?AVPoint3@@XZ		; BerconSC::CamPos
PUBLIC	?P@BerconSC@@UEAA?AVPoint3@@XZ			; BerconSC::P
PUBLIC	?DP@BerconSC@@UEAA?AVPoint3@@XZ			; BerconSC::DP
PUBLIC	?DP@BerconSC@@UEAAXAEAVPoint3@@0@Z		; BerconSC::DP
PUBLIC	?PObj@BerconSC@@UEAA?AVPoint3@@XZ		; BerconSC::PObj
PUBLIC	?DPObj@BerconSC@@UEAA?AVPoint3@@XZ		; BerconSC::DPObj
PUBLIC	?ObjectBox@BerconSC@@UEAA?AVBox3@@XZ		; BerconSC::ObjectBox
PUBLIC	?PObjRelBox@BerconSC@@UEAA?AVPoint3@@XZ		; BerconSC::PObjRelBox
PUBLIC	?DPObjRelBox@BerconSC@@UEAA?AVPoint3@@XZ	; BerconSC::DPObjRelBox
PUBLIC	?ScreenUV@BerconSC@@UEAAXAEAVPoint2@@0@Z	; BerconSC::ScreenUV
PUBLIC	?ScreenCoord@BerconSC@@UEAA?AVIPoint2@@XZ	; BerconSC::ScreenCoord
PUBLIC	?SurfacePtScreen@BerconSC@@UEAA?AVPoint2@@XZ	; BerconSC::SurfacePtScreen
PUBLIC	?UVW@BerconSC@@UEAA?AVPoint3@@H@Z		; BerconSC::UVW
PUBLIC	?DUVW@BerconSC@@UEAA?AVPoint3@@H@Z		; BerconSC::DUVW
PUBLIC	?DPdUVW@BerconSC@@UEAAXQEAVPoint3@@H@Z		; BerconSC::DPdUVW
PUBLIC	?BumpBasisVectors@BerconSC@@UEAAHQEAVPoint3@@HH@Z ; BerconSC::BumpBasisVectors
PUBLIC	?IsSuperSampleOn@BerconSC@@UEAAHXZ		; BerconSC::IsSuperSampleOn
PUBLIC	?IsTextureSuperSampleOn@BerconSC@@UEAAHXZ	; BerconSC::IsTextureSuperSampleOn
PUBLIC	?GetNSuperSample@BerconSC@@UEAAHXZ		; BerconSC::GetNSuperSample
PUBLIC	?GetSampleSizeScale@BerconSC@@UEAAMXZ		; BerconSC::GetSampleSizeScale
PUBLIC	?UVWNormal@BerconSC@@UEAA?AVPoint3@@H@Z		; BerconSC::UVWNormal
PUBLIC	?RayDiam@BerconSC@@UEAAMXZ			; BerconSC::RayDiam
PUBLIC	?RayConeAngle@BerconSC@@UEAAMXZ			; BerconSC::RayConeAngle
PUBLIC	?EvalEnvironMap@BerconSC@@UEAA?AVAColor@@PEAVTexmap@@VPoint3@@@Z ; BerconSC::EvalEnvironMap
PUBLIC	?GetBGColor@BerconSC@@UEAAXAEAVColor@@0H@Z	; BerconSC::GetBGColor
PUBLIC	?CamNearRange@BerconSC@@UEAAMXZ			; BerconSC::CamNearRange
PUBLIC	?CamFarRange@BerconSC@@UEAAMXZ			; BerconSC::CamFarRange
PUBLIC	?PointTo@BerconSC@@UEAA?AVPoint3@@AEBV2@W4RefFrame@@@Z ; BerconSC::PointTo
PUBLIC	?PointFrom@BerconSC@@UEAA?AVPoint3@@AEBV2@W4RefFrame@@@Z ; BerconSC::PointFrom
PUBLIC	?VectorTo@BerconSC@@UEAA?AVPoint3@@AEBV2@W4RefFrame@@@Z ; BerconSC::VectorTo
PUBLIC	?VectorFrom@BerconSC@@UEAA?AVPoint3@@AEBV2@W4RefFrame@@@Z ; BerconSC::VectorFrom
PUBLIC	?VectorToNoScale@BerconSC@@UEAA?AVPoint3@@AEBV2@W4RefFrame@@@Z ; BerconSC::VectorToNoScale
PUBLIC	?VectorFromNoScale@BerconSC@@UEAA?AVPoint3@@AEBV2@W4RefFrame@@@Z ; BerconSC::VectorFromNoScale
PUBLIC	?SetGBufferID@BerconSC@@UEAAXH@Z		; BerconSC::SetGBufferID
PUBLIC	?DebugFile@BerconSC@@UEAAPEAU_iobuf@@XZ		; BerconSC::DebugFile
PUBLIC	?EvalGlobalEnvironMap@BerconSC@@UEAA?AVAColor@@VPoint3@@@Z ; BerconSC::EvalGlobalEnvironMap
PUBLIC	?GetCache@BerconSC@@UEAAHPEAVTexmap@@AEAVAColor@@@Z ; BerconSC::GetCache
PUBLIC	?GetCache@BerconSC@@UEAAHPEAVTexmap@@AEAM@Z	; BerconSC::GetCache
PUBLIC	?GetCache@BerconSC@@UEAAHPEAVTexmap@@AEAVPoint3@@@Z ; BerconSC::GetCache
PUBLIC	?PutCache@BerconSC@@UEAAXPEAVTexmap@@AEBVAColor@@@Z ; BerconSC::PutCache
PUBLIC	?PutCache@BerconSC@@UEAAXPEAVTexmap@@M@Z	; BerconSC::PutCache
PUBLIC	?PutCache@BerconSC@@UEAAXPEAVTexmap@@AEBVPoint3@@@Z ; BerconSC::PutCache
PUBLIC	?TossCache@BerconSC@@UEAAXPEAVTexmap@@@Z	; BerconSC::TossCache
PUBLIC	?Execute@BerconSC@@UEAA_JH_K00@Z		; BerconSC::Execute
PUBLIC	?NRenderElements@BerconSC@@UEAAHXZ		; BerconSC::NRenderElements
PUBLIC	?GetRenderElement@BerconSC@@UEAAPEAVIRenderElement@@H@Z ; BerconSC::GetRenderElement
PUBLIC	?DiffuseIllum@BerconSC@@UEAA?AVColor@@XZ	; BerconSC::DiffuseIllum
PUBLIC	??1BerconSC@@UEAA@XZ				; BerconSC::~BerconSC
PUBLIC	?__autoclassinit2@BerconSC@@QEAAX_K@Z		; BerconSC::__autoclassinit2
PUBLIC	??_GBerconSC@@UEAAPEAXI@Z			; BerconSC::`scalar deleting destructor'
PUBLIC	?GetBerconTileDesc@@YAPEAVClassDesc2@@XZ	; GetBerconTileDesc
PUBLIC	??0BerconTileDlgProc@@QEAA@PEAVBerconTile@@@Z	; BerconTileDlgProc::BerconTileDlgProc
PUBLIC	?DlgProc@BerconTileDlgProc@@UEAA_JHPEAVIParamMap2@@PEAUHWND__@@I_K_J@Z ; BerconTileDlgProc::DlgProc
PUBLIC	?DeleteThis@BerconTileDlgProc@@UEAAXXZ		; BerconTileDlgProc::DeleteThis
PUBLIC	?SetThing@BerconTileDlgProc@@UEAAXPEAVReferenceTarget@@@Z ; BerconTileDlgProc::SetThing
PUBLIC	??1BerconTileDlgProc@@UEAA@XZ			; BerconTileDlgProc::~BerconTileDlgProc
PUBLIC	?__autoclassinit2@BerconTileDlgProc@@QEAAX_K@Z	; BerconTileDlgProc::__autoclassinit2
PUBLIC	??_GBerconTileDlgProc@@UEAAPEAXI@Z		; BerconTileDlgProc::`scalar deleting destructor'
PUBLIC	??$?0$$V@?$_Compressed_pair@U?$_Wrap_alloc@V?$allocator@VTileRow@@@std@@@std@@V?$_Vector_val@U?$_Simple_types@VTileRow@@@std@@@2@$00@std@@QEAA@U_Zero_then_variadic_args_t@1@@Z ; std::_Compressed_pair<std::_Wrap_alloc<std::allocator<TileRow> >,std::_Vector_val<std::_Simple_types<TileRow> >,1>::_Compressed_pair<std::_Wrap_alloc<std::allocator<TileRow> >,std::_Vector_val<std::_Simple_types<TileRow> >,1><>
PUBLIC	??$?0$$V@?$_Compressed_pair@U?$_Wrap_alloc@V?$allocator@M@std@@@std@@V?$_Vector_val@U?$_Simple_types@M@std@@@2@$00@std@@QEAA@U_Zero_then_variadic_args_t@1@@Z ; std::_Compressed_pair<std::_Wrap_alloc<std::allocator<float> >,std::_Vector_val<std::_Simple_types<float> >,1>::_Compressed_pair<std::_Wrap_alloc<std::allocator<float> >,std::_Vector_val<std::_Simple_types<float> >,1><>
PUBLIC	??$?0$$V@?$_Compressed_pair@U?$_Wrap_alloc@V?$allocator@_W@std@@@std@@V?$_String_val@U?$_Simple_types@_W@std@@@2@$00@std@@QEAA@U_Zero_then_variadic_args_t@1@@Z ; std::_Compressed_pair<std::_Wrap_alloc<std::allocator<wchar_t> >,std::_String_val<std::_Simple_types<wchar_t> >,1>::_Compressed_pair<std::_Wrap_alloc<std::allocator<wchar_t> >,std::_String_val<std::_Simple_types<wchar_t> >,1><>
PUBLIC	??$addressof@PEA_W@std@@YAPEAPEA_WAEAPEA_W@Z	; std::addressof<wchar_t * __ptr64>
PUBLIC	??$destroy@PEA_W@?$_Wrap_alloc@V?$allocator@_W@std@@@std@@QEAAXPEAPEA_W@Z ; std::_Wrap_alloc<std::allocator<wchar_t> >::destroy<wchar_t * __ptr64>
PUBLIC	??$_Unfancy@_W@std@@YAPEA_WPEA_W@Z		; std::_Unfancy<wchar_t>
PUBLIC	??$_Debug_pointer@$$CB_W@std@@YAXPEB_W0I@Z	; std::_Debug_pointer<wchar_t const >
PUBLIC	??$_Debug_pointer_if@$$CB_W@std@@YAX_NPEB_W1I@Z	; std::_Debug_pointer_if<wchar_t const >
PUBLIC	?deallocate@?$allocator@U_Container_proxy@std@@@std@@QEAAXPEAU_Container_proxy@2@_K@Z ; std::allocator<std::_Container_proxy>::deallocate
PUBLIC	?allocate@?$allocator@U_Container_proxy@std@@@std@@QEAAPEAU_Container_proxy@2@_K@Z ; std::allocator<std::_Container_proxy>::allocate
PUBLIC	?address@?$_Wrap_alloc@V?$allocator@U_Container_proxy@std@@@std@@@std@@QEBAPEAU_Container_proxy@2@AEAU32@@Z ; std::_Wrap_alloc<std::allocator<std::_Container_proxy> >::address
PUBLIC	?allocate@?$_Wrap_alloc@V?$allocator@U_Container_proxy@std@@@std@@@std@@QEAAPEAU_Container_proxy@2@_K@Z ; std::_Wrap_alloc<std::allocator<std::_Container_proxy> >::allocate
PUBLIC	?deallocate@?$_Wrap_alloc@V?$allocator@U_Container_proxy@std@@@std@@@std@@QEAAXPEAU_Container_proxy@2@_K@Z ; std::_Wrap_alloc<std::allocator<std::_Container_proxy> >::deallocate
PUBLIC	??$?0AEAU?$_Wrap_alloc@V?$allocator@VTileRow@@@std@@@std@@@?$_Wrap_alloc@V?$allocator@U_Container_proxy@std@@@std@@@std@@QEAA@AEAU?$_Wrap_alloc@V?$allocator@VTileRow@@@std@@@1@@Z ; std::_Wrap_alloc<std::allocator<std::_Container_proxy> >::_Wrap_alloc<std::allocator<std::_Container_proxy> ><std::_Wrap_alloc<std::allocator<TileRow> > & __ptr64>
PUBLIC	??$destroy@U_Container_proxy@std@@@?$_Wrap_alloc@V?$allocator@U_Container_proxy@std@@@std@@@std@@QEAAXPEAU_Container_proxy@1@@Z ; std::_Wrap_alloc<std::allocator<std::_Container_proxy> >::destroy<std::_Container_proxy>
PUBLIC	??$_Unfancy@U_Container_proxy@std@@@std@@YAPEAU_Container_proxy@0@PEAU10@@Z ; std::_Unfancy<std::_Container_proxy>
PUBLIC	??$construct@U_Container_proxy@std@@U12@@?$_Wrap_alloc@V?$allocator@U_Container_proxy@std@@@std@@@std@@QEAAXPEAU_Container_proxy@1@$$QEAU21@@Z ; std::_Wrap_alloc<std::allocator<std::_Container_proxy> >::construct<std::_Container_proxy,std::_Container_proxy>
PUBLIC	??$_Destroy_range@V?$allocator@VTileRow@@@std@@PEAVTileRow@@@std@@YAXPEAVTileRow@@0AEAU?$_Wrap_alloc@V?$allocator@VTileRow@@@std@@@0@@Z ; std::_Destroy_range<std::allocator<TileRow>,TileRow * __ptr64>
PUBLIC	??$?0AEAU?$_Wrap_alloc@V?$allocator@M@std@@@std@@@?$_Wrap_alloc@V?$allocator@U_Container_proxy@std@@@std@@@std@@QEAA@AEAU?$_Wrap_alloc@V?$allocator@M@std@@@1@@Z ; std::_Wrap_alloc<std::allocator<std::_Container_proxy> >::_Wrap_alloc<std::allocator<std::_Container_proxy> ><std::_Wrap_alloc<std::allocator<float> > & __ptr64>
PUBLIC	??$_Destroy_range@V?$allocator@M@std@@PEAM@std@@YAXPEAM0AEAU?$_Wrap_alloc@V?$allocator@M@std@@@0@@Z ; std::_Destroy_range<std::allocator<float>,float * __ptr64>
PUBLIC	??$?0AEAU?$_Wrap_alloc@V?$allocator@_W@std@@@std@@@?$_Wrap_alloc@V?$allocator@U_Container_proxy@std@@@std@@@std@@QEAA@AEAU?$_Wrap_alloc@V?$allocator@_W@std@@@1@@Z ; std::_Wrap_alloc<std::allocator<std::_Container_proxy> >::_Wrap_alloc<std::allocator<std::_Container_proxy> ><std::_Wrap_alloc<std::allocator<wchar_t> > & __ptr64>
PUBLIC	??$construct@PEA_WAEAPEA_W@?$_Wrap_alloc@V?$allocator@_W@std@@@std@@QEAAXPEAPEA_WAEAPEA_W@Z ; std::_Wrap_alloc<std::allocator<wchar_t> >::construct<wchar_t * __ptr64,wchar_t * __ptr64 & __ptr64>
PUBLIC	?pointer_to@?$pointer_traits@PEAU_Container_proxy@std@@@std@@SAPEAU_Container_proxy@2@AEAU32@@Z ; std::pointer_traits<std::_Container_proxy * __ptr64>::pointer_to
PUBLIC	??$addressof@U_Container_proxy@std@@@std@@YAPEAU_Container_proxy@0@AEAU10@@Z ; std::addressof<std::_Container_proxy>
PUBLIC	??$destroy@PEA_W@?$allocator_traits@V?$allocator@_W@std@@@std@@SAXAEAV?$allocator@_W@1@PEAPEA_W@Z ; std::allocator_traits<std::allocator<wchar_t> >::destroy<wchar_t * __ptr64>
PUBLIC	??$forward@AEAU?$_Wrap_alloc@V?$allocator@VTileRow@@@std@@@std@@@std@@YAAEAU?$_Wrap_alloc@V?$allocator@VTileRow@@@std@@@0@AEAU10@@Z ; std::forward<std::_Wrap_alloc<std::allocator<TileRow> > & __ptr64>
PUBLIC	??$?0VTileRow@@@?$allocator@U_Container_proxy@std@@@std@@QEAA@AEBV?$allocator@VTileRow@@@1@@Z ; std::allocator<std::_Container_proxy>::allocator<std::_Container_proxy><TileRow>
PUBLIC	??$destroy@U_Container_proxy@std@@@?$allocator_traits@V?$allocator@U_Container_proxy@std@@@std@@@std@@SAXAEAV?$allocator@U_Container_proxy@std@@@1@PEAU_Container_proxy@1@@Z ; std::allocator_traits<std::allocator<std::_Container_proxy> >::destroy<std::_Container_proxy>
PUBLIC	??$forward@U_Container_proxy@std@@@std@@YA$$QEAU_Container_proxy@0@AEAU10@@Z ; std::forward<std::_Container_proxy>
PUBLIC	??$construct@U_Container_proxy@std@@U12@@?$allocator_traits@V?$allocator@U_Container_proxy@std@@@std@@@std@@SAXAEAV?$allocator@U_Container_proxy@std@@@1@PEAU_Container_proxy@1@$$QEAU31@@Z ; std::allocator_traits<std::allocator<std::_Container_proxy> >::construct<std::_Container_proxy,std::_Container_proxy>
PUBLIC	??$_Destroy_range1@V?$allocator@VTileRow@@@std@@PEAVTileRow@@@std@@YAXPEAVTileRow@@0AEAU?$_Wrap_alloc@V?$allocator@VTileRow@@@std@@@0@U?$integral_constant@_N$0A@@0@@Z ; std::_Destroy_range1<std::allocator<TileRow>,TileRow * __ptr64>
PUBLIC	??$forward@AEAU?$_Wrap_alloc@V?$allocator@M@std@@@std@@@std@@YAAEAU?$_Wrap_alloc@V?$allocator@M@std@@@0@AEAU10@@Z ; std::forward<std::_Wrap_alloc<std::allocator<float> > & __ptr64>
PUBLIC	??$?0M@?$allocator@U_Container_proxy@std@@@std@@QEAA@AEBV?$allocator@M@1@@Z ; std::allocator<std::_Container_proxy>::allocator<std::_Container_proxy><float>
PUBLIC	??$_Destroy_range1@V?$allocator@M@std@@PEAM@std@@YAXPEAM0AEAU?$_Wrap_alloc@V?$allocator@M@std@@@0@U?$integral_constant@_N$00@0@@Z ; std::_Destroy_range1<std::allocator<float>,float * __ptr64>
PUBLIC	??$forward@AEAU?$_Wrap_alloc@V?$allocator@_W@std@@@std@@@std@@YAAEAU?$_Wrap_alloc@V?$allocator@_W@std@@@0@AEAU10@@Z ; std::forward<std::_Wrap_alloc<std::allocator<wchar_t> > & __ptr64>
PUBLIC	??$?0_W@?$allocator@U_Container_proxy@std@@@std@@QEAA@AEBV?$allocator@_W@1@@Z ; std::allocator<std::_Container_proxy>::allocator<std::_Container_proxy><wchar_t>
PUBLIC	??$forward@AEAPEA_W@std@@YAAEAPEA_WAEAPEA_W@Z	; std::forward<wchar_t * __ptr64 & __ptr64>
PUBLIC	??$construct@PEA_WAEAPEA_W@?$allocator_traits@V?$allocator@_W@std@@@std@@SAXAEAV?$allocator@_W@1@PEAPEA_WAEAPEA_W@Z ; std::allocator_traits<std::allocator<wchar_t> >::construct<wchar_t * __ptr64,wchar_t * __ptr64 & __ptr64>
PUBLIC	??$destroy@PEA_W@?$allocator@_W@std@@QEAAXPEAPEA_W@Z ; std::allocator<wchar_t>::destroy<wchar_t * __ptr64>
PUBLIC	??$destroy@U_Container_proxy@std@@@?$allocator@U_Container_proxy@std@@@std@@QEAAXPEAU_Container_proxy@1@@Z ; std::allocator<std::_Container_proxy>::destroy<std::_Container_proxy>
PUBLIC	??$construct@U_Container_proxy@std@@U12@@?$allocator@U_Container_proxy@std@@@std@@QEAAXPEAU_Container_proxy@1@$$QEAU21@@Z ; std::allocator<std::_Container_proxy>::construct<std::_Container_proxy,std::_Container_proxy>
PUBLIC	??$_Unfancy@VTileRow@@@std@@YAPEAVTileRow@@PEAV1@@Z ; std::_Unfancy<TileRow>
PUBLIC	??$destroy@VTileRow@@@?$_Wrap_alloc@V?$allocator@VTileRow@@@std@@@std@@QEAAXPEAVTileRow@@@Z ; std::_Wrap_alloc<std::allocator<TileRow> >::destroy<TileRow>
PUBLIC	??$construct@PEA_WAEAPEA_W@?$allocator@_W@std@@QEAAXPEAPEA_WAEAPEA_W@Z ; std::allocator<wchar_t>::construct<wchar_t * __ptr64,wchar_t * __ptr64 & __ptr64>
PUBLIC	??$destroy@VTileRow@@@?$allocator_traits@V?$allocator@VTileRow@@@std@@@std@@SAXAEAV?$allocator@VTileRow@@@1@PEAVTileRow@@@Z ; std::allocator_traits<std::allocator<TileRow> >::destroy<TileRow>
PUBLIC	??$destroy@VTileRow@@@?$allocator@VTileRow@@@std@@QEAAXPEAVTileRow@@@Z ; std::allocator<TileRow>::destroy<TileRow>
PUBLIC	??_EBerconTile@@WEA@EAAPEAXI@Z			; [thunk]:BerconTile::`vector deleting destructor'
PUBLIC	?GetInterface@BerconTile@@WJA@EAAPEAXK@Z	; [thunk]:BerconTile::GetInterface`adjustor{144}'
PUBLIC	??_7TabOutOfRangeException@Util@MaxSDK@@6B@	; MaxSDK::Util::TabOutOfRangeException::`vftable'
PUBLIC	??_C@_1EK@FOLBONAG@?$AAM?$AAa?$AAx?$AAS?$AAD?$AAK?$AA?3?$AA?3?$AAU?$AAt?$AAi?$AAl?$AA?3?$AA?3?$AAT?$AAa?$AAb?$AAO?$AAu?$AAt?$AAO?$AAf?$AAR?$AAa?$AAn?$AAg?$AAe?$AAE?$AAx?$AAc?$AAe?$AAp@ ; `string'
PUBLIC	??_C@_0BE@LMNLACIC@_Ptr_container?5?$CB?$DN?50?$AA@ ; `string'
PUBLIC	??_C@_1DG@HGDKEBPG@?$AA?$CC?$AA_?$AAP?$AAt?$AAr?$AA_?$AAc?$AAo?$AAn?$AAt?$AAa?$AAi?$AAn?$AAe?$AAr?$AA?5?$AA?$CB?$AA?$DN?$AA?5?$AA0?$AA?$CC?$AA?5?$AA?$CG?$AA?$CG?$AA?5?$AA0?$AA?$AA@ ; `string'
PUBLIC	??_C@_17CNPHIMPH@?$AA?$CF?$AAl?$AAs?$AA?$AA@	; `string'
PUBLIC	??_C@_1JA@DKOIEICI@?$AAc?$AA?3?$AA?2?$AAp?$AAr?$AAo?$AAg?$AAr?$AAa?$AAm?$AA?5?$AAf?$AAi?$AAl?$AAe?$AAs?$AA?5?$AA?$CI?$AAx?$AA8?$AA6?$AA?$CJ?$AA?2?$AAm?$AAi?$AAc?$AAr?$AAo?$AAs?$AAo?$AAf?$AAt@ ; `string'
PUBLIC	??_C@_1BO@NKFMJPA@?$AAs?$AAt?$AAd?$AA?3?$AA?3?$AA_?$AAA?$AAl?$AAl?$AAo?$AAc?$AAa?$AAt?$AAe?$AA?$AA@ ; `string'
PUBLIC	??_C@_1CG@JNLFBNGN@?$AA?$CC?$AAi?$AAn?$AAv?$AAa?$AAl?$AAi?$AAd?$AA?5?$AAa?$AAr?$AAg?$AAu?$AAm?$AAe?$AAn?$AAt?$AA?$CC?$AA?$AA@ ; `string'
PUBLIC	??_C@_09GLJCAGLP@_Ptr?5?$CB?$DN?50?$AA@		; `string'
PUBLIC	??_C@_1CC@GKJLLHIM@?$AA?$CC?$AA_?$AAP?$AAt?$AAr?$AA?5?$AA?$CB?$AA?$DN?$AA?5?$AA0?$AA?$CC?$AA?5?$AA?$CG?$AA?$CG?$AA?5?$AA0?$AA?$AA@ ; `string'
PUBLIC	??_C@_0BN@HMCJOMKN@_Count?5?$DM?$DN?5?$CIsize_t?$CJ?$CI?91?$CJ?5?1?5_Sz?$AA@ ; `string'
PUBLIC	??_C@_1EI@MLOBABC@?$AA?$CC?$AA_?$AAC?$AAo?$AAu?$AAn?$AAt?$AA?5?$AA?$DM?$AA?$DN?$AA?5?$AA?$CI?$AAs?$AAi?$AAz?$AAe?$AA_?$AAt?$AA?$CJ?$AA?$CI?$AA?9?$AA1?$AA?$CJ?$AA?5?$AA?1?$AA?5?$AA_?$AAS?$AAz?$AA?$CC?$AA?5?$AA?$CG@ ; `string'
PUBLIC	??_C@_1CC@LOFJFFDB@?$AAs?$AAt?$AAd?$AA?3?$AA?3?$AA_?$AAD?$AAe?$AAa?$AAl?$AAl?$AAo?$AAc?$AAa?$AAt?$AAe?$AA?$AA@ ; `string'
PUBLIC	??_C@_0DD@GBGGGKGG@?$CI_Ptr_user?5?$CG?5?$CI_BIG_ALLOCATION_AL@ ; `string'
PUBLIC	??_C@_1HE@CDMBFOKC@?$AA?$CC?$AA?$CI?$AA_?$AAP?$AAt?$AAr?$AA_?$AAu?$AAs?$AAe?$AAr?$AA?5?$AA?$CG?$AA?5?$AA?$CI?$AA_?$AAB?$AAI?$AAG?$AA_?$AAA?$AAL?$AAL?$AAO?$AAC?$AAA?$AAT?$AAI?$AAO?$AAN?$AA_?$AAA@ ; `string'
PUBLIC	??_C@_0EI@NOJHEJCJ@reinterpret_cast?$DMuintptr_t?5?$CK?$DO?$CI_P@ ; `string'
PUBLIC	??_C@_1JO@EKLKIEHP@?$AA?$CC?$AAr?$AAe?$AAi?$AAn?$AAt?$AAe?$AAr?$AAp?$AAr?$AAe?$AAt?$AA_?$AAc?$AAa?$AAs?$AAt?$AA?$DM?$AAu?$AAi?$AAn?$AAt?$AAp?$AAt?$AAr?$AA_?$AAt?$AA?5?$AA?$CK?$AA?$DO?$AA?$CI?$AA_@ ; `string'
PUBLIC	??_C@_0BL@OCKMEJON@_Ptr_container?5?$DM?5_Ptr_user?$AA@ ; `string'
PUBLIC	??_C@_1EE@PDHAHDDC@?$AA?$CC?$AA_?$AAP?$AAt?$AAr?$AA_?$AAc?$AAo?$AAn?$AAt?$AAa?$AAi?$AAn?$AAe?$AAr?$AA?5?$AA?$DM?$AA?5?$AA_?$AAP?$AAt?$AAr?$AA_?$AAu?$AAs?$AAe?$AAr?$AA?$CC?$AA?5?$AA?$CG?$AA?$CG?$AA?5@ ; `string'
PUBLIC	??_C@_0DB@GLFJLNCE@2?5?$CK?5sizeof?$CIvoid?5?$CK?$CJ?5?$DM?$DN?5_Ptr_user?5@ ; `string'
PUBLIC	??_C@_1HA@NAPGMHAO@?$AA?$CC?$AA2?$AA?5?$AA?$CK?$AA?5?$AAs?$AAi?$AAz?$AAe?$AAo?$AAf?$AA?$CI?$AAv?$AAo?$AAi?$AAd?$AA?5?$AA?$CK?$AA?$CJ?$AA?5?$AA?$DM?$AA?$DN?$AA?5?$AA_?$AAP?$AAt?$AAr?$AA_?$AAu?$AAs?$AAe?$AAr@ ; `string'
PUBLIC	??_C@_0CN@BLHJCAL@_Ptr_user?5?9?5_Ptr_container?5?$DM?$DN?5_N@ ; `string'
PUBLIC	??_C@_1GI@DHJGPFNI@?$AA?$CC?$AA_?$AAP?$AAt?$AAr?$AA_?$AAu?$AAs?$AAe?$AAr?$AA?5?$AA?9?$AA?5?$AA_?$AAP?$AAt?$AAr?$AA_?$AAc?$AAo?$AAn?$AAt?$AAa?$AAi?$AAn?$AAe?$AAr?$AA?5?$AA?$DM?$AA?$DN?$AA?5?$AA_@ ; `string'
PUBLIC	??_7InterfaceServer@@6B@			; InterfaceServer::`vftable'
PUBLIC	??_7BaseInterfaceServer@@6B@			; BaseInterfaceServer::`vftable'
PUBLIC	??_7ShadeOutput@@6B@				; ShadeOutput::`vftable'
PUBLIC	??_7ShadeContext@@6B@				; ShadeContext::`vftable'
PUBLIC	??_R0?AVClassDesc2@@@8				; ClassDesc2 `RTTI Type Descriptor'
PUBLIC	??_7ParamMap2UserDlgProc@@6B@			; ParamMap2UserDlgProc::`vftable'
PUBLIC	??_R0?AVMaxHeapOperators@@@8			; MaxHeapOperators `RTTI Type Descriptor'
PUBLIC	_CT??_R0?AVMaxHeapOperators@@@818
PUBLIC	??_7ResourceMakerCallback@@6B@			; ResourceMakerCallback::`vftable'
PUBLIC	??_7XYZ_Desc@@6B@				; XYZ_Desc::`vftable'
PUBLIC	??_C@_1BM@LCALCDFD@?$AAx?$AAy?$AAz?$AA_?$AAf?$AAi?$AAl?$AAt?$AAe?$AAr?$AAi?$AAn?$AAg?$AA?$AA@ ; `string'
PUBLIC	??_C@_1BC@JCCAEAIN@?$AAx?$AAy?$AAz?$AA_?$AAl?$AAo?$AAc?$AAk?$AA?$AA@ ; `string'
PUBLIC	??_C@_1BK@FLPLJMAJ@?$AAx?$AAy?$AAz?$AA_?$AAa?$AAn?$AAg?$AAl?$AAe?$AA_?$AAz?$AA2?$AA?$AA@ ; `string'
PUBLIC	??_C@_1BK@NNGPOOKH@?$AAx?$AAy?$AAz?$AA_?$AAa?$AAn?$AAg?$AAl?$AAe?$AA_?$AAy?$AA2?$AA?$AA@ ; `string'
PUBLIC	??_C@_1BK@BGDDDNAC@?$AAx?$AAy?$AAz?$AA_?$AAa?$AAn?$AAg?$AAl?$AAe?$AA_?$AAx?$AA2?$AA?$AA@ ; `string'
PUBLIC	??_C@_1BI@MHJCJGME@?$AAx?$AAy?$AAz?$AA_?$AAs?$AAi?$AAz?$AAe?$AA_?$AAz?$AA2?$AA?$AA@ ; `string'
PUBLIC	??_C@_1BI@EBAGOEGK@?$AAx?$AAy?$AAz?$AA_?$AAs?$AAi?$AAz?$AAe?$AA_?$AAy?$AA2?$AA?$AA@ ; `string'
PUBLIC	??_C@_1BI@IKFKDHMP@?$AAx?$AAy?$AAz?$AA_?$AAs?$AAi?$AAz?$AAe?$AA_?$AAx?$AA2?$AA?$AA@ ; `string'
PUBLIC	??_C@_1BM@HJOOPID@?$AAx?$AAy?$AAz?$AA_?$AAo?$AAf?$AAf?$AAs?$AAe?$AAt?$AA_?$AAz?$AA2?$AA?$AA@ ; `string'
PUBLIC	??_C@_1BM@IBAKJNCN@?$AAx?$AAy?$AAz?$AA_?$AAo?$AAf?$AAf?$AAs?$AAe?$AAt?$AA_?$AAy?$AA2?$AA?$AA@ ; `string'
PUBLIC	??_C@_1BM@EKFGEOII@?$AAx?$AAy?$AAz?$AA_?$AAo?$AAf?$AAf?$AAs?$AAe?$AAt?$AA_?$AAx?$AA2?$AA?$AA@ ; `string'
PUBLIC	??_C@_1BE@PALBIMHK@?$AAr?$AAa?$AAn?$AAd?$AAB?$AAy?$AAP?$AAa?$AAr?$AA?$AA@ ; `string'
PUBLIC	??_C@_1BE@EGBDKCCD@?$AAr?$AAa?$AAn?$AAd?$AAB?$AAy?$AAO?$AAb?$AAj?$AA?$AA@ ; `string'
PUBLIC	??_C@_1BE@DCGEPHFM@?$AAr?$AAa?$AAn?$AAd?$AAB?$AAy?$AAM?$AAa?$AAt?$AA?$AA@ ; `string'
PUBLIC	??_C@_19HFHNPJHA@?$AAs?$AAe?$AAe?$AAd?$AA?$AA@	; `string'
PUBLIC	??_C@_1BG@EDCBABDD@?$AAx?$AAy?$AAz?$AA_?$AAt?$AAi?$AAl?$AAe?$AA_?$AAz?$AA?$AA@ ; `string'
PUBLIC	??_C@_1BG@FBJEKONN@?$AAx?$AAy?$AAz?$AA_?$AAt?$AAi?$AAl?$AAe?$AA_?$AAy?$AA?$AA@ ; `string'
PUBLIC	??_C@_1BG@OJCIMJLI@?$AAx?$AAy?$AAz?$AA_?$AAt?$AAi?$AAl?$AAe?$AA_?$AAx?$AA?$AA@ ; `string'
PUBLIC	??_C@_1BI@LALGELMD@?$AAx?$AAy?$AAz?$AA_?$AAa?$AAn?$AAg?$AAl?$AAe?$AA_?$AAz?$AA?$AA@ ; `string'
PUBLIC	??_C@_1BI@KCADOECN@?$AAx?$AAy?$AAz?$AA_?$AAa?$AAn?$AAg?$AAl?$AAe?$AA_?$AAy?$AA?$AA@ ; `string'
PUBLIC	??_C@_1BI@BKLPIDEI@?$AAx?$AAy?$AAz?$AA_?$AAa?$AAn?$AAg?$AAl?$AAe?$AA_?$AAx?$AA?$AA@ ; `string'
PUBLIC	??_C@_1BG@MFMFKFM@?$AAx?$AAy?$AAz?$AA_?$AAs?$AAi?$AAz?$AAe?$AA_?$AAz?$AA?$AA@ ; `string'
PUBLIC	??_C@_1BG@BOOJPFLC@?$AAx?$AAy?$AAz?$AA_?$AAs?$AAi?$AAz?$AAe?$AA_?$AAy?$AA?$AA@ ; `string'
PUBLIC	??_C@_1BG@KGFFJCNH@?$AAx?$AAy?$AAz?$AA_?$AAs?$AAi?$AAz?$AAe?$AA_?$AAx?$AA?$AA@ ; `string'
PUBLIC	??_C@_1BK@HPJLBIGD@?$AAx?$AAy?$AAz?$AA_?$AAo?$AAf?$AAf?$AAs?$AAe?$AAt?$AA_?$AAz?$AA?$AA@ ; `string'
PUBLIC	??_C@_1BK@GNCOLHIN@?$AAx?$AAy?$AAz?$AA_?$AAo?$AAf?$AAf?$AAs?$AAe?$AAt?$AA_?$AAy?$AA?$AA@ ; `string'
PUBLIC	??_C@_1BK@NFJCNAOI@?$AAx?$AAy?$AAz?$AA_?$AAo?$AAf?$AAf?$AAs?$AAe?$AAt?$AA_?$AAx?$AA?$AA@ ; `string'
PUBLIC	??_C@_1BC@BDPIEDCA@?$AAx?$AAy?$AAz?$AA_?$AAc?$AAh?$AAa?$AAn?$AA?$AA@ ; `string'
PUBLIC	??_C@_1BA@JOBDKJKA@?$AAx?$AAy?$AAz?$AA_?$AAm?$AAa?$AAp?$AA?$AA@ ; `string'
PUBLIC	??_C@_1BA@KMAKHADK@?$AAM?$AAa?$AAp?$AAp?$AAi?$AAn?$AAg?$AA?$AA@ ; `string'
PUBLIC	??_7BerconXYZDlgProc@@6B@			; BerconXYZDlgProc::`vftable'
PUBLIC	??_C@_13PHJMHGG@?$AAL?$AA?$AA@			; `string'
PUBLIC	??_7BerconTile@@6BReferenceTarget@@@		; BerconTile::`vftable'
PUBLIC	??_7BerconTile@@6BISubMap@@@			; BerconTile::`vftable'
PUBLIC	??_7BerconTile@@6B@				; BerconTile::`vftable'
PUBLIC	??_7BerconTileClassDesc@@6B@			; BerconTileClassDesc::`vftable'
PUBLIC	??_C@_1BG@HMMMJDJP@?$AAB?$AAe?$AAr?$AAc?$AAo?$AAn?$AAT?$AAi?$AAl?$AAe?$AA?$AA@ ; `string'
PUBLIC	??_7BerconSC@@6B@				; BerconSC::`vftable'
PUBLIC	??_7BerconTileDlgProc@@6B@			; BerconTileDlgProc::`vftable'
PUBLIC	??_C@_1IM@NCODKBJH@?$AAc?$AA?3?$AA?2?$AAp?$AAr?$AAo?$AAg?$AAr?$AAa?$AAm?$AA?5?$AAf?$AAi?$AAl?$AAe?$AAs?$AA?5?$AA?$CI?$AAx?$AA8?$AA6?$AA?$CJ?$AA?2?$AAm?$AAi?$AAc?$AAr?$AAo?$AAs?$AAo?$AAf?$AAt@ ; `string'
PUBLIC	??_C@_1DM@LHGCHCBA@?$AAv?$AAe?$AAc?$AAt?$AAo?$AAr?$AA?5?$AAs?$AAu?$AAb?$AAs?$AAc?$AAr?$AAi?$AAp?$AAt?$AA?5?$AAo?$AAu?$AAt?$AA?5?$AAo?$AAf?$AA?5?$AAr?$AAa?$AAn?$AAg?$AAe?$AA?$AA@ ; `string'
PUBLIC	??_C@_0CE@OFMIGAMM@Standard?5C?$CL?$CL?5Libraries?5Out?5of?5Ra@ ; `string'
PUBLIC	??_C@_1FG@IBPIFFN@?$AA?$CC?$AAS?$AAt?$AAa?$AAn?$AAd?$AAa?$AAr?$AAd?$AA?5?$AAC?$AA?$CL?$AA?$CL?$AA?5?$AAL?$AAi?$AAb?$AAr?$AAa?$AAr?$AAi?$AAe?$AAs?$AA?5?$AAO?$AAu?$AAt?$AA?5?$AAo?$AAf?$AA?5?$AAR@ ; `string'
PUBLIC	??_C@_1JK@CCDJIDIF@?$AAs?$AAt?$AAd?$AA?3?$AA?3?$AAv?$AAe?$AAc?$AAt?$AAo?$AAr?$AA?$DM?$AAc?$AAl?$AAa?$AAs?$AAs?$AA?5?$AAT?$AAi?$AAl?$AAe?$AAR?$AAo?$AAw?$AA?0?$AAc?$AAl?$AAa?$AAs?$AAs?$AA?5@ ; `string'
PUBLIC	??_C@_1BO@MEPPHOO@?$AA?$CC?$AAo?$AAu?$AAt?$AA?5?$AAo?$AAf?$AA?5?$AAr?$AAa?$AAn?$AAg?$AAe?$AA?$CC?$AA?$AA@ ; `string'
PUBLIC	??_C@_1HK@EJDBECKJ@?$AAs?$AAt?$AAd?$AA?3?$AA?3?$AAv?$AAe?$AAc?$AAt?$AAo?$AAr?$AA?$DM?$AAf?$AAl?$AAo?$AAa?$AAt?$AA?0?$AAc?$AAl?$AAa?$AAs?$AAs?$AA?5?$AAs?$AAt?$AAd?$AA?3?$AA?3?$AAa?$AAl?$AAl@ ; `string'
PUBLIC	_TI4?AVTabOutOfRangeException@Util@MaxSDK@@
PUBLIC	_CTA4?AVTabOutOfRangeException@Util@MaxSDK@@
PUBLIC	??_R0?AVTabOutOfRangeException@Util@MaxSDK@@@8	; MaxSDK::Util::TabOutOfRangeException `RTTI Type Descriptor'
PUBLIC	_CT??_R0?AVTabOutOfRangeException@Util@MaxSDK@@@8??0TabOutOfRangeException@Util@MaxSDK@@QEAA@AEBV012@@Z16
PUBLIC	??_R0?AVOutOfRangeException@Util@MaxSDK@@@8	; MaxSDK::Util::OutOfRangeException `RTTI Type Descriptor'
PUBLIC	_CT??_R0?AVOutOfRangeException@Util@MaxSDK@@@8??0OutOfRangeException@Util@MaxSDK@@QEAA@AEBV012@@Z16
PUBLIC	??_R0?AVException@Util@MaxSDK@@@8		; MaxSDK::Util::Exception `RTTI Type Descriptor'
PUBLIC	_CT??_R0?AVException@Util@MaxSDK@@@8??0Exception@Util@MaxSDK@@QEAA@AEBV012@@Z16
PUBLIC	??_C@_1GI@NLEIFPEJ@?$AAI?$AAn?$AAv?$AAa?$AAl?$AAi?$AAd?$AA?5?$AAi?$AAn?$AAd?$AAe?$AAx?$AA?5?$AAp?$AAa?$AAs?$AAs?$AAe?$AAd?$AA?5?$AAi?$AAn?$AAt?$AAo?$AA?5?$AAa?$AA?5?$AAM?$AAa?$AAx?$AA?5@ ; `string'
PUBLIC	??_C@_1IO@EADHKMNI@?$AAc?$AA?3?$AA?2?$AAp?$AAr?$AAo?$AAg?$AAr?$AAa?$AAm?$AA?5?$AAf?$AAi?$AAl?$AAe?$AAs?$AA?5?$AA?$CI?$AAx?$AA8?$AA6?$AA?$CJ?$AA?2?$AAm?$AAi?$AAc?$AAr?$AAo?$AAs?$AAo?$AAf?$AAt@ ; `string'
PUBLIC	??_C@_0BA@JFNIOLAK@string?5too?5long?$AA@	; `string'
PUBLIC	??_C@_0BI@CFPLBAOH@invalid?5string?5position?$AA@ ; `string'
PUBLIC	??_C@_1CK@EOPGIILJ@?$AAi?$AAn?$AAv?$AAa?$AAl?$AAi?$AAd?$AA?5?$AAn?$AAu?$AAl?$AAl?$AA?5?$AAp?$AAo?$AAi?$AAn?$AAt?$AAe?$AAr?$AA?$AA@ ; `string'
PUBLIC	??_R4TabOutOfRangeException@Util@MaxSDK@@6B@	; MaxSDK::Util::TabOutOfRangeException::`RTTI Complete Object Locator'
PUBLIC	??_R3TabOutOfRangeException@Util@MaxSDK@@8	; MaxSDK::Util::TabOutOfRangeException::`RTTI Class Hierarchy Descriptor'
PUBLIC	??_R2TabOutOfRangeException@Util@MaxSDK@@8	; MaxSDK::Util::TabOutOfRangeException::`RTTI Base Class Array'
PUBLIC	??_R1A@?0A@EA@TabOutOfRangeException@Util@MaxSDK@@8 ; MaxSDK::Util::TabOutOfRangeException::`RTTI Base Class Descriptor at (0,-1,0,64)'
PUBLIC	??_R1A@?0A@EA@OutOfRangeException@Util@MaxSDK@@8 ; MaxSDK::Util::OutOfRangeException::`RTTI Base Class Descriptor at (0,-1,0,64)'
PUBLIC	??_R3OutOfRangeException@Util@MaxSDK@@8		; MaxSDK::Util::OutOfRangeException::`RTTI Class Hierarchy Descriptor'
PUBLIC	??_R2OutOfRangeException@Util@MaxSDK@@8		; MaxSDK::Util::OutOfRangeException::`RTTI Base Class Array'
PUBLIC	??_R1A@?0A@EA@Exception@Util@MaxSDK@@8		; MaxSDK::Util::Exception::`RTTI Base Class Descriptor at (0,-1,0,64)'
PUBLIC	??_R3Exception@Util@MaxSDK@@8			; MaxSDK::Util::Exception::`RTTI Class Hierarchy Descriptor'
PUBLIC	??_R2Exception@Util@MaxSDK@@8			; MaxSDK::Util::Exception::`RTTI Base Class Array'
PUBLIC	??_R17?0A@EA@MaxHeapOperators@@8		; MaxHeapOperators::`RTTI Base Class Descriptor at (8,-1,0,64)'
PUBLIC	??_R3MaxHeapOperators@@8			; MaxHeapOperators::`RTTI Class Hierarchy Descriptor'
PUBLIC	??_R2MaxHeapOperators@@8			; MaxHeapOperators::`RTTI Base Class Array'
PUBLIC	??_R1A@?0A@EA@MaxHeapOperators@@8		; MaxHeapOperators::`RTTI Base Class Descriptor at (0,-1,0,64)'
PUBLIC	??_R1A@?0A@EA@InterfaceServer@@8		; InterfaceServer::`RTTI Base Class Descriptor at (0,-1,0,64)'
PUBLIC	??_R0?AVInterfaceServer@@@8			; InterfaceServer `RTTI Type Descriptor'
PUBLIC	??_R3InterfaceServer@@8				; InterfaceServer::`RTTI Class Hierarchy Descriptor'
PUBLIC	??_R2InterfaceServer@@8				; InterfaceServer::`RTTI Base Class Array'
PUBLIC	??_R4InterfaceServer@@6B@			; InterfaceServer::`RTTI Complete Object Locator'
PUBLIC	??_R4BaseInterfaceServer@@6B@			; BaseInterfaceServer::`RTTI Complete Object Locator'
PUBLIC	??_R0?AVBaseInterfaceServer@@@8			; BaseInterfaceServer `RTTI Type Descriptor'
PUBLIC	??_R3BaseInterfaceServer@@8			; BaseInterfaceServer::`RTTI Class Hierarchy Descriptor'
PUBLIC	??_R2BaseInterfaceServer@@8			; BaseInterfaceServer::`RTTI Base Class Array'
PUBLIC	??_R1A@?0A@EA@BaseInterfaceServer@@8		; BaseInterfaceServer::`RTTI Base Class Descriptor at (0,-1,0,64)'
PUBLIC	??_R1A@?0A@EA@ReferenceTarget@@8		; ReferenceTarget::`RTTI Base Class Descriptor at (0,-1,0,64)'
PUBLIC	??_R0?AVReferenceTarget@@@8			; ReferenceTarget `RTTI Type Descriptor'
PUBLIC	??_R3ReferenceTarget@@8				; ReferenceTarget::`RTTI Class Hierarchy Descriptor'
PUBLIC	??_R2ReferenceTarget@@8				; ReferenceTarget::`RTTI Base Class Array'
PUBLIC	??_R1A@?0A@EA@ReferenceMaker@@8			; ReferenceMaker::`RTTI Base Class Descriptor at (0,-1,0,64)'
PUBLIC	??_R0?AVReferenceMaker@@@8			; ReferenceMaker `RTTI Type Descriptor'
PUBLIC	??_R3ReferenceMaker@@8				; ReferenceMaker::`RTTI Class Hierarchy Descriptor'
PUBLIC	??_R2ReferenceMaker@@8				; ReferenceMaker::`RTTI Base Class Array'
PUBLIC	??_R1A@?0A@EA@Animatable@@8			; Animatable::`RTTI Base Class Descriptor at (0,-1,0,64)'
PUBLIC	??_R0?AVAnimatable@@@8				; Animatable `RTTI Type Descriptor'
PUBLIC	??_R3Animatable@@8				; Animatable::`RTTI Class Hierarchy Descriptor'
PUBLIC	??_R2Animatable@@8				; Animatable::`RTTI Base Class Array'
PUBLIC	??_R17?0A@EC@MaxHeapOperators@@8		; MaxHeapOperators::`RTTI Base Class Descriptor at (8,-1,0,66)'
PUBLIC	??_R18?0A@EA@Noncopyable@Util@MaxSDK@@8		; MaxSDK::Util::Noncopyable::`RTTI Base Class Descriptor at (9,-1,0,64)'
PUBLIC	??_R0?AVNoncopyable@Util@MaxSDK@@@8		; MaxSDK::Util::Noncopyable `RTTI Type Descriptor'
PUBLIC	??_R3Noncopyable@Util@MaxSDK@@8			; MaxSDK::Util::Noncopyable::`RTTI Class Hierarchy Descriptor'
PUBLIC	??_R2Noncopyable@Util@MaxSDK@@8			; MaxSDK::Util::Noncopyable::`RTTI Base Class Array'
PUBLIC	??_R1A@?0A@EA@Noncopyable@Util@MaxSDK@@8	; MaxSDK::Util::Noncopyable::`RTTI Base Class Descriptor at (0,-1,0,64)'
PUBLIC	??_R18?0A@EC@MaxHeapOperators@@8		; MaxHeapOperators::`RTTI Base Class Descriptor at (9,-1,0,66)'
PUBLIC	??_R1EI@?0A@EC@MaxHeapOperators@@8		; MaxHeapOperators::`RTTI Base Class Descriptor at (72,-1,0,66)'
PUBLIC	??_R4ParamMap2UserDlgProc@@6B@			; ParamMap2UserDlgProc::`RTTI Complete Object Locator'
PUBLIC	??_R0?AVParamMap2UserDlgProc@@@8		; ParamMap2UserDlgProc `RTTI Type Descriptor'
PUBLIC	??_R3ParamMap2UserDlgProc@@8			; ParamMap2UserDlgProc::`RTTI Class Hierarchy Descriptor'
PUBLIC	??_R2ParamMap2UserDlgProc@@8			; ParamMap2UserDlgProc::`RTTI Base Class Array'
PUBLIC	??_R1A@?0A@EA@ParamMap2UserDlgProc@@8		; ParamMap2UserDlgProc::`RTTI Base Class Descriptor at (0,-1,0,64)'
PUBLIC	??_R0?AVClassDesc@@@8				; ClassDesc `RTTI Type Descriptor'
PUBLIC	??_R3ClassDesc@@8				; ClassDesc::`RTTI Class Hierarchy Descriptor'
PUBLIC	??_R2ClassDesc@@8				; ClassDesc::`RTTI Base Class Array'
PUBLIC	??_R1A@?0A@EA@ClassDesc@@8			; ClassDesc::`RTTI Base Class Descriptor at (0,-1,0,64)'
PUBLIC	??_R4ShadeContext@@6B@				; ShadeContext::`RTTI Complete Object Locator'
PUBLIC	??_R0?AVShadeContext@@@8			; ShadeContext `RTTI Type Descriptor'
PUBLIC	??_R3ShadeContext@@8				; ShadeContext::`RTTI Class Hierarchy Descriptor'
PUBLIC	??_R2ShadeContext@@8				; ShadeContext::`RTTI Base Class Array'
PUBLIC	??_R1A@?0A@EA@ShadeContext@@8			; ShadeContext::`RTTI Base Class Descriptor at (0,-1,0,64)'
PUBLIC	??_R4ShadeOutput@@6B@				; ShadeOutput::`RTTI Complete Object Locator'
PUBLIC	??_R0?AVShadeOutput@@@8				; ShadeOutput `RTTI Type Descriptor'
PUBLIC	??_R3ShadeOutput@@8				; ShadeOutput::`RTTI Class Hierarchy Descriptor'
PUBLIC	??_R2ShadeOutput@@8				; ShadeOutput::`RTTI Base Class Array'
PUBLIC	??_R1A@?0A@EA@ShadeOutput@@8			; ShadeOutput::`RTTI Base Class Descriptor at (0,-1,0,64)'
PUBLIC	??_R0?AVISubMap@@@8				; ISubMap `RTTI Type Descriptor'
PUBLIC	??_R3ISubMap@@8					; ISubMap::`RTTI Class Hierarchy Descriptor'
PUBLIC	??_R2ISubMap@@8					; ISubMap::`RTTI Base Class Array'
PUBLIC	??_R1A@?0A@EA@ISubMap@@8			; ISubMap::`RTTI Base Class Descriptor at (0,-1,0,64)'
PUBLIC	??_R4ResourceMakerCallback@@6B@			; ResourceMakerCallback::`RTTI Complete Object Locator'
PUBLIC	??_R0?AVResourceMakerCallback@@@8		; ResourceMakerCallback `RTTI Type Descriptor'
PUBLIC	??_R3ResourceMakerCallback@@8			; ResourceMakerCallback::`RTTI Class Hierarchy Descriptor'
PUBLIC	??_R2ResourceMakerCallback@@8			; ResourceMakerCallback::`RTTI Base Class Array'
PUBLIC	??_R1A@?0A@EA@ResourceMakerCallback@@8		; ResourceMakerCallback::`RTTI Base Class Descriptor at (0,-1,0,64)'
PUBLIC	??_R4XYZ_Desc@@6B@				; XYZ_Desc::`RTTI Complete Object Locator'
PUBLIC	??_R0?AVXYZ_Desc@@@8				; XYZ_Desc `RTTI Type Descriptor'
PUBLIC	??_R3XYZ_Desc@@8				; XYZ_Desc::`RTTI Class Hierarchy Descriptor'
PUBLIC	??_R2XYZ_Desc@@8				; XYZ_Desc::`RTTI Base Class Array'
PUBLIC	??_R1A@?0A@EA@XYZ_Desc@@8			; XYZ_Desc::`RTTI Base Class Descriptor at (0,-1,0,64)'
PUBLIC	??_R1A@?0A@EA@ParamBlockDesc2@@8		; ParamBlockDesc2::`RTTI Base Class Descriptor at (0,-1,0,64)'
PUBLIC	??_R0?AVParamBlockDesc2@@@8			; ParamBlockDesc2 `RTTI Type Descriptor'
PUBLIC	??_R3ParamBlockDesc2@@8				; ParamBlockDesc2::`RTTI Class Hierarchy Descriptor'
PUBLIC	??_R2ParamBlockDesc2@@8				; ParamBlockDesc2::`RTTI Base Class Array'
PUBLIC	??_R4BerconXYZDlgProc@@6B@			; BerconXYZDlgProc::`RTTI Complete Object Locator'
PUBLIC	??_R0?AVBerconXYZDlgProc@@@8			; BerconXYZDlgProc `RTTI Type Descriptor'
PUBLIC	??_R3BerconXYZDlgProc@@8			; BerconXYZDlgProc::`RTTI Class Hierarchy Descriptor'
PUBLIC	??_R2BerconXYZDlgProc@@8			; BerconXYZDlgProc::`RTTI Base Class Array'
PUBLIC	??_R1A@?0A@EA@BerconXYZDlgProc@@8		; BerconXYZDlgProc::`RTTI Base Class Descriptor at (0,-1,0,64)'
PUBLIC	??_R4BerconTile@@6BReferenceTarget@@@		; BerconTile::`RTTI Complete Object Locator'
PUBLIC	??_R0?AVBerconTile@@@8				; BerconTile `RTTI Type Descriptor'
PUBLIC	??_R3BerconTile@@8				; BerconTile::`RTTI Class Hierarchy Descriptor'
PUBLIC	??_R2BerconTile@@8				; BerconTile::`RTTI Base Class Array'
PUBLIC	??_R1A@?0A@EA@BerconTile@@8			; BerconTile::`RTTI Base Class Descriptor at (0,-1,0,64)'
PUBLIC	??_R1A@?0A@EA@Texmap@@8				; Texmap::`RTTI Base Class Descriptor at (0,-1,0,64)'
PUBLIC	??_R0?AVTexmap@@@8				; Texmap `RTTI Type Descriptor'
PUBLIC	??_R3Texmap@@8					; Texmap::`RTTI Class Hierarchy Descriptor'
PUBLIC	??_R2Texmap@@8					; Texmap::`RTTI Base Class Array'
PUBLIC	??_R1A@?0A@EA@MtlBase@@8			; MtlBase::`RTTI Base Class Descriptor at (0,-1,0,64)'
PUBLIC	??_R0?AVMtlBase@@@8				; MtlBase `RTTI Type Descriptor'
PUBLIC	??_R3MtlBase@@8					; MtlBase::`RTTI Class Hierarchy Descriptor'
PUBLIC	??_R2MtlBase@@8					; MtlBase::`RTTI Base Class Array'
PUBLIC	??_R1EA@?0A@EA@ISubMap@@8			; ISubMap::`RTTI Base Class Descriptor at (64,-1,0,64)'
PUBLIC	??_R1JA@?0A@EA@ResourceMakerCallback@@8		; ResourceMakerCallback::`RTTI Base Class Descriptor at (144,-1,0,64)'
PUBLIC	??_R1JI@?0A@EC@MaxHeapOperators@@8		; MaxHeapOperators::`RTTI Base Class Descriptor at (152,-1,0,66)'
PUBLIC	??_R4BerconTile@@6BISubMap@@@			; BerconTile::`RTTI Complete Object Locator'
PUBLIC	??_R4BerconTile@@6B@				; BerconTile::`RTTI Complete Object Locator'
PUBLIC	??_R4BerconTileClassDesc@@6B@			; BerconTileClassDesc::`RTTI Complete Object Locator'
PUBLIC	??_R0?AVBerconTileClassDesc@@@8			; BerconTileClassDesc `RTTI Type Descriptor'
PUBLIC	??_R3BerconTileClassDesc@@8			; BerconTileClassDesc::`RTTI Class Hierarchy Descriptor'
PUBLIC	??_R2BerconTileClassDesc@@8			; BerconTileClassDesc::`RTTI Base Class Array'
PUBLIC	??_R1A@?0A@EA@BerconTileClassDesc@@8		; BerconTileClassDesc::`RTTI Base Class Descriptor at (0,-1,0,64)'
PUBLIC	??_R1A@?0A@EA@ClassDesc2@@8			; ClassDesc2::`RTTI Base Class Descriptor at (0,-1,0,64)'
PUBLIC	??_R3ClassDesc2@@8				; ClassDesc2::`RTTI Class Hierarchy Descriptor'
PUBLIC	??_R2ClassDesc2@@8				; ClassDesc2::`RTTI Base Class Array'
PUBLIC	??_R4BerconSC@@6B@				; BerconSC::`RTTI Complete Object Locator'
PUBLIC	??_R0?AVBerconSC@@@8				; BerconSC `RTTI Type Descriptor'
PUBLIC	??_R3BerconSC@@8				; BerconSC::`RTTI Class Hierarchy Descriptor'
PUBLIC	??_R2BerconSC@@8				; BerconSC::`RTTI Base Class Array'
PUBLIC	??_R1A@?0A@EA@BerconSC@@8			; BerconSC::`RTTI Base Class Descriptor at (0,-1,0,64)'
PUBLIC	??_R4BerconTileDlgProc@@6B@			; BerconTileDlgProc::`RTTI Complete Object Locator'
PUBLIC	??_R0?AVBerconTileDlgProc@@@8			; BerconTileDlgProc `RTTI Type Descriptor'
PUBLIC	??_R3BerconTileDlgProc@@8			; BerconTileDlgProc::`RTTI Class Hierarchy Descriptor'
PUBLIC	??_R2BerconTileDlgProc@@8			; BerconTileDlgProc::`RTTI Base Class Array'
PUBLIC	??_R1A@?0A@EA@BerconTileDlgProc@@8		; BerconTileDlgProc::`RTTI Base Class Descriptor at (0,-1,0,64)'
PUBLIC	__real@00000000
PUBLIC	__real@38d1b717
PUBLIC	__real@3a83126f
PUBLIC	__real@3c8efa35
PUBLIC	__real@3dcccccd
PUBLIC	__real@3f000000
PUBLIC	__real@3f1a36e2e0000000
PUBLIC	__real@3f800000
PUBLIC	__real@3fb99999a0000000
PUBLIC	__real@3fd3333340000000
PUBLIC	__real@3ff0000000000000
PUBLIC	__real@40000000
PUBLIC	__real@4000000000000000
PUBLIC	__real@4010000000000000
PUBLIC	__real@4039000000000000
PUBLIC	__real@40400000
PUBLIC	__real@4059000000000000
PUBLIC	__real@4066800000000000
PUBLIC	__real@40800000
PUBLIC	__real@408f400000000000
PUBLIC	__real@412e848000000000
PUBLIC	__real@42c80000
PUBLIC	__real@43340000
PUBLIC	__real@43480000
PUBLIC	__real@49742400
PUBLIC	__real@bf000000
PUBLIC	__real@bff0000000000000
PUBLIC	__real@c12e848000000000
PUBLIC	__real@c9742400
EXTRN	_purecall:PROC
EXTRN	??2@YAPEAX_K@Z:PROC				; operator new
EXTRN	??3@YAXPEAX@Z:PROC				; operator delete
EXTRN	??3@YAXPEAX_K@Z:PROC				; operator delete
EXTRN	?__global_delete@@YAXPEAX_K@Z:PROC		; __global_delete
EXTRN	atexit:PROC
EXTRN	__imp__invalid_parameter:PROC
EXTRN	memcpy:PROC
EXTRN	__imp_memmove:PROC
EXTRN	__imp_wcslen:PROC
EXTRN	__imp_SendMessageW:PROC
EXTRN	__imp_GetDlgItem:PROC
EXTRN	__imp_??0_Lockit@std@@QEAA@H@Z:PROC
EXTRN	__imp_??1_Lockit@std@@QEAA@XZ:PROC
EXTRN	__imp_??2MaxHeapOperators@@SAPEAX_K@Z:PROC
EXTRN	__imp_??3MaxHeapOperators@@SAXPEAX@Z:PROC
EXTRN	__imp_??0OutOfRangeException@Util@MaxSDK@@QEAA@PEB_W@Z:PROC
EXTRN	__imp_??1OutOfRangeException@Util@MaxSDK@@UEAA@XZ:PROC
EXTRN	__imp_??0OutOfRangeException@Util@MaxSDK@@QEAA@AEBV012@@Z:PROC
EXTRN	__imp_?zfree@@YAXPEAPEAX@Z:PROC
EXTRN	??_ETabOutOfRangeException@Util@MaxSDK@@UEAAPEAXI@Z:PROC ; MaxSDK::Util::TabOutOfRangeException::`vector deleting destructor'
EXTRN	__imp__CrtDbgReportW:PROC
EXTRN	__imp_?_Debug_message@std@@YAXPEB_W0I@Z:PROC
EXTRN	__imp_?_Xbad_alloc@std@@YAXXZ:PROC
EXTRN	__imp_?_Xlength_error@std@@YAXPEBD@Z:PROC
EXTRN	__imp_?_Xout_of_range@std@@YAXPEBD@Z:PROC
EXTRN	__imp_??0WStr@@QEAA@PEB_W@Z:PROC
EXTRN	__imp_??1WStr@@QEAA@XZ:PROC
EXTRN	__imp_??4WStr@@QEAAAEAV0@PEB_W@Z:PROC
EXTRN	__imp_??0Point2@@QEAA@NN@Z:PROC
EXTRN	__imp_??0Point3@@QEAA@XZ:PROC
EXTRN	__imp_??0Point3@@QEAA@MMM@Z:PROC
EXTRN	__imp_??0Point3@@QEAA@HHH@Z:PROC
EXTRN	__imp_??0Point3@@QEAA@AEBV0@@Z:PROC
EXTRN	__imp_??GPoint3@@QEBA?AV0@XZ:PROC
EXTRN	__imp_??YPoint3@@QEAAAEAV0@AEBV0@@Z:PROC
EXTRN	__imp_??_0Point3@@QEAAAEAV0@M@Z:PROC
EXTRN	__imp_??HPoint3@@QEBA?AV0@AEBV0@@Z:PROC
EXTRN	__imp_?Length@@YAMAEBVPoint3@@@Z:PROC
EXTRN	__imp_??1InterfaceServer@@UEAA@XZ:PROC
EXTRN	??_EInterfaceServer@@UEAAPEAXI@Z:PROC		; InterfaceServer::`vector deleting destructor'
EXTRN	__imp_??1BaseInterfaceServer@@UEAA@XZ:PROC
EXTRN	??_EBaseInterfaceServer@@UEAAPEAXI@Z:PROC	; BaseInterfaceServer::`vector deleting destructor'
EXTRN	__imp_?IdentityMatrix@Matrix3@@QEAAXXZ:PROC
EXTRN	__imp_?ClampMinMax@Color@@QEAAXXZ:PROC
EXTRN	__imp_?ReleaseISpinner@@YAXPEAVISpinnerControl@@@Z:PROC
EXTRN	__imp_?GetICustButton@@YAPEAVICustButton@@PEAUHWND__@@@Z:PROC
EXTRN	__imp_?ReleaseICustButton@@YAXPEAVICustButton@@@Z:PROC
EXTRN	__imp_?SetupFloatSpinner@@YAPEAVISpinnerControl@@PEAUHWND__@@HHMMMM@Z:PROC
EXTRN	__imp_?SetupUniverseSpinner@@YAPEAVISpinnerControl@@PEAUHWND__@@HHMMMM@Z:PROC
EXTRN	__imp_??0Interval@@QEAA@HH@Z:PROC
EXTRN	__imp_?InInterval@Interval@@QEBAHH@Z:PROC
EXTRN	__imp_??IInterval@@QEBA?AV0@V0@@Z:PROC
EXTRN	__imp_?GetCOREInterface@@YAPEAVInterface@@XZ:PROC
EXTRN	__imp_?ReplaceReference@ReferenceMaker@@QEAA?AW4RefResult@@HPEAVReferenceTarget@@H@Z:PROC
EXTRN	__imp_?DeleteReference@ReferenceMaker@@QEAA?AW4RefResult@@H@Z:PROC
EXTRN	__imp_?GetInterface@ReferenceTarget@@UEAAPEAVBaseInterface@@VInterface_ID@@@Z:PROC
EXTRN	??_EShadeOutput@@UEAAPEAXI@Z:PROC		; ShadeOutput::`vector deleting destructor'
EXTRN	??_EShadeContext@@UEAAPEAXI@Z:PROC		; ShadeContext::`vector deleting destructor'
EXTRN	__imp_?GetSubTexmapTVName@ISubMap@@QEAA?AVWStr@@H@Z:PROC
EXTRN	__imp_??1MtlBase@@UEAA@XZ:PROC
EXTRN	__imp_??4MtlBase@@QEAAAEAV0@AEBV0@@Z:PROC
EXTRN	__imp_?GetInterface@MtlBase@@UEAAPEAXK@Z:PROC
EXTRN	__imp_??0Texmap@@QEAA@XZ:PROC
EXTRN	__imp_?GetNewDefaultTextureOutput@@YAPEAVTextureOutput@@XZ:PROC
EXTRN	__imp_??0ClassDesc2@@QEAA@XZ:PROC
EXTRN	__imp_??1ClassDesc2@@UEAA@XZ:PROC
EXTRN	__imp_?MakeAutoParamBlocks@ClassDesc2@@UEAAXPEAVReferenceMaker@@@Z:PROC
EXTRN	__imp_?SetUserDlgProc@ClassDesc2@@QEAA_NPEAVParamBlockDesc2@@FPEAVParamMap2UserDlgProc@@@Z:PROC
EXTRN	__imp_?CreateParamDlgs@ClassDesc2@@QEAAPEAVIAutoMParamDlg@@PEAUHWND__@@PEAVIMtlParams@@PEAVReferenceTarget@@@Z:PROC
EXTRN	__imp_??0ParamBlockDesc2@@QEAA@FPEB_W_JPEAVClassDesc2@@GZZ:PROC
EXTRN	__imp_??1ParamBlockDesc2@@UEAA@XZ:PROC
EXTRN	__imp_?InvalidateUI@ParamBlockDesc2@@QEAAXFH@Z:PROC
EXTRN	__imp_?SetUserDlgProc@ParamBlockDesc2@@QEAAXFPEAVParamMap2UserDlgProc@@@Z:PROC
EXTRN	??_EParamMap2UserDlgProc@@UEAAPEAXI@Z:PROC	; ParamMap2UserDlgProc::`vector deleting destructor'
EXTRN	?GetString@@YAPEA_WH@Z:PROC			; GetString
EXTRN	??_EXYZ_Desc@@UEAAPEAXI@Z:PROC			; XYZ_Desc::`vector deleting destructor'
EXTRN	??_EBerconXYZDlgProc@@UEAAPEAXI@Z:PROC		; BerconXYZDlgProc::`vector deleting destructor'
EXTRN	?update@BerconXYZ@@QEAAXPEAVIParamBlock2@@HAEAVInterval@@@Z:PROC ; BerconXYZ::update
EXTRN	?update@BerconXYZ@@QEAAXXZ:PROC			; BerconXYZ::update
EXTRN	?reset@BerconXYZ@@QEAAXPEAVIParamBlock2@@AEAVInterval@@HHHH@Z:PROC ; BerconXYZ::reset
EXTRN	?get@BerconXYZ@@QEAAHAEAVShadeContext@@AEAVPoint3@@@Z:PROC ; BerconXYZ::get
EXTRN	?get@BerconXYZ@@QEAAHAEAVShadeContext@@AEAVPoint3@@PEAV3@@Z:PROC ; BerconXYZ::get
EXTRN	?setPattern@TilePattern@@QEAAXV?$basic_string@_WU?$char_traits@_W@std@@V?$allocator@_W@2@@std@@@Z:PROC ; TilePattern::setPattern
EXTRN	?setPreset@TilePattern@@QEAAXH@Z:PROC		; TilePattern::setPreset
EXTRN	?draw@Tile@@SA?AVTilePoint@@VPoint3@@AEAVTileParam@@@Z:PROC ; Tile::draw
EXTRN	??_EBerconTile@@UEAAPEAXI@Z:PROC		; BerconTile::`vector deleting destructor'
EXTRN	??_EBerconTileClassDesc@@UEAAPEAXI@Z:PROC	; BerconTileClassDesc::`vector deleting destructor'
EXTRN	??_EBerconSC@@UEAAPEAXI@Z:PROC			; BerconSC::`vector deleting destructor'
EXTRN	??_EBerconTileDlgProc@@UEAAPEAXI@Z:PROC		; BerconTileDlgProc::`vector deleting destructor'
EXTRN	??0Exception@Util@MaxSDK@@QEAA@AEBV012@@Z:PROC	; MaxSDK::Util::Exception::Exception
EXTRN	??0OutOfRangeException@Util@MaxSDK@@QEAA@AEBV012@@Z:PROC ; MaxSDK::Util::OutOfRangeException::OutOfRangeException
EXTRN	?AddInterface@ClassDesc@@UEAAXPEAVFPInterface@@@Z:PROC ; ClassDesc::AddInterface
EXTRN	?AddParamBlockDesc@ClassDesc2@@UEAAXPEAVParamBlockDesc2@@@Z:PROC ; ClassDesc2::AddParamBlockDesc
EXTRN	?AutoDelete@ReferenceTarget@@UEAA?AW4RefResult@@XZ:PROC ; ReferenceTarget::AutoDelete
EXTRN	?BaseClone@MtlBase@@UEAAXPEAVReferenceTarget@@0AEAVRemapDir@@@Z:PROC ; MtlBase::BaseClone
EXTRN	?BeginEditParams@ClassDesc2@@UEAAXPEAVIObjParam@@PEAVReferenceMaker@@KPEAVAnimatable@@@Z:PROC ; ClassDesc2::BeginEditParams
EXTRN	?CreatePStamp@MtlBase@@UEAAPEAVPStamp@@HH@Z:PROC ; MtlBase::CreatePStamp
EXTRN	?DeleteAllRefsToMe@ReferenceTarget@@UEAA?AW4RefResult@@XZ:PROC ; ReferenceTarget::DeleteAllRefsToMe
EXTRN	?DiffuseIllum@ShadeContext@@UEAA?AVColor@@XZ:PROC ; ShadeContext::DiffuseIllum
EXTRN	?DiscardPStamp@MtlBase@@UEAAXH@Z:PROC		; MtlBase::DiscardPStamp
EXTRN	?DoEnumDependentsImpl@ReferenceTarget@@MEAAHPEAVDependentEnumProc@@@Z:PROC ; ReferenceTarget::DoEnumDependentsImpl
EXTRN	?EndEditParams@ClassDesc2@@UEAAXPEAVIObjParam@@PEAVReferenceMaker@@KPEAVAnimatable@@@Z:PROC ; ClassDesc2::EndEditParams
EXTRN	?EnumAuxFiles@MtlBase@@UEAAXAEAVAssetEnumCallback@@K@Z:PROC ; MtlBase::EnumAuxFiles
EXTRN	?EvalEnvironMap@ShadeContext@@UEAA?AVAColor@@PEAVTexmap@@VPoint3@@@Z:PROC ; ShadeContext::EvalEnvironMap
EXTRN	?GetFullName@MtlBase@@UEAA?AVWStr@@XZ:PROC	; MtlBase::GetFullName
EXTRN	?GetInterface@BaseInterfaceServer@@UEAAPEAVBaseInterface@@VInterface_ID@@@Z:PROC ; BaseInterfaceServer::GetInterface
EXTRN	?GetInterface@ClassDesc@@UEAAPEAVFPInterface@@PEB_W@Z:PROC ; ClassDesc::GetInterface
EXTRN	?GetInterface@ClassDesc@@UEAAPEAVFPInterface@@VInterface_ID@@@Z:PROC ; ClassDesc::GetInterface
EXTRN	?GetInterface@InterfaceServer@@UEAAPEAVBaseInterface@@VInterface_ID@@@Z:PROC ; InterfaceServer::GetInterface
EXTRN	?GetInterfaceAt@BaseInterfaceServer@@UEBAPEAVBaseInterface@@H@Z:PROC ; BaseInterfaceServer::GetInterfaceAt
EXTRN	?GetPStamp@MtlBase@@UEAAPEAVPStamp@@H@Z:PROC	; MtlBase::GetPStamp
EXTRN	?GetParamBlockDesc@ClassDesc2@@UEAAPEAVParamBlockDesc2@@H@Z:PROC ; ClassDesc2::GetParamBlockDesc
EXTRN	?GetParamBlockDescByID@ClassDesc2@@UEAAPEAVParamBlockDesc2@@F@Z:PROC ; ClassDesc2::GetParamBlockDescByID
EXTRN	?GetParamMap@ClassDesc2@@UEAAPEAVIParamMap2@@H@Z:PROC ; ClassDesc2::GetParamMap
EXTRN	?GetProperty@MtlBase@@UEAAPEAXK@Z:PROC		; MtlBase::GetProperty
EXTRN	?GetRsrcString@ClassDesc@@UEAAPEB_W_J@Z:PROC	; ClassDesc::GetRsrcString
EXTRN	?GetTimeRange@Animatable@@UEAA?AVInterval@@K@Z:PROC ; Animatable::GetTimeRange
EXTRN	?GetVPDisplayDIB@Texmap@@UEAAPEAUtagBITMAPINFO@@HAEAVTexHandleMaker@@AEAVInterval@@HHH@Z:PROC ; Texmap::GetVPDisplayDIB
EXTRN	?InvalidateUI@ClassDesc2@@UEAAXPEAVParamBlockDesc2@@@Z:PROC ; ClassDesc2::InvalidateUI
EXTRN	?IsAnimated@Animatable@@UEAAHXZ:PROC		; Animatable::IsAnimated
EXTRN	?IsOutputMeaningful@Texmap@@UEAA_NAEAVShadeContext@@@Z:PROC ; Texmap::IsOutputMeaningful
EXTRN	?Load@MtlBase@@UEAA?AW4IOResult@@PEAVILoad@@@Z:PROC ; MtlBase::Load
EXTRN	?MakeAutoParamBlocks@ClassDesc2@@UEAAXPEAVReferenceMaker@@@Z:PROC ; ClassDesc2::MakeAutoParamBlocks
EXTRN	?MapKeys@Animatable@@UEAAXPEAVTimeMap@@K@Z:PROC	; Animatable::MapKeys
EXTRN	?MouseCycleCompleted@Animatable@@UEAAXH@Z:PROC	; Animatable::MouseCycleCompleted
EXTRN	?MouseCycleStarted@Animatable@@UEAAXH@Z:PROC	; Animatable::MouseCycleStarted
EXTRN	?NodeName@Animatable@@UEAA?AVWStr@@XZ:PROC	; Animatable::NodeName
EXTRN	?NotifyDependents@ReferenceTarget@@UEAA?AW4RefResult@@AEBVInterval@@_KIKHPEAV1@W4NotifyDependentsOption@@@Z:PROC ; ReferenceTarget::NotifyDependents
EXTRN	?NumInterfaces@BaseInterfaceServer@@UEBAHXZ:PROC ; BaseInterfaceServer::NumInterfaces
EXTRN	?NumParamBlockDescs@ClassDesc2@@UEAAHXZ:PROC	; ClassDesc2::NumParamBlockDescs
EXTRN	?NumParamMaps@ClassDesc2@@UEAAHXZ:PROC		; ClassDesc2::NumParamMaps
EXTRN	?RefAdded@Texmap@@UEAAXPEAVReferenceMaker@@@Z:PROC ; Texmap::RefAdded
EXTRN	?ReleaseInterface@Animatable@@UEAAXKPEAX@Z:PROC	; Animatable::ReleaseInterface
EXTRN	?RenderBitmap@Texmap@@UEAAXHPEAVBitmap@@MH@Z:PROC ; Texmap::RenderBitmap
EXTRN	?Requirements@MtlBase@@UEAAKH@Z:PROC		; MtlBase::Requirements
EXTRN	?RescaleWorldUnits@ReferenceMaker@@UEAAXM@Z:PROC ; ReferenceMaker::RescaleWorldUnits
EXTRN	?ResetClassParams@ClassDesc2@@UEAAXH@Z:PROC	; ClassDesc2::ResetClassParams
EXTRN	?Save@MtlBase@@UEAA?AW4IOResult@@PEAVISave@@@Z:PROC ; MtlBase::Save
EXTRN	?SaveEnum@ReferenceMaker@@UEAAXAEAVSaveEnumProc@@H@Z:PROC ; ReferenceMaker::SaveEnum
EXTRN	?SetProperty@MtlBase@@UEAAHKPEAX@Z:PROC		; MtlBase::SetProperty
EXTRN	?SpecifySaveReferences@ReferenceMaker@@UEAA_NAEAVReferenceSaveManager@@@Z:PROC ; ReferenceMaker::SpecifySaveReferences
EXTRN	?SubAnimCommitSetKeyBuffer@Animatable@@UEAAXHH@Z:PROC ; Animatable::SubAnimCommitSetKeyBuffer
EXTRN	?SubAnimRevertSetKeyBuffer@Animatable@@UEAAXH@Z:PROC ; Animatable::SubAnimRevertSetKeyBuffer
EXTRN	?SubAnimSetKeyBufferPresent@Animatable@@UEAAHH@Z:PROC ; Animatable::SubAnimSetKeyBufferPresent
EXTRN	?SvCanConcludeLink@Animatable@@UEAA_NPEAVIGraphObjectManager@@PEAVIGraphNode@@1@Z:PROC ; Animatable::SvCanConcludeLink
EXTRN	?SvCanDetach@Animatable@@UEAA_NPEAVIGraphObjectManager@@PEAVIGraphNode@@@Z:PROC ; Animatable::SvCanDetach
EXTRN	?SvCanDetachRel@Animatable@@UEAA_NPEAVIGraphObjectManager@@PEAVIGraphNode@@H1@Z:PROC ; Animatable::SvCanDetachRel
EXTRN	?SvCanInitiateLink@Animatable@@UEAA_NPEAVIGraphObjectManager@@PEAVIGraphNode@@@Z:PROC ; Animatable::SvCanInitiateLink
EXTRN	?SvCanRemoveThis@Animatable@@UEAA_NPEAVIGraphObjectManager@@PEAVIGraphNode@@@Z:PROC ; Animatable::SvCanRemoveThis
EXTRN	?SvCanSelect@MtlBase@@UEAA_NPEAVIGraphObjectManager@@PEAVIGraphNode@@@Z:PROC ; MtlBase::SvCanSelect
EXTRN	?SvCanSetName@MtlBase@@UEAA_NPEAVIGraphObjectManager@@PEAVIGraphNode@@@Z:PROC ; MtlBase::SvCanSetName
EXTRN	?SvDetach@Animatable@@UEAA_NPEAVIGraphObjectManager@@PEAVIGraphNode@@@Z:PROC ; Animatable::SvDetach
EXTRN	?SvDetachRel@Animatable@@UEAA_NPEAVIGraphObjectManager@@PEAVIGraphNode@@H1@Z:PROC ; Animatable::SvDetachRel
EXTRN	?SvEditProperties@Animatable@@UEAA_NPEAVIGraphObjectManager@@PEAVIGraphNode@@@Z:PROC ; Animatable::SvEditProperties
EXTRN	?SvGetMultiSelectCallback@MtlBase@@UEAAPEAVMultiSelectCallback@@PEAVIGraphObjectManager@@PEAVIGraphNode@@@Z:PROC ; MtlBase::SvGetMultiSelectCallback
EXTRN	?SvGetName@MtlBase@@UEAA?AVWStr@@PEAVIGraphObjectManager@@PEAVIGraphNode@@_N@Z:PROC ; MtlBase::SvGetName
EXTRN	?SvGetRefTip@Animatable@@UEAA?AVWStr@@PEAVIGraphObjectManager@@PEAVIGraphNode@@1@Z:PROC ; Animatable::SvGetRefTip
EXTRN	?SvGetRelTip@Animatable@@UEAA?AVWStr@@PEAVIGraphObjectManager@@PEAVIGraphNode@@H1@Z:PROC ; Animatable::SvGetRelTip
EXTRN	?SvGetSwatchColor@Animatable@@UEAAKPEAVIGraphObjectManager@@PEAVIGraphNode@@@Z:PROC ; Animatable::SvGetSwatchColor
EXTRN	?SvGetTip@Animatable@@UEAA?AVWStr@@PEAVIGraphObjectManager@@PEAVIGraphNode@@@Z:PROC ; Animatable::SvGetTip
EXTRN	?SvHandleDoubleClick@MtlBase@@UEAA_NPEAVIGraphObjectManager@@PEAVIGraphNode@@@Z:PROC ; MtlBase::SvHandleDoubleClick
EXTRN	?SvHandleRelDoubleClick@Animatable@@UEAA_NPEAVIGraphObjectManager@@PEAVIGraphNode@@H1@Z:PROC ; Animatable::SvHandleRelDoubleClick
EXTRN	?SvHighlightColor@MtlBase@@UEAAKPEAVIGraphObjectManager@@PEAVIGraphNode@@@Z:PROC ; MtlBase::SvHighlightColor
EXTRN	?SvIsHighlighted@Animatable@@UEAA_NPEAVIGraphObjectManager@@PEAVIGraphNode@@@Z:PROC ; Animatable::SvIsHighlighted
EXTRN	?SvIsInactive@Animatable@@UEAA_NPEAVIGraphObjectManager@@PEAVIGraphNode@@@Z:PROC ; Animatable::SvIsInactive
EXTRN	?SvIsSelected@MtlBase@@UEAA_NPEAVIGraphObjectManager@@PEAVIGraphNode@@@Z:PROC ; MtlBase::SvIsSelected
EXTRN	?SvLinkChild@Animatable@@UEAA_NPEAVIGraphObjectManager@@PEAVIGraphNode@@1@Z:PROC ; Animatable::SvLinkChild
EXTRN	?SvRemoveThis@Animatable@@UEAA_NPEAVIGraphObjectManager@@PEAVIGraphNode@@@Z:PROC ; Animatable::SvRemoveThis
EXTRN	?SvSetName@MtlBase@@UEAA_NPEAVIGraphObjectManager@@PEAVIGraphNode@@AEBVWStr@@@Z:PROC ; MtlBase::SvSetName
EXTRN	?SvTraverseAnimGraph@Texmap@@UEAA?AVSvGraphNodeReference@@PEAVIGraphObjectManager@@PEAVAnimatable@@HK@Z:PROC ; Texmap::SvTraverseAnimGraph
EXTRN	?VectorFromNoScale@ShadeContext@@UEAA?AVPoint3@@AEBV2@W4RefFrame@@@Z:PROC ; ShadeContext::VectorFromNoScale
EXTRN	?VectorToNoScale@ShadeContext@@UEAA?AVPoint3@@AEBV2@W4RefFrame@@@Z:PROC ; ShadeContext::VectorToNoScale
EXTRN	_CxxThrowException:PROC
EXTRN	__CxxFrameHandler3:PROC
EXTRN	__GSHandlerCheck:PROC
EXTRN	__GSHandlerCheck_EH:PROC
EXTRN	__chkstk:PROC
EXTRN	__security_check_cookie:PROC
EXTRN	GUID_NULL:BYTE
EXTRN	??_7type_info@@6B@:BYTE				; type_info::`vftable'
EXTRN	__imp_?defaultDim@@3PEAVParamDimension@@EA:QWORD
EXTRN	__imp_?TEXMAP_CAT_3D@@3PA_WA:BYTE
EXTRN	?hInstance@@3PEAUHINSTANCE__@@EA:QWORD		; hInstance
EXTRN	__ImageBase:BYTE
EXTRN	__security_cookie:QWORD
EXTRN	_fltused:DWORD
_BSS	SEGMENT
?kInvalidId@AssetManagement@MaxSDK@@3UAssetId@12@A DB 010H DUP (?) ; MaxSDK::AssetManagement::kInvalidId
?kTriObjNormalXTCID@@3VClass_ID@@B DQ 01H DUP (?)	; kTriObjNormalXTCID
?intvalid@@3VInterval@@A DQ 01H DUP (?)			; intvalid
?BerconTileDesc@@3VBerconTileClassDesc@@A DB 038H DUP (?) ; BerconTileDesc
?xyz_blk@@3VXYZ_Desc@@A DB 080H DUP (?)			; xyz_blk
?BerconTile_param_blk@@3VParamBlockDesc2@@A DB 080H DUP (?) ; BerconTile_param_blk
?BerconMap_param_blk@@3VParamBlockDesc2@@A DB 080H DUP (?) ; BerconMap_param_blk
?black@@3VAColor@@A DB 010H DUP (?)			; black
?white@@3VAColor@@A DB 010H DUP (?)			; white
_BSS	ENDS
;	COMDAT pdata
pdata	SEGMENT
$pdata$??_H@YAXPEAX_K1P6APEAX0@Z@Z DD imagerel $LN5
	DD	imagerel $LN5+92
	DD	imagerel $unwind$??_H@YAXPEAX_K1P6APEAX0@Z@Z
pdata	ENDS
;	COMDAT pdata
pdata	SEGMENT
$pdata$wmemcpy DD imagerel $LN3
	DD	imagerel $LN3+50
	DD	imagerel $unwind$wmemcpy
pdata	ENDS
;	COMDAT pdata
pdata	SEGMENT
$pdata$wmemmove DD imagerel $LN3
	DD	imagerel $LN3+51
	DD	imagerel $unwind$wmemmove
pdata	ENDS
;	COMDAT pdata
pdata	SEGMENT
$pdata$??8Class_ID@@QEBA_NAEBV0@@Z DD imagerel $LN5
	DD	imagerel $LN5+73
	DD	imagerel $unwind$??8Class_ID@@QEBA_NAEBV0@@Z
pdata	ENDS
;	COMDAT pdata
pdata	SEGMENT
$pdata$??0TabOutOfRangeException@Util@MaxSDK@@QEAA@PEB_W@Z DD imagerel $LN4
	DD	imagerel $LN4+65
	DD	imagerel $unwind$??0TabOutOfRangeException@Util@MaxSDK@@QEAA@PEB_W@Z
pdata	ENDS
;	COMDAT pdata
pdata	SEGMENT
$pdata$?dtor$0@?0???0TabOutOfRangeException@Util@MaxSDK@@QEAA@PEB_W@Z@4HA DD imagerel ?dtor$0@?0???0TabOutOfRangeException@Util@MaxSDK@@QEAA@PEB_W@Z@4HA
	DD	imagerel ?dtor$0@?0???0TabOutOfRangeException@Util@MaxSDK@@QEAA@PEB_W@Z@4HA+25
	DD	imagerel $unwind$?dtor$0@?0???0TabOutOfRangeException@Util@MaxSDK@@QEAA@PEB_W@Z@4HA
pdata	ENDS
;	COMDAT pdata
pdata	SEGMENT
$pdata$?What@TabOutOfRangeException@Util@MaxSDK@@UEBAPEB_WXZ DD imagerel $LN5
	DD	imagerel $LN5+56
	DD	imagerel $unwind$?What@TabOutOfRangeException@Util@MaxSDK@@UEBAPEB_WXZ
pdata	ENDS
;	COMDAT pdata
pdata	SEGMENT
$pdata$??1TabOutOfRangeException@Util@MaxSDK@@UEAA@XZ DD imagerel $LN4
	DD	imagerel $LN4+35
	DD	imagerel $unwind$??1TabOutOfRangeException@Util@MaxSDK@@UEAA@XZ
pdata	ENDS
;	COMDAT pdata
pdata	SEGMENT
$pdata$?dtor$0@?0???1TabOutOfRangeException@Util@MaxSDK@@UEAA@XZ@4HA DD imagerel ?dtor$0@?0???1TabOutOfRangeException@Util@MaxSDK@@UEAA@XZ@4HA
	DD	imagerel ?dtor$0@?0???1TabOutOfRangeException@Util@MaxSDK@@UEAA@XZ@4HA+25
	DD	imagerel $unwind$?dtor$0@?0???1TabOutOfRangeException@Util@MaxSDK@@UEAA@XZ@4HA
pdata	ENDS
;	COMDAT pdata
pdata	SEGMENT
$pdata$??0TabOutOfRangeException@Util@MaxSDK@@QEAA@AEBV012@@Z DD imagerel $LN4
	DD	imagerel $LN4+65
	DD	imagerel $unwind$??0TabOutOfRangeException@Util@MaxSDK@@QEAA@AEBV012@@Z
pdata	ENDS
;	COMDAT pdata
pdata	SEGMENT
$pdata$?dtor$0@?0???0TabOutOfRangeException@Util@MaxSDK@@QEAA@AEBV012@@Z@4HA DD imagerel ?dtor$0@?0???0TabOutOfRangeException@Util@MaxSDK@@QEAA@AEBV012@@Z@4HA
	DD	imagerel ?dtor$0@?0???0TabOutOfRangeException@Util@MaxSDK@@QEAA@AEBV012@@Z@4HA+25
	DD	imagerel $unwind$?dtor$0@?0???0TabOutOfRangeException@Util@MaxSDK@@QEAA@AEBV012@@Z@4HA
pdata	ENDS
;	COMDAT pdata
pdata	SEGMENT
$pdata$??_GTabOutOfRangeException@Util@MaxSDK@@UEAAPEAXI@Z DD imagerel $LN7
	DD	imagerel $LN7+85
	DD	imagerel $unwind$??_GTabOutOfRangeException@Util@MaxSDK@@UEAAPEAXI@Z
pdata	ENDS
;	COMDAT pdata
pdata	SEGMENT
$pdata$?length@?$char_traits@_W@std@@SA_KPEB_W@Z DD imagerel $LN5
	DD	imagerel $LN5+58
	DD	imagerel $unwind$?length@?$char_traits@_W@std@@SA_KPEB_W@Z
pdata	ENDS
;	COMDAT pdata
pdata	SEGMENT
$pdata$?copy@?$char_traits@_W@std@@SAPEA_WPEA_WPEB_W_K@Z DD imagerel $LN5
	DD	imagerel $LN5+74
	DD	imagerel $unwind$?copy@?$char_traits@_W@std@@SAPEA_WPEA_WPEB_W_K@Z
pdata	ENDS
;	COMDAT pdata
pdata	SEGMENT
$pdata$?move@?$char_traits@_W@std@@SAPEA_WPEA_WPEB_W_K@Z DD imagerel $LN5
	DD	imagerel $LN5+74
	DD	imagerel $unwind$?move@?$char_traits@_W@std@@SAPEA_WPEA_WPEB_W_K@Z
pdata	ENDS
;	COMDAT pdata
pdata	SEGMENT
$pdata$??1_Container_base12@std@@QEAA@XZ DD imagerel $LN3
	DD	imagerel $LN3+34
	DD	imagerel $unwind$??1_Container_base12@std@@QEAA@XZ
pdata	ENDS
;	COMDAT pdata
pdata	SEGMENT
$pdata$?_Orphan_all@_Container_base12@std@@QEAAXXZ DD imagerel $LN8
	DD	imagerel $LN8+173
	DD	imagerel $unwind$?_Orphan_all@_Container_base12@std@@QEAAXXZ
pdata	ENDS
;	COMDAT pdata
pdata	SEGMENT
$pdata$?dtor$0@?0??_Orphan_all@_Container_base12@std@@QEAAXXZ@4HA DD imagerel ?dtor$0@?0??_Orphan_all@_Container_base12@std@@QEAAXXZ@4HA
	DD	imagerel ?dtor$0@?0??_Orphan_all@_Container_base12@std@@QEAAXXZ@4HA+25
	DD	imagerel $unwind$?dtor$0@?0??_Orphan_all@_Container_base12@std@@QEAAXXZ@4HA
pdata	ENDS
;	COMDAT pdata
pdata	SEGMENT
$pdata$?_Allocate@std@@YAPEAX_K0_N@Z DD imagerel $LN14
	DD	imagerel $LN14+517
	DD	imagerel $unwind$?_Allocate@std@@YAPEAX_K0_N@Z
pdata	ENDS
;	COMDAT pdata
pdata	SEGMENT
$pdata$?_Deallocate@std@@YAXPEAX_K1@Z DD imagerel $LN22
	DD	imagerel $LN22+947
	DD	imagerel $unwind$?_Deallocate@std@@YAXPEAX_K1@Z
pdata	ENDS
;	COMDAT pdata
pdata	SEGMENT
$pdata$??D@YA?AVPoint3@@MAEBV0@@Z DD imagerel $LN3
	DD	imagerel $LN3+109
	DD	imagerel $unwind$??D@YA?AVPoint3@@MAEBV0@@Z
pdata	ENDS
;	COMDAT pdata
pdata	SEGMENT
$pdata$??D@YA?AVPoint3@@AEBV0@M@Z DD imagerel $LN3
	DD	imagerel $LN3+109
	DD	imagerel $unwind$??D@YA?AVPoint3@@AEBV0@M@Z
pdata	ENDS
;	COMDAT pdata
pdata	SEGMENT
$pdata$??_GInterfaceServer@@UEAAPEAXI@Z DD imagerel $LN7
	DD	imagerel $LN7+86
	DD	imagerel $unwind$??_GInterfaceServer@@UEAAPEAXI@Z
pdata	ENDS
;	COMDAT pdata
pdata	SEGMENT
$pdata$??1?$Tab@PEAVBaseInterface@@@@QEAA@XZ DD imagerel $LN3
	DD	imagerel $LN3+38
	DD	imagerel $unwind$??1?$Tab@PEAVBaseInterface@@@@QEAA@XZ
pdata	ENDS
;	COMDAT pdata
pdata	SEGMENT
$pdata$??0BaseInterfaceServer@@QEAA@XZ DD imagerel $LN5
	DD	imagerel $LN5+72
	DD	imagerel $unwind$??0BaseInterfaceServer@@QEAA@XZ
pdata	ENDS
;	COMDAT pdata
pdata	SEGMENT
$pdata$?dtor$0@?0???0BaseInterfaceServer@@QEAA@XZ@4HA DD imagerel ?dtor$0@?0???0BaseInterfaceServer@@QEAA@XZ@4HA
	DD	imagerel ?dtor$0@?0???0BaseInterfaceServer@@QEAA@XZ@4HA+25
	DD	imagerel $unwind$?dtor$0@?0???0BaseInterfaceServer@@QEAA@XZ@4HA
pdata	ENDS
;	COMDAT pdata
pdata	SEGMENT
$pdata$?dtor$1@?0???0BaseInterfaceServer@@QEAA@XZ@4HA DD imagerel ?dtor$1@?0???0BaseInterfaceServer@@QEAA@XZ@4HA
	DD	imagerel ?dtor$1@?0???0BaseInterfaceServer@@QEAA@XZ@4HA+28
	DD	imagerel $unwind$?dtor$1@?0???0BaseInterfaceServer@@QEAA@XZ@4HA
pdata	ENDS
;	COMDAT pdata
pdata	SEGMENT
$pdata$??_GBaseInterfaceServer@@UEAAPEAXI@Z DD imagerel $LN7
	DD	imagerel $LN7+86
	DD	imagerel $unwind$??_GBaseInterfaceServer@@UEAAPEAXI@Z
pdata	ENDS
;	COMDAT pdata
pdata	SEGMENT
$pdata$??0AssetId@AssetManagement@MaxSDK@@QEAA@XZ DD imagerel $LN3
	DD	imagerel $LN3+37
	DD	imagerel $unwind$??0AssetId@AssetManagement@MaxSDK@@QEAA@XZ
pdata	ENDS
;	COMDAT pdata
pdata	SEGMENT
$pdata$??__EkInvalidId@AssetManagement@MaxSDK@@YAXXZ DD imagerel ??__EkInvalidId@AssetManagement@MaxSDK@@YAXXZ
	DD	imagerel ??__EkInvalidId@AssetManagement@MaxSDK@@YAXXZ+21
	DD	imagerel $unwind$??__EkInvalidId@AssetManagement@MaxSDK@@YAXXZ
pdata	ENDS
;	COMDAT pdata
pdata	SEGMENT
$pdata$??A?$Tab@PEAVFPInterface@@@@QEBAAEAPEAVFPInterface@@_J@Z DD imagerel $LN5
	DD	imagerel $LN5+108
	DD	imagerel $unwind$??A?$Tab@PEAVFPInterface@@@@QEBAAEAPEAVFPInterface@@_J@Z
pdata	ENDS
;	COMDAT pdata
pdata	SEGMENT
$pdata$?NumInterfaces@ClassDesc@@UEAAHXZ DD imagerel $LN3
	DD	imagerel $LN3+31
	DD	imagerel $unwind$?NumInterfaces@ClassDesc@@UEAAHXZ
pdata	ENDS
;	COMDAT pdata
pdata	SEGMENT
$pdata$?GetInterfaceAt@ClassDesc@@UEAAPEAVFPInterface@@H@Z DD imagerel $LN3
	DD	imagerel $LN3+43
	DD	imagerel $unwind$?GetInterfaceAt@ClassDesc@@UEAAPEAVFPInterface@@H@Z
pdata	ENDS
;	COMDAT pdata
pdata	SEGMENT
$pdata$?ClearInterfaces@ClassDesc@@UEAAXXZ DD imagerel $LN3
	DD	imagerel $LN3+31
	DD	imagerel $unwind$?ClearInterfaces@ClassDesc@@UEAAXXZ
pdata	ENDS
;	COMDAT pdata
pdata	SEGMENT
$pdata$?SubClassID@ClassDesc@@UEAA?AVClass_ID@@XZ DD imagerel $LN3
	DD	imagerel $LN3+34
	DD	imagerel $unwind$?SubClassID@ClassDesc@@UEAA?AVClass_ID@@XZ
pdata	ENDS
;	COMDAT pdata
pdata	SEGMENT
$pdata$?Set@BitArray@@QEAAXH@Z DD imagerel $LN6
	DD	imagerel $LN6+188
	DD	imagerel $unwind$?Set@BitArray@@QEAAXH@Z
pdata	ENDS
;	COMDAT pdata
pdata	SEGMENT
$pdata$?UseLocalBits@BitArray@@AEBA_NXZ DD imagerel $LN5
	DD	imagerel $LN5+45
	DD	imagerel $unwind$?UseLocalBits@BitArray@@AEBA_NXZ
pdata	ENDS
;	COMDAT pdata
pdata	SEGMENT
$pdata$?BitMask@BitArray@@AEBA_KH@Z DD imagerel $LN5
	DD	imagerel $LN5+68
	DD	imagerel $unwind$?BitMask@BitArray@@AEBA_KH@Z
pdata	ENDS
;	COMDAT pdata
pdata	SEGMENT
$pdata$??HAColor@@QEBA?AV0@AEBV0@@Z DD imagerel $LN3
	DD	imagerel $LN3+141
	DD	imagerel $unwind$??HAColor@@QEBA?AV0@AEBV0@@Z
pdata	ENDS
;	COMDAT pdata
pdata	SEGMENT
$pdata$??D@YA?AVAColor@@MAEBV0@@Z DD imagerel $LN3
	DD	imagerel $LN3+127
	DD	imagerel $unwind$??D@YA?AVAColor@@MAEBV0@@Z
pdata	ENDS
;	COMDAT pdata
pdata	SEGMENT
$pdata$??0Interval@@QEAA@XZ DD imagerel $LN3
	DD	imagerel $LN3+29
	DD	imagerel $unwind$??0Interval@@QEAA@XZ
pdata	ENDS
;	COMDAT pdata
pdata	SEGMENT
$pdata$??_4Interval@@QEAAAEAV0@V0@@Z DD imagerel $LN3
	DD	imagerel $LN3+56
	DD	imagerel $unwind$??_4Interval@@QEAAAEAV0@V0@@Z
pdata	ENDS
;	COMDAT pdata
pdata	SEGMENT
$pdata$?BypassTrackBar@Animatable@@UEAAHXZ DD imagerel $LN3
	DD	imagerel $LN3+33
	DD	imagerel $unwind$?BypassTrackBar@Animatable@@UEAAHXZ
pdata	ENDS
;	COMDAT pdata
pdata	SEGMENT
$pdata$?IsSubClassOf@Animatable@@UEAAHVClass_ID@@@Z DD imagerel $LN3
	DD	imagerel $LN3+56
	DD	imagerel $unwind$?IsSubClassOf@Animatable@@UEAAHVClass_ID@@@Z
pdata	ENDS
;	COMDAT pdata
pdata	SEGMENT
$pdata$?NotifyForeground@ReferenceTarget@@UEAAXH@Z DD imagerel $LN3
	DD	imagerel $LN3+115
	DD	imagerel $unwind$?NotifyForeground@ReferenceTarget@@UEAAXH@Z
pdata	ENDS
;	COMDAT pdata
pdata	SEGMENT
$pdata$?NRenderElements@RenderGlobalContext@@QEAAHXZ DD imagerel $LN5
	DD	imagerel $LN5+71
	DD	imagerel $unwind$?NRenderElements@RenderGlobalContext@@QEAAHXZ
pdata	ENDS
;	COMDAT pdata
pdata	SEGMENT
$pdata$?GetRenderElement@RenderGlobalContext@@QEAAPEAVIRenderElement@@H@Z DD imagerel $LN5
	DD	imagerel $LN5+82
	DD	imagerel $unwind$?GetRenderElement@RenderGlobalContext@@QEAAPEAVIRenderElement@@H@Z
pdata	ENDS
;	COMDAT pdata
pdata	SEGMENT
$pdata$??0ShadeOutput@@QEAA@XZ DD imagerel $LN4
	DD	imagerel $LN4+160
	DD	imagerel $unwind$??0ShadeOutput@@QEAA@XZ
pdata	ENDS
;	COMDAT pdata
pdata	SEGMENT
$pdata$?dtor$0@?0???0ShadeOutput@@QEAA@XZ@4HA DD imagerel ?dtor$0@?0???0ShadeOutput@@QEAA@XZ@4HA
	DD	imagerel ?dtor$0@?0???0ShadeOutput@@QEAA@XZ@4HA+25
	DD	imagerel $unwind$?dtor$0@?0???0ShadeOutput@@QEAA@XZ@4HA
pdata	ENDS
;	COMDAT pdata
pdata	SEGMENT
$pdata$??4ShadeOutput@@QEAAAEAV0@AEBV0@@Z DD imagerel $LN6
	DD	imagerel $LN6+231
	DD	imagerel $unwind$??4ShadeOutput@@QEAAAEAV0@AEBV0@@Z
pdata	ENDS
;	COMDAT pdata
pdata	SEGMENT
$pdata$??1ShadeOutput@@UEAA@XZ DD imagerel $LN4
	DD	imagerel $LN4+35
	DD	imagerel $unwind$??1ShadeOutput@@UEAA@XZ
pdata	ENDS
;	COMDAT pdata
pdata	SEGMENT
$pdata$?dtor$0@?0???1ShadeOutput@@UEAA@XZ@4HA DD imagerel ?dtor$0@?0???1ShadeOutput@@UEAA@XZ@4HA
	DD	imagerel ?dtor$0@?0???1ShadeOutput@@UEAA@XZ@4HA+25
	DD	imagerel $unwind$?dtor$0@?0???1ShadeOutput@@UEAA@XZ@4HA
pdata	ENDS
;	COMDAT pdata
pdata	SEGMENT
$pdata$??_GShadeOutput@@UEAAPEAXI@Z DD imagerel $LN7
	DD	imagerel $LN7+85
	DD	imagerel $unwind$??_GShadeOutput@@UEAAPEAXI@Z
pdata	ENDS
;	COMDAT pdata
pdata	SEGMENT
$pdata$?ClassID@ShadeContext@@UEAA?AVClass_ID@@XZ DD imagerel $LN3
	DD	imagerel $LN3+39
	DD	imagerel $unwind$?ClassID@ShadeContext@@UEAA?AVClass_ID@@XZ
pdata	ENDS
;	COMDAT pdata
pdata	SEGMENT
$pdata$?BarycentricCoords@ShadeContext@@UEAA?AVPoint3@@XZ DD imagerel $LN3
	DD	imagerel $LN3+43
	DD	imagerel $unwind$?BarycentricCoords@ShadeContext@@UEAA?AVPoint3@@XZ
pdata	ENDS
;	COMDAT pdata
pdata	SEGMENT
$pdata$?OrigNormal@ShadeContext@@UEAA?AVPoint3@@XZ DD imagerel $LN3
	DD	imagerel $LN3+45
	DD	imagerel $unwind$?OrigNormal@ShadeContext@@UEAA?AVPoint3@@XZ
pdata	ENDS
;	COMDAT pdata
pdata	SEGMENT
$pdata$?OrigView@ShadeContext@@UEAA?AVPoint3@@XZ DD imagerel $LN3
	DD	imagerel $LN3+48
	DD	imagerel $unwind$?OrigView@ShadeContext@@UEAA?AVPoint3@@XZ
pdata	ENDS
;	COMDAT pdata
pdata	SEGMENT
$pdata$?SurfacePtScreen@ShadeContext@@UEAA?AVPoint2@@XZ DD imagerel $LN3
	DD	imagerel $LN3+41
	DD	imagerel $unwind$?SurfacePtScreen@ShadeContext@@UEAA?AVPoint2@@XZ
pdata	ENDS
;	COMDAT pdata
pdata	SEGMENT
$pdata$?UVWNormal@ShadeContext@@UEAA?AVPoint3@@H@Z DD imagerel $LN3
	DD	imagerel $LN3+51
	DD	imagerel $unwind$?UVWNormal@ShadeContext@@UEAA?AVPoint3@@H@Z
pdata	ENDS
;	COMDAT pdata
pdata	SEGMENT
$pdata$?RayDiam@ShadeContext@@UEAAMXZ DD imagerel $LN3
	DD	imagerel $LN3+47
	DD	imagerel $unwind$?RayDiam@ShadeContext@@UEAAMXZ
pdata	ENDS
;	COMDAT pdata
pdata	SEGMENT
$pdata$?EvalGlobalEnvironMap@ShadeContext@@UEAA?AVAColor@@VPoint3@@@Z DD imagerel $LN3
	DD	imagerel $LN3+55
	DD	imagerel $unwind$?EvalGlobalEnvironMap@ShadeContext@@UEAA?AVAColor@@VPoint3@@@Z
pdata	ENDS
;	COMDAT pdata
pdata	SEGMENT
$pdata$?NRenderElements@ShadeContext@@UEAAHXZ DD imagerel $LN5
	DD	imagerel $LN5+58
	DD	imagerel $unwind$?NRenderElements@ShadeContext@@UEAAHXZ
pdata	ENDS
;	COMDAT pdata
pdata	SEGMENT
$pdata$?GetRenderElement@ShadeContext@@UEAAPEAVIRenderElement@@H@Z DD imagerel $LN5
	DD	imagerel $LN5+69
	DD	imagerel $unwind$?GetRenderElement@ShadeContext@@UEAAPEAVIRenderElement@@H@Z
pdata	ENDS
;	COMDAT pdata
pdata	SEGMENT
$pdata$??0ShadeContext@@QEAA@XZ DD imagerel $LN5
	DD	imagerel $LN5+163
	DD	imagerel $unwind$??0ShadeContext@@QEAA@XZ
pdata	ENDS
;	COMDAT pdata
pdata	SEGMENT
$pdata$?dtor$0@?0???0ShadeContext@@QEAA@XZ@4HA DD imagerel ?dtor$0@?0???0ShadeContext@@QEAA@XZ@4HA
	DD	imagerel ?dtor$0@?0???0ShadeContext@@QEAA@XZ@4HA+25
	DD	imagerel $unwind$?dtor$0@?0???0ShadeContext@@QEAA@XZ@4HA
pdata	ENDS
;	COMDAT pdata
pdata	SEGMENT
$pdata$?dtor$1@?0???0ShadeContext@@QEAA@XZ@4HA DD imagerel ?dtor$1@?0???0ShadeContext@@QEAA@XZ@4HA
	DD	imagerel ?dtor$1@?0???0ShadeContext@@QEAA@XZ@4HA+28
	DD	imagerel $unwind$?dtor$1@?0???0ShadeContext@@QEAA@XZ@4HA
pdata	ENDS
;	COMDAT pdata
pdata	SEGMENT
$pdata$??1ShadeContext@@UEAA@XZ DD imagerel $LN5
	DD	imagerel $LN5+53
	DD	imagerel $unwind$??1ShadeContext@@UEAA@XZ
pdata	ENDS
;	COMDAT pdata
pdata	SEGMENT
$pdata$?dtor$0@?0???1ShadeContext@@UEAA@XZ@4HA DD imagerel ?dtor$0@?0???1ShadeContext@@UEAA@XZ@4HA
	DD	imagerel ?dtor$0@?0???1ShadeContext@@UEAA@XZ@4HA+25
	DD	imagerel $unwind$?dtor$0@?0???1ShadeContext@@UEAA@XZ@4HA
pdata	ENDS
;	COMDAT pdata
pdata	SEGMENT
$pdata$?dtor$1@?0???1ShadeContext@@UEAA@XZ@4HA DD imagerel ?dtor$1@?0???1ShadeContext@@UEAA@XZ@4HA
	DD	imagerel ?dtor$1@?0???1ShadeContext@@UEAA@XZ@4HA+28
	DD	imagerel $unwind$?dtor$1@?0???1ShadeContext@@UEAA@XZ@4HA
pdata	ENDS
;	COMDAT pdata
pdata	SEGMENT
$pdata$??_GShadeContext@@UEAAPEAXI@Z DD imagerel $LN7
	DD	imagerel $LN7+85
	DD	imagerel $unwind$??_GShadeContext@@UEAAPEAXI@Z
pdata	ENDS
;	COMDAT pdata
pdata	SEGMENT
$pdata$?GetInterface@MtlBase@@UEAAPEAVBaseInterface@@VInterface_ID@@@Z DD imagerel $LN3
	DD	imagerel $LN3+58
	DD	imagerel $unwind$?GetInterface@MtlBase@@UEAAPEAVBaseInterface@@VInterface_ID@@@Z
pdata	ENDS
;	COMDAT pdata
pdata	SEGMENT
$pdata$?GetUVTransform@Texmap@@UEAAXAEAVMatrix3@@@Z DD imagerel $LN3
	DD	imagerel $LN3+30
	DD	imagerel $unwind$?GetUVTransform@Texmap@@UEAAXAEAVMatrix3@@@Z
pdata	ENDS
;	COMDAT pdata
pdata	SEGMENT
$pdata$??1Texmap@@UEAA@XZ DD imagerel $LN4
	DD	imagerel $LN4+35
	DD	imagerel $unwind$??1Texmap@@UEAA@XZ
pdata	ENDS
;	COMDAT pdata
pdata	SEGMENT
$pdata$?dtor$0@?0???1Texmap@@UEAA@XZ@4HA DD imagerel ?dtor$0@?0???1Texmap@@UEAA@XZ@4HA
	DD	imagerel ?dtor$0@?0???1Texmap@@UEAA@XZ@4HA+25
	DD	imagerel $unwind$?dtor$0@?0???1Texmap@@UEAA@XZ@4HA
pdata	ENDS
;	COMDAT pdata
pdata	SEGMENT
$pdata$??__EkTriObjNormalXTCID@@YAXXZ DD imagerel ??__EkTriObjNormalXTCID@@YAXXZ
	DD	imagerel ??__EkTriObjNormalXTCID@@YAXXZ+32
	DD	imagerel $unwind$??__EkTriObjNormalXTCID@@YAXXZ
pdata	ENDS
;	COMDAT pdata
pdata	SEGMENT
$pdata$?SetUserDlgProc@ClassDesc2@@UEAA_NPEAVParamBlockDesc2@@PEAVParamMap2UserDlgProc@@@Z DD imagerel $LN3
	DD	imagerel $LN3+48
	DD	imagerel $unwind$?SetUserDlgProc@ClassDesc2@@UEAA_NPEAVParamBlockDesc2@@PEAVParamMap2UserDlgProc@@@Z
pdata	ENDS
;	COMDAT pdata
pdata	SEGMENT
$pdata$?SetUserDlgProc@ParamBlockDesc2@@QEAAXPEAVParamMap2UserDlgProc@@@Z DD imagerel $LN3
	DD	imagerel $LN3+37
	DD	imagerel $unwind$?SetUserDlgProc@ParamBlockDesc2@@QEAAXPEAVParamMap2UserDlgProc@@@Z
pdata	ENDS
;	COMDAT pdata
pdata	SEGMENT
$pdata$?__autoclassinit2@ParamBlockDesc2@@QEAAX_K@Z DD imagerel $LN3
	DD	imagerel $LN3+27
	DD	imagerel $unwind$?__autoclassinit2@ParamBlockDesc2@@QEAAX_K@Z
pdata	ENDS
;	COMDAT pdata
pdata	SEGMENT
$pdata$?Update@ParamMap2UserDlgProc@@UEAAXHAEAVInterval@@PEAVIParamMap2@@@Z DD imagerel $LN3
	DD	imagerel $LN3+48
	DD	imagerel $unwind$?Update@ParamMap2UserDlgProc@@UEAAXHAEAVInterval@@PEAVIParamMap2@@@Z
pdata	ENDS
;	COMDAT pdata
pdata	SEGMENT
$pdata$??_GParamMap2UserDlgProc@@UEAAPEAXI@Z DD imagerel $LN7
	DD	imagerel $LN7+85
	DD	imagerel $unwind$??_GParamMap2UserDlgProc@@UEAAPEAXI@Z
pdata	ENDS
;	COMDAT pdata
pdata	SEGMENT
$pdata$??__Eintvalid@@YAXXZ DD imagerel ??__Eintvalid@@YAXXZ
	DD	imagerel ??__Eintvalid@@YAXXZ+33
	DD	imagerel $unwind$??__Eintvalid@@YAXXZ
pdata	ENDS
;	COMDAT pdata
pdata	SEGMENT
$pdata$??0XYZ_Desc@@QEAA@PEAVClassDesc2@@HHHHHHH@Z DD imagerel $LN4
	DD	imagerel $LN4+5732
	DD	imagerel $unwind$??0XYZ_Desc@@QEAA@PEAVClassDesc2@@HHHHHHH@Z
pdata	ENDS
;	COMDAT pdata
pdata	SEGMENT
$pdata$?dtor$0@?0???0XYZ_Desc@@QEAA@PEAVClassDesc2@@HHHHHHH@Z@4HA DD imagerel ?dtor$0@?0???0XYZ_Desc@@QEAA@PEAVClassDesc2@@HHHHHHH@Z@4HA
	DD	imagerel ?dtor$0@?0???0XYZ_Desc@@QEAA@PEAVClassDesc2@@HHHHHHH@Z@4HA+28
	DD	imagerel $unwind$?dtor$0@?0???0XYZ_Desc@@QEAA@PEAVClassDesc2@@HHHHHHH@Z@4HA
pdata	ENDS
;	COMDAT pdata
pdata	SEGMENT
$pdata$??1XYZ_Desc@@UEAA@XZ DD imagerel $LN4
	DD	imagerel $LN4+35
	DD	imagerel $unwind$??1XYZ_Desc@@UEAA@XZ
pdata	ENDS
;	COMDAT pdata
pdata	SEGMENT
$pdata$?dtor$0@?0???1XYZ_Desc@@UEAA@XZ@4HA DD imagerel ?dtor$0@?0???1XYZ_Desc@@UEAA@XZ@4HA
	DD	imagerel ?dtor$0@?0???1XYZ_Desc@@UEAA@XZ@4HA+25
	DD	imagerel $unwind$?dtor$0@?0???1XYZ_Desc@@UEAA@XZ@4HA
pdata	ENDS
;	COMDAT pdata
pdata	SEGMENT
$pdata$?__autoclassinit2@XYZ_Desc@@QEAAX_K@Z DD imagerel $LN3
	DD	imagerel $LN3+27
	DD	imagerel $unwind$?__autoclassinit2@XYZ_Desc@@QEAAX_K@Z
pdata	ENDS
;	COMDAT pdata
pdata	SEGMENT
$pdata$??_GXYZ_Desc@@UEAAPEAXI@Z DD imagerel $LN7
	DD	imagerel $LN7+85
	DD	imagerel $unwind$??_GXYZ_Desc@@UEAAPEAXI@Z
pdata	ENDS
;	COMDAT pdata
pdata	SEGMENT
$pdata$??0BerconXYZDlgProc@@QEAA@PEAVReferenceTarget@@@Z DD imagerel $LN4
	DD	imagerel $LN4+73
	DD	imagerel $unwind$??0BerconXYZDlgProc@@QEAA@PEAVReferenceTarget@@@Z
pdata	ENDS
;	COMDAT pdata
pdata	SEGMENT
$pdata$?dtor$0@?0???0BerconXYZDlgProc@@QEAA@PEAVReferenceTarget@@@Z@4HA DD imagerel ?dtor$0@?0???0BerconXYZDlgProc@@QEAA@PEAVReferenceTarget@@@Z@4HA
	DD	imagerel ?dtor$0@?0???0BerconXYZDlgProc@@QEAA@PEAVReferenceTarget@@@Z@4HA+24
	DD	imagerel $unwind$?dtor$0@?0???0BerconXYZDlgProc@@QEAA@PEAVReferenceTarget@@@Z@4HA
pdata	ENDS
;	COMDAT pdata
pdata	SEGMENT
$pdata$?DlgProc@BerconXYZDlgProc@@UEAA_JHPEAVIParamMap2@@PEAUHWND__@@I_K_J@Z DD imagerel $LN8
	DD	imagerel $LN8+1507
	DD	imagerel $unwind$?DlgProc@BerconXYZDlgProc@@UEAA_JHPEAVIParamMap2@@PEAUHWND__@@I_K_J@Z
pdata	ENDS
;	COMDAT pdata
pdata	SEGMENT
$pdata$?DeleteThis@BerconXYZDlgProc@@UEAAXXZ DD imagerel $LN5
	DD	imagerel $LN5+78
	DD	imagerel $unwind$?DeleteThis@BerconXYZDlgProc@@UEAAXXZ
pdata	ENDS
;	COMDAT pdata
pdata	SEGMENT
$pdata$??1BerconXYZDlgProc@@UEAA@XZ DD imagerel $LN4
	DD	imagerel $LN4+34
	DD	imagerel $unwind$??1BerconXYZDlgProc@@UEAA@XZ
pdata	ENDS
;	COMDAT pdata
pdata	SEGMENT
$pdata$?dtor$0@?0???1BerconXYZDlgProc@@UEAA@XZ@4HA DD imagerel ?dtor$0@?0???1BerconXYZDlgProc@@UEAA@XZ@4HA
	DD	imagerel ?dtor$0@?0???1BerconXYZDlgProc@@UEAA@XZ@4HA+24
	DD	imagerel $unwind$?dtor$0@?0???1BerconXYZDlgProc@@UEAA@XZ@4HA
pdata	ENDS
;	COMDAT pdata
pdata	SEGMENT
$pdata$?__autoclassinit2@BerconXYZDlgProc@@QEAAX_K@Z DD imagerel $LN3
	DD	imagerel $LN3+27
	DD	imagerel $unwind$?__autoclassinit2@BerconXYZDlgProc@@QEAAX_K@Z
pdata	ENDS
;	COMDAT pdata
pdata	SEGMENT
$pdata$??_GBerconXYZDlgProc@@UEAAPEAXI@Z DD imagerel $LN7
	DD	imagerel $LN7+85
	DD	imagerel $unwind$??_GBerconXYZDlgProc@@UEAAPEAXI@Z
pdata	ENDS
;	COMDAT pdata
pdata	SEGMENT
$pdata$??0BerconXYZ@@QEAA@XZ DD imagerel $LN3
	DD	imagerel $LN3+156
	DD	imagerel $unwind$??0BerconXYZ@@QEAA@XZ
pdata	ENDS
;	COMDAT pdata
pdata	SEGMENT
$pdata$?map@BerconXYZ@@QEAAXHAEAVBitArray@@0@Z DD imagerel $LN5
	DD	imagerel $LN5+66
	DD	imagerel $unwind$?map@BerconXYZ@@QEAAXHAEAVBitArray@@0@Z
pdata	ENDS
;	COMDAT pdata
pdata	SEGMENT
$pdata$?isRealworld@BerconXYZ@@QEAAHXZ DD imagerel $LN5
	DD	imagerel $LN5+53
	DD	imagerel $unwind$?isRealworld@BerconXYZ@@QEAAHXZ
pdata	ENDS
;	COMDAT pdata
pdata	SEGMENT
$pdata$?deallocate@?$allocator@_W@std@@QEAAXPEA_W_K@Z DD imagerel $LN3
	DD	imagerel $LN3+45
	DD	imagerel $unwind$?deallocate@?$allocator@_W@std@@QEAAXPEA_W_K@Z
pdata	ENDS
;	COMDAT pdata
pdata	SEGMENT
$pdata$?allocate@?$allocator@_W@std@@QEAAPEA_W_K@Z DD imagerel $LN3
	DD	imagerel $LN3+37
	DD	imagerel $unwind$?allocate@?$allocator@_W@std@@QEAAPEA_W_K@Z
pdata	ENDS
;	COMDAT pdata
pdata	SEGMENT
$pdata$?max_size@?$allocator_traits@V?$allocator@_W@std@@@std@@SA_KAEBV?$allocator@_W@2@@Z DD imagerel $LN3
	DD	imagerel $LN3+24
	DD	imagerel $unwind$?max_size@?$allocator_traits@V?$allocator@_W@std@@@std@@SA_KAEBV?$allocator@_W@2@@Z
pdata	ENDS
;	COMDAT pdata
pdata	SEGMENT
$pdata$??0?$_Wrap_alloc@V?$allocator@_W@std@@@std@@QEAA@XZ DD imagerel $LN3
	DD	imagerel $LN3+29
	DD	imagerel $unwind$??0?$_Wrap_alloc@V?$allocator@_W@std@@@std@@QEAA@XZ
pdata	ENDS
;	COMDAT pdata
pdata	SEGMENT
$pdata$?allocate@?$_Wrap_alloc@V?$allocator@_W@std@@@std@@QEAAPEA_W_K@Z DD imagerel $LN3
	DD	imagerel $LN3+34
	DD	imagerel $unwind$?allocate@?$_Wrap_alloc@V?$allocator@_W@std@@@std@@QEAAPEA_W_K@Z
pdata	ENDS
;	COMDAT pdata
pdata	SEGMENT
$pdata$?deallocate@?$_Wrap_alloc@V?$allocator@_W@std@@@std@@QEAAXPEA_W_K@Z DD imagerel $LN3
	DD	imagerel $LN3+44
	DD	imagerel $unwind$?deallocate@?$_Wrap_alloc@V?$allocator@_W@std@@@std@@QEAAXPEA_W_K@Z
pdata	ENDS
;	COMDAT pdata
pdata	SEGMENT
$pdata$?max_size@?$_Wrap_alloc@V?$allocator@_W@std@@@std@@QEBA_KU_Nil@2@@Z DD imagerel $LN3
	DD	imagerel $LN3+28
	DD	imagerel $unwind$?max_size@?$_Wrap_alloc@V?$allocator@_W@std@@@std@@QEBA_KU_Nil@2@@Z
pdata	ENDS
;	COMDAT pdata
pdata	SEGMENT
$pdata$??0?$_String_val@U?$_Simple_types@_W@std@@@std@@QEAA@XZ DD imagerel $LN5
	DD	imagerel $LN5+83
	DD	imagerel $unwind$??0?$_String_val@U?$_Simple_types@_W@std@@@std@@QEAA@XZ
pdata	ENDS
;	COMDAT pdata
pdata	SEGMENT
$pdata$?dtor$0@?0???0?$_String_val@U?$_Simple_types@_W@std@@@std@@QEAA@XZ@4HA DD imagerel ?dtor$0@?0???0?$_String_val@U?$_Simple_types@_W@std@@@std@@QEAA@XZ@4HA
	DD	imagerel ?dtor$0@?0???0?$_String_val@U?$_Simple_types@_W@std@@@std@@QEAA@XZ@4HA+24
	DD	imagerel $unwind$?dtor$0@?0???0?$_String_val@U?$_Simple_types@_W@std@@@std@@QEAA@XZ@4HA
pdata	ENDS
;	COMDAT pdata
pdata	SEGMENT
$pdata$?dtor$1@?0???0?$_String_val@U?$_Simple_types@_W@std@@@std@@QEAA@XZ@4HA DD imagerel ?dtor$1@?0???0?$_String_val@U?$_Simple_types@_W@std@@@std@@QEAA@XZ@4HA
	DD	imagerel ?dtor$1@?0???0?$_String_val@U?$_Simple_types@_W@std@@@std@@QEAA@XZ@4HA+28
	DD	imagerel $unwind$?dtor$1@?0???0?$_String_val@U?$_Simple_types@_W@std@@@std@@QEAA@XZ@4HA
pdata	ENDS
;	COMDAT pdata
pdata	SEGMENT
$pdata$?_Myptr@?$_String_val@U?$_Simple_types@_W@std@@@std@@QEAAPEA_WXZ DD imagerel $LN5
	DD	imagerel $LN5+66
	DD	imagerel $unwind$?_Myptr@?$_String_val@U?$_Simple_types@_W@std@@@std@@QEAAPEA_WXZ
pdata	ENDS
;	COMDAT pdata
pdata	SEGMENT
$pdata$?_Myptr@?$_String_val@U?$_Simple_types@_W@std@@@std@@QEBAPEB_WXZ DD imagerel $LN5
	DD	imagerel $LN5+66
	DD	imagerel $unwind$?_Myptr@?$_String_val@U?$_Simple_types@_W@std@@@std@@QEBAPEB_WXZ
pdata	ENDS
;	COMDAT pdata
pdata	SEGMENT
$pdata$??1?$_String_val@U?$_Simple_types@_W@std@@@std@@QEAA@XZ DD imagerel $LN5
	DD	imagerel $LN5+52
	DD	imagerel $unwind$??1?$_String_val@U?$_Simple_types@_W@std@@@std@@QEAA@XZ
pdata	ENDS
;	COMDAT pdata
pdata	SEGMENT
$pdata$?dtor$0@?0???1?$_String_val@U?$_Simple_types@_W@std@@@std@@QEAA@XZ@4HA DD imagerel ?dtor$0@?0???1?$_String_val@U?$_Simple_types@_W@std@@@std@@QEAA@XZ@4HA
	DD	imagerel ?dtor$0@?0???1?$_String_val@U?$_Simple_types@_W@std@@@std@@QEAA@XZ@4HA+24
	DD	imagerel $unwind$?dtor$0@?0???1?$_String_val@U?$_Simple_types@_W@std@@@std@@QEAA@XZ@4HA
pdata	ENDS
;	COMDAT pdata
pdata	SEGMENT
$pdata$?dtor$1@?0???1?$_String_val@U?$_Simple_types@_W@std@@@std@@QEAA@XZ@4HA DD imagerel ?dtor$1@?0???1?$_String_val@U?$_Simple_types@_W@std@@@std@@QEAA@XZ@4HA
	DD	imagerel ?dtor$1@?0???1?$_String_val@U?$_Simple_types@_W@std@@@std@@QEAA@XZ@4HA+28
	DD	imagerel $unwind$?dtor$1@?0???1?$_String_val@U?$_Simple_types@_W@std@@@std@@QEAA@XZ@4HA
pdata	ENDS
;	COMDAT pdata
pdata	SEGMENT
$pdata$?_Myptr@?$_String_alloc@U?$_String_base_types@_WV?$allocator@_W@std@@@std@@@std@@QEAAPEA_WXZ DD imagerel $LN3
	DD	imagerel $LN3+32
	DD	imagerel $unwind$?_Myptr@?$_String_alloc@U?$_String_base_types@_WV?$allocator@_W@std@@@std@@@std@@QEAAPEA_WXZ
pdata	ENDS
;	COMDAT pdata
pdata	SEGMENT
$pdata$?_Myptr@?$_String_alloc@U?$_String_base_types@_WV?$allocator@_W@std@@@std@@@std@@QEBAPEB_WXZ DD imagerel $LN3
	DD	imagerel $LN3+32
	DD	imagerel $unwind$?_Myptr@?$_String_alloc@U?$_String_base_types@_WV?$allocator@_W@std@@@std@@@std@@QEBAPEB_WXZ
pdata	ENDS
;	COMDAT pdata
pdata	SEGMENT
$pdata$??0?$_String_alloc@U?$_String_base_types@_WV?$allocator@_W@std@@@std@@@std@@QEAA@XZ DD imagerel $LN4
	DD	imagerel $LN4+58
	DD	imagerel $unwind$??0?$_String_alloc@U?$_String_base_types@_WV?$allocator@_W@std@@@std@@@std@@QEAA@XZ
pdata	ENDS
;	COMDAT pdata
pdata	SEGMENT
$pdata$?dtor$0@?0???0?$_String_alloc@U?$_String_base_types@_WV?$allocator@_W@std@@@std@@@std@@QEAA@XZ@4HA DD imagerel ?dtor$0@?0???0?$_String_alloc@U?$_String_base_types@_WV?$allocator@_W@std@@@std@@@std@@QEAA@XZ@4HA
	DD	imagerel ?dtor$0@?0???0?$_String_alloc@U?$_String_base_types@_WV?$allocator@_W@std@@@std@@@std@@QEAA@XZ@4HA+24
	DD	imagerel $unwind$?dtor$0@?0???0?$_String_alloc@U?$_String_base_types@_WV?$allocator@_W@std@@@std@@@std@@QEAA@XZ@4HA
pdata	ENDS
;	COMDAT pdata
pdata	SEGMENT
$pdata$??1?$_String_alloc@U?$_String_base_types@_WV?$allocator@_W@std@@@std@@@std@@QEAA@XZ DD imagerel $LN4
	DD	imagerel $LN4+48
	DD	imagerel $unwind$??1?$_String_alloc@U?$_String_base_types@_WV?$allocator@_W@std@@@std@@@std@@QEAA@XZ
pdata	ENDS
;	COMDAT pdata
pdata	SEGMENT
$pdata$?dtor$0@?0???1?$_String_alloc@U?$_String_base_types@_WV?$allocator@_W@std@@@std@@@std@@QEAA@XZ@4HA DD imagerel ?dtor$0@?0???1?$_String_alloc@U?$_String_base_types@_WV?$allocator@_W@std@@@std@@@std@@QEAA@XZ@4HA
	DD	imagerel ?dtor$0@?0???1?$_String_alloc@U?$_String_base_types@_WV?$allocator@_W@std@@@std@@@std@@QEAA@XZ@4HA+24
	DD	imagerel $unwind$?dtor$0@?0???1?$_String_alloc@U?$_String_base_types@_WV?$allocator@_W@std@@@std@@@std@@QEAA@XZ@4HA
pdata	ENDS
;	COMDAT pdata
pdata	SEGMENT
$pdata$?_Alloc_proxy@?$_String_alloc@U?$_String_base_types@_WV?$allocator@_W@std@@@std@@@std@@QEAAXXZ DD imagerel $LN3
	DD	imagerel $LN3+193
	DD	imagerel $unwind$?_Alloc_proxy@?$_String_alloc@U?$_String_base_types@_WV?$allocator@_W@std@@@std@@@std@@QEAAXXZ
pdata	ENDS
;	COMDAT pdata
pdata	SEGMENT
$pdata$?_Free_proxy@?$_String_alloc@U?$_String_base_types@_WV?$allocator@_W@std@@@std@@@std@@QEAAXXZ DD imagerel $LN3
	DD	imagerel $LN3+157
	DD	imagerel $unwind$?_Free_proxy@?$_String_alloc@U?$_String_base_types@_WV?$allocator@_W@std@@@std@@@std@@QEAAXXZ
pdata	ENDS
;	COMDAT pdata
pdata	SEGMENT
$pdata$?_Myproxy@?$_String_alloc@U?$_String_base_types@_WV?$allocator@_W@std@@@std@@@std@@QEAAAEAPEAU_Container_proxy@2@XZ DD imagerel $LN3
	DD	imagerel $LN3+24
	DD	imagerel $unwind$?_Myproxy@?$_String_alloc@U?$_String_base_types@_WV?$allocator@_W@std@@@std@@@std@@QEAAAEAPEAU_Container_proxy@2@XZ
pdata	ENDS
;	COMDAT pdata
pdata	SEGMENT
$pdata$?_Orphan_all@?$_String_alloc@U?$_String_base_types@_WV?$allocator@_W@std@@@std@@@std@@QEAAXXZ DD imagerel $LN3
	DD	imagerel $LN3+32
	DD	imagerel $unwind$?_Orphan_all@?$_String_alloc@U?$_String_base_types@_WV?$allocator@_W@std@@@std@@@std@@QEAAXXZ
pdata	ENDS
;	COMDAT pdata
pdata	SEGMENT
$pdata$?_Getal@?$_String_alloc@U?$_String_base_types@_WV?$allocator@_W@std@@@std@@@std@@QEAAAEAU?$_Wrap_alloc@V?$allocator@_W@std@@@2@XZ DD imagerel $LN3
	DD	imagerel $LN3+27
	DD	imagerel $unwind$?_Getal@?$_String_alloc@U?$_String_base_types@_WV?$allocator@_W@std@@@std@@@std@@QEAAAEAU?$_Wrap_alloc@V?$allocator@_W@std@@@2@XZ
pdata	ENDS
;	COMDAT pdata
pdata	SEGMENT
$pdata$?_Getal@?$_String_alloc@U?$_String_base_types@_WV?$allocator@_W@std@@@std@@@std@@QEBAAEBU?$_Wrap_alloc@V?$allocator@_W@std@@@2@XZ DD imagerel $LN3
	DD	imagerel $LN3+27
	DD	imagerel $unwind$?_Getal@?$_String_alloc@U?$_String_base_types@_WV?$allocator@_W@std@@@std@@@std@@QEBAAEBU?$_Wrap_alloc@V?$allocator@_W@std@@@2@XZ
pdata	ENDS
;	COMDAT pdata
pdata	SEGMENT
$pdata$?_Get_data@?$_String_alloc@U?$_String_base_types@_WV?$allocator@_W@std@@@std@@@std@@QEAAAEAV?$_String_val@U?$_Simple_types@_W@std@@@2@XZ DD imagerel $LN3
	DD	imagerel $LN3+27
	DD	imagerel $unwind$?_Get_data@?$_String_alloc@U?$_String_base_types@_WV?$allocator@_W@std@@@std@@@std@@QEAAAEAV?$_String_val@U?$_Simple_types@_W@std@@@2@XZ
pdata	ENDS
;	COMDAT pdata
pdata	SEGMENT
$pdata$?_Get_data@?$_String_alloc@U?$_String_base_types@_WV?$allocator@_W@std@@@std@@@std@@QEBAAEBV?$_String_val@U?$_Simple_types@_W@std@@@2@XZ DD imagerel $LN3
	DD	imagerel $LN3+27
	DD	imagerel $unwind$?_Get_data@?$_String_alloc@U?$_String_base_types@_WV?$allocator@_W@std@@@std@@@std@@QEBAAEBV?$_String_val@U?$_Simple_types@_W@std@@@2@XZ
pdata	ENDS
;	COMDAT pdata
pdata	SEGMENT
$pdata$?_Bx@?$_String_alloc@U?$_String_base_types@_WV?$allocator@_W@std@@@std@@@std@@QEAAAEAT_Bxty@?$_String_val@U?$_Simple_types@_W@std@@@2@XZ DD imagerel $LN3
	DD	imagerel $LN3+28
	DD	imagerel $unwind$?_Bx@?$_String_alloc@U?$_String_base_types@_WV?$allocator@_W@std@@@std@@@std@@QEAAAEAT_Bxty@?$_String_val@U?$_Simple_types@_W@std@@@2@XZ
pdata	ENDS
;	COMDAT pdata
pdata	SEGMENT
$pdata$?_Mysize@?$_String_alloc@U?$_String_base_types@_WV?$allocator@_W@std@@@std@@@std@@QEAAAEA_KXZ DD imagerel $LN3
	DD	imagerel $LN3+28
	DD	imagerel $unwind$?_Mysize@?$_String_alloc@U?$_String_base_types@_WV?$allocator@_W@std@@@std@@@std@@QEAAAEA_KXZ
pdata	ENDS
;	COMDAT pdata
pdata	SEGMENT
$pdata$?_Mysize@?$_String_alloc@U?$_String_base_types@_WV?$allocator@_W@std@@@std@@@std@@QEBAAEB_KXZ DD imagerel $LN3
	DD	imagerel $LN3+28
	DD	imagerel $unwind$?_Mysize@?$_String_alloc@U?$_String_base_types@_WV?$allocator@_W@std@@@std@@@std@@QEBAAEB_KXZ
pdata	ENDS
;	COMDAT pdata
pdata	SEGMENT
$pdata$?_Myres@?$_String_alloc@U?$_String_base_types@_WV?$allocator@_W@std@@@std@@@std@@QEAAAEA_KXZ DD imagerel $LN3
	DD	imagerel $LN3+28
	DD	imagerel $unwind$?_Myres@?$_String_alloc@U?$_String_base_types@_WV?$allocator@_W@std@@@std@@@std@@QEAAAEA_KXZ
pdata	ENDS
;	COMDAT pdata
pdata	SEGMENT
$pdata$??1?$_Compressed_pair@U?$_Wrap_alloc@V?$allocator@_W@std@@@std@@V?$_String_val@U?$_Simple_types@_W@std@@@2@$00@std@@QEAA@XZ DD imagerel $LN4
	DD	imagerel $LN4+37
	DD	imagerel $unwind$??1?$_Compressed_pair@U?$_Wrap_alloc@V?$allocator@_W@std@@@std@@V?$_String_val@U?$_Simple_types@_W@std@@@2@$00@std@@QEAA@XZ
pdata	ENDS
;	COMDAT pdata
pdata	SEGMENT
$pdata$?dtor$0@?0???1?$_Compressed_pair@U?$_Wrap_alloc@V?$allocator@_W@std@@@std@@V?$_String_val@U?$_Simple_types@_W@std@@@2@$00@std@@QEAA@XZ@4HA DD imagerel ?dtor$0@?0???1?$_Compressed_pair@U?$_Wrap_alloc@V?$allocator@_W@std@@@std@@V?$_String_val@U?$_Simple_types@_W@std@@@2@$00@std@@QEAA@XZ@4HA
	DD	imagerel ?dtor$0@?0???1?$_Compressed_pair@U?$_Wrap_alloc@V?$allocator@_W@std@@@std@@V?$_String_val@U?$_Simple_types@_W@std@@@2@$00@std@@QEAA@XZ@4HA+24
	DD	imagerel $unwind$?dtor$0@?0???1?$_Compressed_pair@U?$_Wrap_alloc@V?$allocator@_W@std@@@std@@V?$_String_val@U?$_Simple_types@_W@std@@@2@$00@std@@QEAA@XZ@4HA
pdata	ENDS
;	COMDAT pdata
pdata	SEGMENT
$pdata$??0?$basic_string@_WU?$char_traits@_W@std@@V?$allocator@_W@2@@std@@QEAA@PEB_W@Z DD imagerel $LN4
	DD	imagerel $LN4+75
	DD	imagerel $unwind$??0?$basic_string@_WU?$char_traits@_W@std@@V?$allocator@_W@2@@std@@QEAA@PEB_W@Z
pdata	ENDS
;	COMDAT pdata
pdata	SEGMENT
$pdata$?dtor$0@?0???0?$basic_string@_WU?$char_traits@_W@std@@V?$allocator@_W@2@@std@@QEAA@PEB_W@Z@4HA DD imagerel ?dtor$0@?0???0?$basic_string@_WU?$char_traits@_W@std@@V?$allocator@_W@2@@std@@QEAA@PEB_W@Z@4HA
	DD	imagerel ?dtor$0@?0???0?$basic_string@_WU?$char_traits@_W@std@@V?$allocator@_W@2@@std@@QEAA@PEB_W@Z@4HA+24
	DD	imagerel $unwind$?dtor$0@?0???0?$basic_string@_WU?$char_traits@_W@std@@V?$allocator@_W@2@@std@@QEAA@PEB_W@Z@4HA
pdata	ENDS
;	COMDAT pdata
pdata	SEGMENT
$pdata$??1?$basic_string@_WU?$char_traits@_W@std@@V?$allocator@_W@2@@std@@QEAA@XZ DD imagerel $LN4
	DD	imagerel $LN4+50
	DD	imagerel $unwind$??1?$basic_string@_WU?$char_traits@_W@std@@V?$allocator@_W@2@@std@@QEAA@XZ
pdata	ENDS
;	COMDAT pdata
pdata	SEGMENT
$pdata$?dtor$0@?0???1?$basic_string@_WU?$char_traits@_W@std@@V?$allocator@_W@2@@std@@QEAA@XZ@4HA DD imagerel ?dtor$0@?0???1?$basic_string@_WU?$char_traits@_W@std@@V?$allocator@_W@2@@std@@QEAA@XZ@4HA
	DD	imagerel ?dtor$0@?0???1?$basic_string@_WU?$char_traits@_W@std@@V?$allocator@_W@2@@std@@QEAA@XZ@4HA+24
	DD	imagerel $unwind$?dtor$0@?0???1?$basic_string@_WU?$char_traits@_W@std@@V?$allocator@_W@2@@std@@QEAA@XZ@4HA
pdata	ENDS
;	COMDAT pdata
pdata	SEGMENT
$pdata$?assign@?$basic_string@_WU?$char_traits@_W@std@@V?$allocator@_W@2@@std@@QEAAAEAV12@AEBV12@_K1@Z DD imagerel $LN6
	DD	imagerel $LN6+229
	DD	imagerel $unwind$?assign@?$basic_string@_WU?$char_traits@_W@std@@V?$allocator@_W@2@@std@@QEAAAEAV12@AEBV12@_K1@Z
pdata	ENDS
;	COMDAT pdata
pdata	SEGMENT
$pdata$?assign@?$basic_string@_WU?$char_traits@_W@std@@V?$allocator@_W@2@@std@@QEAAAEAV12@PEB_W_K@Z DD imagerel $LN7
	DD	imagerel $LN7+216
	DD	imagerel $unwind$?assign@?$basic_string@_WU?$char_traits@_W@std@@V?$allocator@_W@2@@std@@QEAAAEAV12@PEB_W_K@Z
pdata	ENDS
;	COMDAT pdata
pdata	SEGMENT
$pdata$?assign@?$basic_string@_WU?$char_traits@_W@std@@V?$allocator@_W@2@@std@@QEAAAEAV12@PEB_W@Z DD imagerel $LN3
	DD	imagerel $LN3+70
	DD	imagerel $unwind$?assign@?$basic_string@_WU?$char_traits@_W@std@@V?$allocator@_W@2@@std@@QEAAAEAV12@PEB_W@Z
pdata	ENDS
;	COMDAT pdata
pdata	SEGMENT
$pdata$?erase@?$basic_string@_WU?$char_traits@_W@std@@V?$allocator@_W@2@@std@@QEAAAEAV12@_K@Z DD imagerel $LN3
	DD	imagerel $LN3+54
	DD	imagerel $unwind$?erase@?$basic_string@_WU?$char_traits@_W@std@@V?$allocator@_W@2@@std@@QEAAAEAV12@_K@Z
pdata	ENDS
;	COMDAT pdata
pdata	SEGMENT
$pdata$?erase@?$basic_string@_WU?$char_traits@_W@std@@V?$allocator@_W@2@@std@@QEAAAEAV12@_K0@Z DD imagerel $LN6
	DD	imagerel $LN6+208
	DD	imagerel $unwind$?erase@?$basic_string@_WU?$char_traits@_W@std@@V?$allocator@_W@2@@std@@QEAAAEAV12@_K0@Z
pdata	ENDS
;	COMDAT pdata
pdata	SEGMENT
$pdata$?max_size@?$basic_string@_WU?$char_traits@_W@std@@V?$allocator@_W@2@@std@@QEBA_KXZ DD imagerel $LN5
	DD	imagerel $LN5+79
	DD	imagerel $unwind$?max_size@?$basic_string@_WU?$char_traits@_W@std@@V?$allocator@_W@2@@std@@QEBA_KXZ
pdata	ENDS
;	COMDAT pdata
pdata	SEGMENT
$pdata$?_Clamp_suffix_size@?$basic_string@_WU?$char_traits@_W@std@@V?$allocator@_W@2@@std@@QEBA_K_K0@Z DD imagerel $LN5
	DD	imagerel $LN5+76
	DD	imagerel $unwind$?_Clamp_suffix_size@?$basic_string@_WU?$char_traits@_W@std@@V?$allocator@_W@2@@std@@QEBA_K_K0@Z
pdata	ENDS
;	COMDAT pdata
pdata	SEGMENT
$pdata$?_Copy@?$basic_string@_WU?$char_traits@_W@std@@V?$allocator@_W@2@@std@@QEAAX_K0@Z DD imagerel $LN23
	DD	imagerel $LN23+575
	DD	imagerel $unwind$?_Copy@?$basic_string@_WU?$char_traits@_W@std@@V?$allocator@_W@2@@std@@QEAAX_K0@Z
pdata	ENDS
;	COMDAT pdata
pdata	SEGMENT
$pdata$?catch$1@?0??_Copy@?$basic_string@_WU?$char_traits@_W@std@@V?$allocator@_W@2@@std@@QEAAX_K0@Z@4HA DD imagerel ?catch$1@?0??_Copy@?$basic_string@_WU?$char_traits@_W@std@@V?$allocator@_W@2@@std@@QEAAX_K0@Z@4HA
	DD	imagerel ?catch$1@?0??_Copy@?$basic_string@_WU?$char_traits@_W@std@@V?$allocator@_W@2@@std@@QEAAX_K0@Z@4HA+82
	DD	imagerel $unwind$?catch$1@?0??_Copy@?$basic_string@_WU?$char_traits@_W@std@@V?$allocator@_W@2@@std@@QEAAX_K0@Z@4HA
pdata	ENDS
;	COMDAT pdata
pdata	SEGMENT
$pdata$?catch$0@?0??_Copy@?$basic_string@_WU?$char_traits@_W@std@@V?$allocator@_W@2@@std@@QEAAX_K0@Z@4HA DD imagerel ?catch$0@?0??_Copy@?$basic_string@_WU?$char_traits@_W@std@@V?$allocator@_W@2@@std@@QEAAX_K0@Z@4HA
	DD	imagerel ?catch$0@?0??_Copy@?$basic_string@_WU?$char_traits@_W@std@@V?$allocator@_W@2@@std@@QEAAX_K0@Z@4HA+54
	DD	imagerel $unwind$?catch$0@?0??_Copy@?$basic_string@_WU?$char_traits@_W@std@@V?$allocator@_W@2@@std@@QEAAX_K0@Z@4HA
pdata	ENDS
;	COMDAT pdata
pdata	SEGMENT
$pdata$?_Eos@?$basic_string@_WU?$char_traits@_W@std@@V?$allocator@_W@2@@std@@QEAAX_K@Z DD imagerel $LN3
	DD	imagerel $LN3+87
	DD	imagerel $unwind$?_Eos@?$basic_string@_WU?$char_traits@_W@std@@V?$allocator@_W@2@@std@@QEAAX_K@Z
pdata	ENDS
;	COMDAT pdata
pdata	SEGMENT
$pdata$?_Grow@?$basic_string@_WU?$char_traits@_W@std@@V?$allocator@_W@2@@std@@QEAA_N_K_N@Z DD imagerel $LN13
	DD	imagerel $LN13+238
	DD	imagerel $unwind$?_Grow@?$basic_string@_WU?$char_traits@_W@std@@V?$allocator@_W@2@@std@@QEAA_N_K_N@Z
pdata	ENDS
;	COMDAT pdata
pdata	SEGMENT
$pdata$?_Inside@?$basic_string@_WU?$char_traits@_W@std@@V?$allocator@_W@2@@std@@QEAA_NPEB_W@Z DD imagerel $LN6
	DD	imagerel $LN6+96
	DD	imagerel $unwind$?_Inside@?$basic_string@_WU?$char_traits@_W@std@@V?$allocator@_W@2@@std@@QEAA_NPEB_W@Z
pdata	ENDS
;	COMDAT pdata
pdata	SEGMENT
$pdata$?_Tidy@?$basic_string@_WU?$char_traits@_W@std@@V?$allocator@_W@2@@std@@QEAAX_N_K@Z DD imagerel $LN7
	DD	imagerel $LN7+262
	DD	imagerel $unwind$?_Tidy@?$basic_string@_WU?$char_traits@_W@std@@V?$allocator@_W@2@@std@@QEAAX_N_K@Z
pdata	ENDS
;	COMDAT pdata
pdata	SEGMENT
$pdata$?_Xlen@?$basic_string@_WU?$char_traits@_W@std@@V?$allocator@_W@2@@std@@QEBAXXZ DD imagerel $LN3
	DD	imagerel $LN3+27
	DD	imagerel $unwind$?_Xlen@?$basic_string@_WU?$char_traits@_W@std@@V?$allocator@_W@2@@std@@QEBAXXZ
pdata	ENDS
;	COMDAT pdata
pdata	SEGMENT
$pdata$?_Check_offset@?$basic_string@_WU?$char_traits@_W@std@@V?$allocator@_W@2@@std@@QEBAX_K@Z DD imagerel $LN4
	DD	imagerel $LN4+49
	DD	imagerel $unwind$?_Check_offset@?$basic_string@_WU?$char_traits@_W@std@@V?$allocator@_W@2@@std@@QEBAX_K@Z
pdata	ENDS
;	COMDAT pdata
pdata	SEGMENT
$pdata$?_Xran@?$basic_string@_WU?$char_traits@_W@std@@V?$allocator@_W@2@@std@@QEBAXXZ DD imagerel $LN3
	DD	imagerel $LN3+27
	DD	imagerel $unwind$?_Xran@?$basic_string@_WU?$char_traits@_W@std@@V?$allocator@_W@2@@std@@QEBAXXZ
pdata	ENDS
;	COMDAT pdata
pdata	SEGMENT
$pdata$?deallocate@?$allocator@M@std@@QEAAXPEAM_K@Z DD imagerel $LN3
	DD	imagerel $LN3+45
	DD	imagerel $unwind$?deallocate@?$allocator@M@std@@QEAAXPEAM_K@Z
pdata	ENDS
;	COMDAT pdata
pdata	SEGMENT
$pdata$??0?$_Wrap_alloc@V?$allocator@M@std@@@std@@QEAA@XZ DD imagerel $LN3
	DD	imagerel $LN3+29
	DD	imagerel $unwind$??0?$_Wrap_alloc@V?$allocator@M@std@@@std@@QEAA@XZ
pdata	ENDS
;	COMDAT pdata
pdata	SEGMENT
$pdata$?deallocate@?$_Wrap_alloc@V?$allocator@M@std@@@std@@QEAAXPEAM_K@Z DD imagerel $LN3
	DD	imagerel $LN3+44
	DD	imagerel $unwind$?deallocate@?$_Wrap_alloc@V?$allocator@M@std@@@std@@QEAAXPEAM_K@Z
pdata	ENDS
;	COMDAT pdata
pdata	SEGMENT
$pdata$??0?$_Vector_alloc@U?$_Vec_base_types@MV?$allocator@M@std@@@std@@@std@@QEAA@XZ DD imagerel $LN4
	DD	imagerel $LN4+58
	DD	imagerel $unwind$??0?$_Vector_alloc@U?$_Vec_base_types@MV?$allocator@M@std@@@std@@@std@@QEAA@XZ
pdata	ENDS
;	COMDAT pdata
pdata	SEGMENT
$pdata$?dtor$0@?0???0?$_Vector_alloc@U?$_Vec_base_types@MV?$allocator@M@std@@@std@@@std@@QEAA@XZ@4HA DD imagerel ?dtor$0@?0???0?$_Vector_alloc@U?$_Vec_base_types@MV?$allocator@M@std@@@std@@@std@@QEAA@XZ@4HA
	DD	imagerel ?dtor$0@?0???0?$_Vector_alloc@U?$_Vec_base_types@MV?$allocator@M@std@@@std@@@std@@QEAA@XZ@4HA+24
	DD	imagerel $unwind$?dtor$0@?0???0?$_Vector_alloc@U?$_Vec_base_types@MV?$allocator@M@std@@@std@@@std@@QEAA@XZ@4HA
pdata	ENDS
;	COMDAT pdata
pdata	SEGMENT
$pdata$??1?$_Vector_alloc@U?$_Vec_base_types@MV?$allocator@M@std@@@std@@@std@@QEAA@XZ DD imagerel $LN4
	DD	imagerel $LN4+48
	DD	imagerel $unwind$??1?$_Vector_alloc@U?$_Vec_base_types@MV?$allocator@M@std@@@std@@@std@@QEAA@XZ
pdata	ENDS
;	COMDAT pdata
pdata	SEGMENT
$pdata$?dtor$0@?0???1?$_Vector_alloc@U?$_Vec_base_types@MV?$allocator@M@std@@@std@@@std@@QEAA@XZ@4HA DD imagerel ?dtor$0@?0???1?$_Vector_alloc@U?$_Vec_base_types@MV?$allocator@M@std@@@std@@@std@@QEAA@XZ@4HA
	DD	imagerel ?dtor$0@?0???1?$_Vector_alloc@U?$_Vec_base_types@MV?$allocator@M@std@@@std@@@std@@QEAA@XZ@4HA+24
	DD	imagerel $unwind$?dtor$0@?0???1?$_Vector_alloc@U?$_Vec_base_types@MV?$allocator@M@std@@@std@@@std@@QEAA@XZ@4HA
pdata	ENDS
;	COMDAT pdata
pdata	SEGMENT
$pdata$?_Alloc_proxy@?$_Vector_alloc@U?$_Vec_base_types@MV?$allocator@M@std@@@std@@@std@@QEAAXXZ DD imagerel $LN3
	DD	imagerel $LN3+193
	DD	imagerel $unwind$?_Alloc_proxy@?$_Vector_alloc@U?$_Vec_base_types@MV?$allocator@M@std@@@std@@@std@@QEAAXXZ
pdata	ENDS
;	COMDAT pdata
pdata	SEGMENT
$pdata$?_Free_proxy@?$_Vector_alloc@U?$_Vec_base_types@MV?$allocator@M@std@@@std@@@std@@QEAAXXZ DD imagerel $LN3
	DD	imagerel $LN3+157
	DD	imagerel $unwind$?_Free_proxy@?$_Vector_alloc@U?$_Vec_base_types@MV?$allocator@M@std@@@std@@@std@@QEAAXXZ
pdata	ENDS
;	COMDAT pdata
pdata	SEGMENT
$pdata$?_Myproxy@?$_Vector_alloc@U?$_Vec_base_types@MV?$allocator@M@std@@@std@@@std@@QEAAAEAPEAU_Container_proxy@2@XZ DD imagerel $LN3
	DD	imagerel $LN3+24
	DD	imagerel $unwind$?_Myproxy@?$_Vector_alloc@U?$_Vec_base_types@MV?$allocator@M@std@@@std@@@std@@QEAAAEAPEAU_Container_proxy@2@XZ
pdata	ENDS
;	COMDAT pdata
pdata	SEGMENT
$pdata$?_Orphan_all@?$_Vector_alloc@U?$_Vec_base_types@MV?$allocator@M@std@@@std@@@std@@QEAAXXZ DD imagerel $LN3
	DD	imagerel $LN3+32
	DD	imagerel $unwind$?_Orphan_all@?$_Vector_alloc@U?$_Vec_base_types@MV?$allocator@M@std@@@std@@@std@@QEAAXXZ
pdata	ENDS
;	COMDAT pdata
pdata	SEGMENT
$pdata$?_Getal@?$_Vector_alloc@U?$_Vec_base_types@MV?$allocator@M@std@@@std@@@std@@QEAAAEAU?$_Wrap_alloc@V?$allocator@M@std@@@2@XZ DD imagerel $LN3
	DD	imagerel $LN3+27
	DD	imagerel $unwind$?_Getal@?$_Vector_alloc@U?$_Vec_base_types@MV?$allocator@M@std@@@std@@@std@@QEAAAEAU?$_Wrap_alloc@V?$allocator@M@std@@@2@XZ
pdata	ENDS
;	COMDAT pdata
pdata	SEGMENT
$pdata$?_Get_data@?$_Vector_alloc@U?$_Vec_base_types@MV?$allocator@M@std@@@std@@@std@@QEAAAEAV?$_Vector_val@U?$_Simple_types@M@std@@@2@XZ DD imagerel $LN3
	DD	imagerel $LN3+27
	DD	imagerel $unwind$?_Get_data@?$_Vector_alloc@U?$_Vec_base_types@MV?$allocator@M@std@@@std@@@std@@QEAAAEAV?$_Vector_val@U?$_Simple_types@M@std@@@2@XZ
pdata	ENDS
;	COMDAT pdata
pdata	SEGMENT
$pdata$?_Get_data@?$_Vector_alloc@U?$_Vec_base_types@MV?$allocator@M@std@@@std@@@std@@QEBAAEBV?$_Vector_val@U?$_Simple_types@M@std@@@2@XZ DD imagerel $LN3
	DD	imagerel $LN3+27
	DD	imagerel $unwind$?_Get_data@?$_Vector_alloc@U?$_Vec_base_types@MV?$allocator@M@std@@@std@@@std@@QEBAAEBV?$_Vector_val@U?$_Simple_types@M@std@@@2@XZ
pdata	ENDS
;	COMDAT pdata
pdata	SEGMENT
$pdata$?_Myfirst@?$_Vector_alloc@U?$_Vec_base_types@MV?$allocator@M@std@@@std@@@std@@QEAAAEAPEAMXZ DD imagerel $LN3
	DD	imagerel $LN3+28
	DD	imagerel $unwind$?_Myfirst@?$_Vector_alloc@U?$_Vec_base_types@MV?$allocator@M@std@@@std@@@std@@QEAAAEAPEAMXZ
pdata	ENDS
;	COMDAT pdata
pdata	SEGMENT
$pdata$?_Myfirst@?$_Vector_alloc@U?$_Vec_base_types@MV?$allocator@M@std@@@std@@@std@@QEBAAEBQEAMXZ DD imagerel $LN3
	DD	imagerel $LN3+28
	DD	imagerel $unwind$?_Myfirst@?$_Vector_alloc@U?$_Vec_base_types@MV?$allocator@M@std@@@std@@@std@@QEBAAEBQEAMXZ
pdata	ENDS
;	COMDAT pdata
pdata	SEGMENT
$pdata$?_Mylast@?$_Vector_alloc@U?$_Vec_base_types@MV?$allocator@M@std@@@std@@@std@@QEAAAEAPEAMXZ DD imagerel $LN3
	DD	imagerel $LN3+28
	DD	imagerel $unwind$?_Mylast@?$_Vector_alloc@U?$_Vec_base_types@MV?$allocator@M@std@@@std@@@std@@QEAAAEAPEAMXZ
pdata	ENDS
;	COMDAT pdata
pdata	SEGMENT
$pdata$?_Mylast@?$_Vector_alloc@U?$_Vec_base_types@MV?$allocator@M@std@@@std@@@std@@QEBAAEBQEAMXZ DD imagerel $LN3
	DD	imagerel $LN3+28
	DD	imagerel $unwind$?_Mylast@?$_Vector_alloc@U?$_Vec_base_types@MV?$allocator@M@std@@@std@@@std@@QEBAAEBQEAMXZ
pdata	ENDS
;	COMDAT pdata
pdata	SEGMENT
$pdata$?_Myend@?$_Vector_alloc@U?$_Vec_base_types@MV?$allocator@M@std@@@std@@@std@@QEAAAEAPEAMXZ DD imagerel $LN3
	DD	imagerel $LN3+28
	DD	imagerel $unwind$?_Myend@?$_Vector_alloc@U?$_Vec_base_types@MV?$allocator@M@std@@@std@@@std@@QEAAAEAPEAMXZ
pdata	ENDS
;	COMDAT pdata
pdata	SEGMENT
$pdata$??0?$_Vector_val@U?$_Simple_types@M@std@@@std@@QEAA@XZ DD imagerel $LN4
	DD	imagerel $LN4+78
	DD	imagerel $unwind$??0?$_Vector_val@U?$_Simple_types@M@std@@@std@@QEAA@XZ
pdata	ENDS
;	COMDAT pdata
pdata	SEGMENT
$pdata$?dtor$0@?0???0?$_Vector_val@U?$_Simple_types@M@std@@@std@@QEAA@XZ@4HA DD imagerel ?dtor$0@?0???0?$_Vector_val@U?$_Simple_types@M@std@@@std@@QEAA@XZ@4HA
	DD	imagerel ?dtor$0@?0???0?$_Vector_val@U?$_Simple_types@M@std@@@std@@QEAA@XZ@4HA+24
	DD	imagerel $unwind$?dtor$0@?0???0?$_Vector_val@U?$_Simple_types@M@std@@@std@@QEAA@XZ@4HA
pdata	ENDS
;	COMDAT pdata
pdata	SEGMENT
$pdata$??1?$_Vector_val@U?$_Simple_types@M@std@@@std@@QEAA@XZ DD imagerel $LN4
	DD	imagerel $LN4+34
	DD	imagerel $unwind$??1?$_Vector_val@U?$_Simple_types@M@std@@@std@@QEAA@XZ
pdata	ENDS
;	COMDAT pdata
pdata	SEGMENT
$pdata$?dtor$0@?0???1?$_Vector_val@U?$_Simple_types@M@std@@@std@@QEAA@XZ@4HA DD imagerel ?dtor$0@?0???1?$_Vector_val@U?$_Simple_types@M@std@@@std@@QEAA@XZ@4HA
	DD	imagerel ?dtor$0@?0???1?$_Vector_val@U?$_Simple_types@M@std@@@std@@QEAA@XZ@4HA+24
	DD	imagerel $unwind$?dtor$0@?0???1?$_Vector_val@U?$_Simple_types@M@std@@@std@@QEAA@XZ@4HA
pdata	ENDS
;	COMDAT pdata
pdata	SEGMENT
$pdata$??1?$_Compressed_pair@U?$_Wrap_alloc@V?$allocator@M@std@@@std@@V?$_Vector_val@U?$_Simple_types@M@std@@@2@$00@std@@QEAA@XZ DD imagerel $LN4
	DD	imagerel $LN4+37
	DD	imagerel $unwind$??1?$_Compressed_pair@U?$_Wrap_alloc@V?$allocator@M@std@@@std@@V?$_Vector_val@U?$_Simple_types@M@std@@@2@$00@std@@QEAA@XZ
pdata	ENDS
;	COMDAT pdata
pdata	SEGMENT
$pdata$?dtor$0@?0???1?$_Compressed_pair@U?$_Wrap_alloc@V?$allocator@M@std@@@std@@V?$_Vector_val@U?$_Simple_types@M@std@@@2@$00@std@@QEAA@XZ@4HA DD imagerel ?dtor$0@?0???1?$_Compressed_pair@U?$_Wrap_alloc@V?$allocator@M@std@@@std@@V?$_Vector_val@U?$_Simple_types@M@std@@@2@$00@std@@QEAA@XZ@4HA
	DD	imagerel ?dtor$0@?0???1?$_Compressed_pair@U?$_Wrap_alloc@V?$allocator@M@std@@@std@@V?$_Vector_val@U?$_Simple_types@M@std@@@2@$00@std@@QEAA@XZ@4HA+24
	DD	imagerel $unwind$?dtor$0@?0???1?$_Compressed_pair@U?$_Wrap_alloc@V?$allocator@M@std@@@std@@V?$_Vector_val@U?$_Simple_types@M@std@@@2@$00@std@@QEAA@XZ@4HA
pdata	ENDS
;	COMDAT pdata
pdata	SEGMENT
$pdata$??0?$vector@MV?$allocator@M@std@@@std@@QEAA@XZ DD imagerel $LN4
	DD	imagerel $LN4+39
	DD	imagerel $unwind$??0?$vector@MV?$allocator@M@std@@@std@@QEAA@XZ
pdata	ENDS
;	COMDAT pdata
pdata	SEGMENT
$pdata$?dtor$0@?0???0?$vector@MV?$allocator@M@std@@@std@@QEAA@XZ@4HA DD imagerel ?dtor$0@?0???0?$vector@MV?$allocator@M@std@@@std@@QEAA@XZ@4HA
	DD	imagerel ?dtor$0@?0???0?$vector@MV?$allocator@M@std@@@std@@QEAA@XZ@4HA+24
	DD	imagerel $unwind$?dtor$0@?0???0?$vector@MV?$allocator@M@std@@@std@@QEAA@XZ@4HA
pdata	ENDS
;	COMDAT pdata
pdata	SEGMENT
$pdata$??1?$vector@MV?$allocator@M@std@@@std@@QEAA@XZ DD imagerel $LN4
	DD	imagerel $LN4+45
	DD	imagerel $unwind$??1?$vector@MV?$allocator@M@std@@@std@@QEAA@XZ
pdata	ENDS
;	COMDAT pdata
pdata	SEGMENT
$pdata$?dtor$0@?0???1?$vector@MV?$allocator@M@std@@@std@@QEAA@XZ@4HA DD imagerel ?dtor$0@?0???1?$vector@MV?$allocator@M@std@@@std@@QEAA@XZ@4HA
	DD	imagerel ?dtor$0@?0???1?$vector@MV?$allocator@M@std@@@std@@QEAA@XZ@4HA+24
	DD	imagerel $unwind$?dtor$0@?0???1?$vector@MV?$allocator@M@std@@@std@@QEAA@XZ@4HA
pdata	ENDS
;	COMDAT pdata
pdata	SEGMENT
$pdata$?size@?$vector@MV?$allocator@M@std@@@std@@QEBA_KXZ DD imagerel $LN3
	DD	imagerel $LN3+60
	DD	imagerel $unwind$?size@?$vector@MV?$allocator@M@std@@@std@@QEBA_KXZ
pdata	ENDS
;	COMDAT pdata
pdata	SEGMENT
$pdata$??A?$vector@MV?$allocator@M@std@@@std@@QEAAAEAM_K@Z DD imagerel $LN6
	DD	imagerel $LN6+207
	DD	imagerel $unwind$??A?$vector@MV?$allocator@M@std@@@std@@QEAAAEAM_K@Z
pdata	ENDS
;	COMDAT pdata
pdata	SEGMENT
$pdata$?_Destroy@?$vector@MV?$allocator@M@std@@@std@@IEAAXPEAM0@Z DD imagerel $LN3
	DD	imagerel $LN3+52
	DD	imagerel $unwind$?_Destroy@?$vector@MV?$allocator@M@std@@@std@@IEAAXPEAM0@Z
pdata	ENDS
;	COMDAT pdata
pdata	SEGMENT
$pdata$?_Tidy@?$vector@MV?$allocator@M@std@@@std@@IEAAXXZ DD imagerel $LN4
	DD	imagerel $LN4+241
	DD	imagerel $unwind$?_Tidy@?$vector@MV?$allocator@M@std@@@std@@IEAAXXZ
pdata	ENDS
;	COMDAT pdata
pdata	SEGMENT
$pdata$?update@TileRow@@QEAAXXZ DD imagerel $LN6
	DD	imagerel $LN6+129
	DD	imagerel $unwind$?update@TileRow@@QEAAXXZ
pdata	ENDS
;	COMDAT pdata
pdata	SEGMENT
$pdata$??1TileRow@@QEAA@XZ DD imagerel $LN4
	DD	imagerel $LN4+41
	DD	imagerel $unwind$??1TileRow@@QEAA@XZ
pdata	ENDS
;	COMDAT pdata
pdata	SEGMENT
$pdata$?dtor$0@?0???1TileRow@@QEAA@XZ@4HA DD imagerel ?dtor$0@?0???1TileRow@@QEAA@XZ@4HA
	DD	imagerel ?dtor$0@?0???1TileRow@@QEAA@XZ@4HA+28
	DD	imagerel $unwind$?dtor$0@?0???1TileRow@@QEAA@XZ@4HA
pdata	ENDS
;	COMDAT pdata
pdata	SEGMENT
$pdata$??_GTileRow@@QEAAPEAXI@Z DD imagerel $LN4
	DD	imagerel $LN4+59
	DD	imagerel $unwind$??_GTileRow@@QEAAPEAXI@Z
pdata	ENDS
;	COMDAT pdata
pdata	SEGMENT
$pdata$??0TilePattern@@QEAA@XZ DD imagerel $LN5
	DD	imagerel $LN5+75
	DD	imagerel $unwind$??0TilePattern@@QEAA@XZ
pdata	ENDS
;	COMDAT pdata
pdata	SEGMENT
$pdata$?dtor$0@?0???0TilePattern@@QEAA@XZ@4HA DD imagerel ?dtor$0@?0???0TilePattern@@QEAA@XZ@4HA
	DD	imagerel ?dtor$0@?0???0TilePattern@@QEAA@XZ@4HA+28
	DD	imagerel $unwind$?dtor$0@?0???0TilePattern@@QEAA@XZ@4HA
pdata	ENDS
;	COMDAT pdata
pdata	SEGMENT
$pdata$?dtor$1@?0???0TilePattern@@QEAA@XZ@4HA DD imagerel ?dtor$1@?0???0TilePattern@@QEAA@XZ@4HA
	DD	imagerel ?dtor$1@?0???0TilePattern@@QEAA@XZ@4HA+28
	DD	imagerel $unwind$?dtor$1@?0???0TilePattern@@QEAA@XZ@4HA
pdata	ENDS
;	COMDAT pdata
pdata	SEGMENT
$pdata$??1TilePattern@@QEAA@XZ DD imagerel $LN5
	DD	imagerel $LN5+59
	DD	imagerel $unwind$??1TilePattern@@QEAA@XZ
pdata	ENDS
;	COMDAT pdata
pdata	SEGMENT
$pdata$?dtor$0@?0???1TilePattern@@QEAA@XZ@4HA DD imagerel ?dtor$0@?0???1TilePattern@@QEAA@XZ@4HA
	DD	imagerel ?dtor$0@?0???1TilePattern@@QEAA@XZ@4HA+28
	DD	imagerel $unwind$?dtor$0@?0???1TilePattern@@QEAA@XZ@4HA
pdata	ENDS
;	COMDAT pdata
pdata	SEGMENT
$pdata$?dtor$1@?0???1TilePattern@@QEAA@XZ@4HA DD imagerel ?dtor$1@?0???1TilePattern@@QEAA@XZ@4HA
	DD	imagerel ?dtor$1@?0???1TilePattern@@QEAA@XZ@4HA+28
	DD	imagerel $unwind$?dtor$1@?0???1TilePattern@@QEAA@XZ@4HA
pdata	ENDS
;	COMDAT pdata
pdata	SEGMENT
$pdata$?deallocate@?$allocator@VTileRow@@@std@@QEAAXPEAVTileRow@@_K@Z DD imagerel $LN3
	DD	imagerel $LN3+45
	DD	imagerel $unwind$?deallocate@?$allocator@VTileRow@@@std@@QEAAXPEAVTileRow@@_K@Z
pdata	ENDS
;	COMDAT pdata
pdata	SEGMENT
$pdata$??0?$_Wrap_alloc@V?$allocator@VTileRow@@@std@@@std@@QEAA@XZ DD imagerel $LN3
	DD	imagerel $LN3+29
	DD	imagerel $unwind$??0?$_Wrap_alloc@V?$allocator@VTileRow@@@std@@@std@@QEAA@XZ
pdata	ENDS
;	COMDAT pdata
pdata	SEGMENT
$pdata$?deallocate@?$_Wrap_alloc@V?$allocator@VTileRow@@@std@@@std@@QEAAXPEAVTileRow@@_K@Z DD imagerel $LN3
	DD	imagerel $LN3+44
	DD	imagerel $unwind$?deallocate@?$_Wrap_alloc@V?$allocator@VTileRow@@@std@@@std@@QEAAXPEAVTileRow@@_K@Z
pdata	ENDS
;	COMDAT pdata
pdata	SEGMENT
$pdata$??0?$_Vector_alloc@U?$_Vec_base_types@VTileRow@@V?$allocator@VTileRow@@@std@@@std@@@std@@QEAA@XZ DD imagerel $LN4
	DD	imagerel $LN4+58
	DD	imagerel $unwind$??0?$_Vector_alloc@U?$_Vec_base_types@VTileRow@@V?$allocator@VTileRow@@@std@@@std@@@std@@QEAA@XZ
pdata	ENDS
;	COMDAT pdata
pdata	SEGMENT
$pdata$?dtor$0@?0???0?$_Vector_alloc@U?$_Vec_base_types@VTileRow@@V?$allocator@VTileRow@@@std@@@std@@@std@@QEAA@XZ@4HA DD imagerel ?dtor$0@?0???0?$_Vector_alloc@U?$_Vec_base_types@VTileRow@@V?$allocator@VTileRow@@@std@@@std@@@std@@QEAA@XZ@4HA
	DD	imagerel ?dtor$0@?0???0?$_Vector_alloc@U?$_Vec_base_types@VTileRow@@V?$allocator@VTileRow@@@std@@@std@@@std@@QEAA@XZ@4HA+24
	DD	imagerel $unwind$?dtor$0@?0???0?$_Vector_alloc@U?$_Vec_base_types@VTileRow@@V?$allocator@VTileRow@@@std@@@std@@@std@@QEAA@XZ@4HA
pdata	ENDS
;	COMDAT pdata
pdata	SEGMENT
$pdata$??1?$_Vector_alloc@U?$_Vec_base_types@VTileRow@@V?$allocator@VTileRow@@@std@@@std@@@std@@QEAA@XZ DD imagerel $LN4
	DD	imagerel $LN4+48
	DD	imagerel $unwind$??1?$_Vector_alloc@U?$_Vec_base_types@VTileRow@@V?$allocator@VTileRow@@@std@@@std@@@std@@QEAA@XZ
pdata	ENDS
;	COMDAT pdata
pdata	SEGMENT
$pdata$?dtor$0@?0???1?$_Vector_alloc@U?$_Vec_base_types@VTileRow@@V?$allocator@VTileRow@@@std@@@std@@@std@@QEAA@XZ@4HA DD imagerel ?dtor$0@?0???1?$_Vector_alloc@U?$_Vec_base_types@VTileRow@@V?$allocator@VTileRow@@@std@@@std@@@std@@QEAA@XZ@4HA
	DD	imagerel ?dtor$0@?0???1?$_Vector_alloc@U?$_Vec_base_types@VTileRow@@V?$allocator@VTileRow@@@std@@@std@@@std@@QEAA@XZ@4HA+24
	DD	imagerel $unwind$?dtor$0@?0???1?$_Vector_alloc@U?$_Vec_base_types@VTileRow@@V?$allocator@VTileRow@@@std@@@std@@@std@@QEAA@XZ@4HA
pdata	ENDS
;	COMDAT pdata
pdata	SEGMENT
$pdata$?_Alloc_proxy@?$_Vector_alloc@U?$_Vec_base_types@VTileRow@@V?$allocator@VTileRow@@@std@@@std@@@std@@QEAAXXZ DD imagerel $LN3
	DD	imagerel $LN3+193
	DD	imagerel $unwind$?_Alloc_proxy@?$_Vector_alloc@U?$_Vec_base_types@VTileRow@@V?$allocator@VTileRow@@@std@@@std@@@std@@QEAAXXZ
pdata	ENDS
;	COMDAT pdata
pdata	SEGMENT
$pdata$?_Free_proxy@?$_Vector_alloc@U?$_Vec_base_types@VTileRow@@V?$allocator@VTileRow@@@std@@@std@@@std@@QEAAXXZ DD imagerel $LN3
	DD	imagerel $LN3+157
	DD	imagerel $unwind$?_Free_proxy@?$_Vector_alloc@U?$_Vec_base_types@VTileRow@@V?$allocator@VTileRow@@@std@@@std@@@std@@QEAAXXZ
pdata	ENDS
;	COMDAT pdata
pdata	SEGMENT
$pdata$?_Myproxy@?$_Vector_alloc@U?$_Vec_base_types@VTileRow@@V?$allocator@VTileRow@@@std@@@std@@@std@@QEAAAEAPEAU_Container_proxy@2@XZ DD imagerel $LN3
	DD	imagerel $LN3+24
	DD	imagerel $unwind$?_Myproxy@?$_Vector_alloc@U?$_Vec_base_types@VTileRow@@V?$allocator@VTileRow@@@std@@@std@@@std@@QEAAAEAPEAU_Container_proxy@2@XZ
pdata	ENDS
;	COMDAT pdata
pdata	SEGMENT
$pdata$?_Orphan_all@?$_Vector_alloc@U?$_Vec_base_types@VTileRow@@V?$allocator@VTileRow@@@std@@@std@@@std@@QEAAXXZ DD imagerel $LN3
	DD	imagerel $LN3+32
	DD	imagerel $unwind$?_Orphan_all@?$_Vector_alloc@U?$_Vec_base_types@VTileRow@@V?$allocator@VTileRow@@@std@@@std@@@std@@QEAAXXZ
pdata	ENDS
;	COMDAT pdata
pdata	SEGMENT
$pdata$?_Getal@?$_Vector_alloc@U?$_Vec_base_types@VTileRow@@V?$allocator@VTileRow@@@std@@@std@@@std@@QEAAAEAU?$_Wrap_alloc@V?$allocator@VTileRow@@@std@@@2@XZ DD imagerel $LN3
	DD	imagerel $LN3+27
	DD	imagerel $unwind$?_Getal@?$_Vector_alloc@U?$_Vec_base_types@VTileRow@@V?$allocator@VTileRow@@@std@@@std@@@std@@QEAAAEAU?$_Wrap_alloc@V?$allocator@VTileRow@@@std@@@2@XZ
pdata	ENDS
;	COMDAT pdata
pdata	SEGMENT
$pdata$?_Get_data@?$_Vector_alloc@U?$_Vec_base_types@VTileRow@@V?$allocator@VTileRow@@@std@@@std@@@std@@QEAAAEAV?$_Vector_val@U?$_Simple_types@VTileRow@@@std@@@2@XZ DD imagerel $LN3
	DD	imagerel $LN3+27
	DD	imagerel $unwind$?_Get_data@?$_Vector_alloc@U?$_Vec_base_types@VTileRow@@V?$allocator@VTileRow@@@std@@@std@@@std@@QEAAAEAV?$_Vector_val@U?$_Simple_types@VTileRow@@@std@@@2@XZ
pdata	ENDS
;	COMDAT pdata
pdata	SEGMENT
$pdata$?_Get_data@?$_Vector_alloc@U?$_Vec_base_types@VTileRow@@V?$allocator@VTileRow@@@std@@@std@@@std@@QEBAAEBV?$_Vector_val@U?$_Simple_types@VTileRow@@@std@@@2@XZ DD imagerel $LN3
	DD	imagerel $LN3+27
	DD	imagerel $unwind$?_Get_data@?$_Vector_alloc@U?$_Vec_base_types@VTileRow@@V?$allocator@VTileRow@@@std@@@std@@@std@@QEBAAEBV?$_Vector_val@U?$_Simple_types@VTileRow@@@std@@@2@XZ
pdata	ENDS
;	COMDAT pdata
pdata	SEGMENT
$pdata$?_Myfirst@?$_Vector_alloc@U?$_Vec_base_types@VTileRow@@V?$allocator@VTileRow@@@std@@@std@@@std@@QEAAAEAPEAVTileRow@@XZ DD imagerel $LN3
	DD	imagerel $LN3+28
	DD	imagerel $unwind$?_Myfirst@?$_Vector_alloc@U?$_Vec_base_types@VTileRow@@V?$allocator@VTileRow@@@std@@@std@@@std@@QEAAAEAPEAVTileRow@@XZ
pdata	ENDS
;	COMDAT pdata
pdata	SEGMENT
$pdata$?_Myfirst@?$_Vector_alloc@U?$_Vec_base_types@VTileRow@@V?$allocator@VTileRow@@@std@@@std@@@std@@QEBAAEBQEAVTileRow@@XZ DD imagerel $LN3
	DD	imagerel $LN3+28
	DD	imagerel $unwind$?_Myfirst@?$_Vector_alloc@U?$_Vec_base_types@VTileRow@@V?$allocator@VTileRow@@@std@@@std@@@std@@QEBAAEBQEAVTileRow@@XZ
pdata	ENDS
;	COMDAT pdata
pdata	SEGMENT
$pdata$?_Mylast@?$_Vector_alloc@U?$_Vec_base_types@VTileRow@@V?$allocator@VTileRow@@@std@@@std@@@std@@QEAAAEAPEAVTileRow@@XZ DD imagerel $LN3
	DD	imagerel $LN3+28
	DD	imagerel $unwind$?_Mylast@?$_Vector_alloc@U?$_Vec_base_types@VTileRow@@V?$allocator@VTileRow@@@std@@@std@@@std@@QEAAAEAPEAVTileRow@@XZ
pdata	ENDS
;	COMDAT pdata
pdata	SEGMENT
$pdata$?_Mylast@?$_Vector_alloc@U?$_Vec_base_types@VTileRow@@V?$allocator@VTileRow@@@std@@@std@@@std@@QEBAAEBQEAVTileRow@@XZ DD imagerel $LN3
	DD	imagerel $LN3+28
	DD	imagerel $unwind$?_Mylast@?$_Vector_alloc@U?$_Vec_base_types@VTileRow@@V?$allocator@VTileRow@@@std@@@std@@@std@@QEBAAEBQEAVTileRow@@XZ
pdata	ENDS
;	COMDAT pdata
pdata	SEGMENT
$pdata$?_Myend@?$_Vector_alloc@U?$_Vec_base_types@VTileRow@@V?$allocator@VTileRow@@@std@@@std@@@std@@QEAAAEAPEAVTileRow@@XZ DD imagerel $LN3
	DD	imagerel $LN3+28
	DD	imagerel $unwind$?_Myend@?$_Vector_alloc@U?$_Vec_base_types@VTileRow@@V?$allocator@VTileRow@@@std@@@std@@@std@@QEAAAEAPEAVTileRow@@XZ
pdata	ENDS
;	COMDAT pdata
pdata	SEGMENT
$pdata$??0?$_Vector_val@U?$_Simple_types@VTileRow@@@std@@@std@@QEAA@XZ DD imagerel $LN4
	DD	imagerel $LN4+78
	DD	imagerel $unwind$??0?$_Vector_val@U?$_Simple_types@VTileRow@@@std@@@std@@QEAA@XZ
pdata	ENDS
;	COMDAT pdata
pdata	SEGMENT
$pdata$?dtor$0@?0???0?$_Vector_val@U?$_Simple_types@VTileRow@@@std@@@std@@QEAA@XZ@4HA DD imagerel ?dtor$0@?0???0?$_Vector_val@U?$_Simple_types@VTileRow@@@std@@@std@@QEAA@XZ@4HA
	DD	imagerel ?dtor$0@?0???0?$_Vector_val@U?$_Simple_types@VTileRow@@@std@@@std@@QEAA@XZ@4HA+24
	DD	imagerel $unwind$?dtor$0@?0???0?$_Vector_val@U?$_Simple_types@VTileRow@@@std@@@std@@QEAA@XZ@4HA
pdata	ENDS
;	COMDAT pdata
pdata	SEGMENT
$pdata$??1?$_Vector_val@U?$_Simple_types@VTileRow@@@std@@@std@@QEAA@XZ DD imagerel $LN4
	DD	imagerel $LN4+34
	DD	imagerel $unwind$??1?$_Vector_val@U?$_Simple_types@VTileRow@@@std@@@std@@QEAA@XZ
pdata	ENDS
;	COMDAT pdata
pdata	SEGMENT
$pdata$?dtor$0@?0???1?$_Vector_val@U?$_Simple_types@VTileRow@@@std@@@std@@QEAA@XZ@4HA DD imagerel ?dtor$0@?0???1?$_Vector_val@U?$_Simple_types@VTileRow@@@std@@@std@@QEAA@XZ@4HA
	DD	imagerel ?dtor$0@?0???1?$_Vector_val@U?$_Simple_types@VTileRow@@@std@@@std@@QEAA@XZ@4HA+24
	DD	imagerel $unwind$?dtor$0@?0???1?$_Vector_val@U?$_Simple_types@VTileRow@@@std@@@std@@QEAA@XZ@4HA
pdata	ENDS
;	COMDAT pdata
pdata	SEGMENT
$pdata$??1?$_Compressed_pair@U?$_Wrap_alloc@V?$allocator@VTileRow@@@std@@@std@@V?$_Vector_val@U?$_Simple_types@VTileRow@@@std@@@2@$00@std@@QEAA@XZ DD imagerel $LN4
	DD	imagerel $LN4+37
	DD	imagerel $unwind$??1?$_Compressed_pair@U?$_Wrap_alloc@V?$allocator@VTileRow@@@std@@@std@@V?$_Vector_val@U?$_Simple_types@VTileRow@@@std@@@2@$00@std@@QEAA@XZ
pdata	ENDS
;	COMDAT pdata
pdata	SEGMENT
$pdata$?dtor$0@?0???1?$_Compressed_pair@U?$_Wrap_alloc@V?$allocator@VTileRow@@@std@@@std@@V?$_Vector_val@U?$_Simple_types@VTileRow@@@std@@@2@$00@std@@QEAA@XZ@4HA DD imagerel ?dtor$0@?0???1?$_Compressed_pair@U?$_Wrap_alloc@V?$allocator@VTileRow@@@std@@@std@@V?$_Vector_val@U?$_Simple_types@VTileRow@@@std@@@2@$00@std@@QEAA@XZ@4HA
	DD	imagerel ?dtor$0@?0???1?$_Compressed_pair@U?$_Wrap_alloc@V?$allocator@VTileRow@@@std@@@std@@V?$_Vector_val@U?$_Simple_types@VTileRow@@@std@@@2@$00@std@@QEAA@XZ@4HA+24
	DD	imagerel $unwind$?dtor$0@?0???1?$_Compressed_pair@U?$_Wrap_alloc@V?$allocator@VTileRow@@@std@@@std@@V?$_Vector_val@U?$_Simple_types@VTileRow@@@std@@@2@$00@std@@QEAA@XZ@4HA
pdata	ENDS
;	COMDAT pdata
pdata	SEGMENT
$pdata$??0?$vector@VTileRow@@V?$allocator@VTileRow@@@std@@@std@@QEAA@XZ DD imagerel $LN4
	DD	imagerel $LN4+39
	DD	imagerel $unwind$??0?$vector@VTileRow@@V?$allocator@VTileRow@@@std@@@std@@QEAA@XZ
pdata	ENDS
;	COMDAT pdata
pdata	SEGMENT
$pdata$?dtor$0@?0???0?$vector@VTileRow@@V?$allocator@VTileRow@@@std@@@std@@QEAA@XZ@4HA DD imagerel ?dtor$0@?0???0?$vector@VTileRow@@V?$allocator@VTileRow@@@std@@@std@@QEAA@XZ@4HA
	DD	imagerel ?dtor$0@?0???0?$vector@VTileRow@@V?$allocator@VTileRow@@@std@@@std@@QEAA@XZ@4HA+24
	DD	imagerel $unwind$?dtor$0@?0???0?$vector@VTileRow@@V?$allocator@VTileRow@@@std@@@std@@QEAA@XZ@4HA
pdata	ENDS
;	COMDAT pdata
pdata	SEGMENT
$pdata$??1?$vector@VTileRow@@V?$allocator@VTileRow@@@std@@@std@@QEAA@XZ DD imagerel $LN4
	DD	imagerel $LN4+45
	DD	imagerel $unwind$??1?$vector@VTileRow@@V?$allocator@VTileRow@@@std@@@std@@QEAA@XZ
pdata	ENDS
;	COMDAT pdata
pdata	SEGMENT
$pdata$?dtor$0@?0???1?$vector@VTileRow@@V?$allocator@VTileRow@@@std@@@std@@QEAA@XZ@4HA DD imagerel ?dtor$0@?0???1?$vector@VTileRow@@V?$allocator@VTileRow@@@std@@@std@@QEAA@XZ@4HA
	DD	imagerel ?dtor$0@?0???1?$vector@VTileRow@@V?$allocator@VTileRow@@@std@@@std@@QEAA@XZ@4HA+24
	DD	imagerel $unwind$?dtor$0@?0???1?$vector@VTileRow@@V?$allocator@VTileRow@@@std@@@std@@QEAA@XZ@4HA
pdata	ENDS
;	COMDAT pdata
pdata	SEGMENT
$pdata$?size@?$vector@VTileRow@@V?$allocator@VTileRow@@@std@@@std@@QEBA_KXZ DD imagerel $LN3
	DD	imagerel $LN3+66
	DD	imagerel $unwind$?size@?$vector@VTileRow@@V?$allocator@VTileRow@@@std@@@std@@QEBA_KXZ
pdata	ENDS
;	COMDAT pdata
pdata	SEGMENT
$pdata$??A?$vector@VTileRow@@V?$allocator@VTileRow@@@std@@@std@@QEAAAEAVTileRow@@_K@Z DD imagerel $LN6
	DD	imagerel $LN6+207
	DD	imagerel $unwind$??A?$vector@VTileRow@@V?$allocator@VTileRow@@@std@@@std@@QEAAAEAVTileRow@@_K@Z
pdata	ENDS
;	COMDAT pdata
pdata	SEGMENT
$pdata$?_Destroy@?$vector@VTileRow@@V?$allocator@VTileRow@@@std@@@std@@IEAAXPEAVTileRow@@0@Z DD imagerel $LN3
	DD	imagerel $LN3+52
	DD	imagerel $unwind$?_Destroy@?$vector@VTileRow@@V?$allocator@VTileRow@@@std@@@std@@IEAAXPEAVTileRow@@0@Z
pdata	ENDS
;	COMDAT pdata
pdata	SEGMENT
$pdata$?_Tidy@?$vector@VTileRow@@V?$allocator@VTileRow@@@std@@@std@@IEAAXXZ DD imagerel $LN4
	DD	imagerel $LN4+247
	DD	imagerel $unwind$?_Tidy@?$vector@VTileRow@@V?$allocator@VTileRow@@@std@@@std@@IEAAXXZ
pdata	ENDS
;	COMDAT pdata
pdata	SEGMENT
$pdata$?update@TilePattern@@QEAAXXZ DD imagerel $LN6
	DD	imagerel $LN6+156
	DD	imagerel $unwind$?update@TilePattern@@QEAAXXZ
pdata	ENDS
;	COMDAT pdata
pdata	SEGMENT
$pdata$?checkValues@TileParam@@QEAAXXZ DD imagerel $LN17
	DD	imagerel $LN17+583
	DD	imagerel $unwind$?checkValues@TileParam@@QEAAXXZ
pdata	ENDS
;	COMDAT pdata
pdata	SEGMENT
$pdata$?__autoclassinit2@TileParam@@QEAAX_K@Z DD imagerel $LN3
	DD	imagerel $LN3+27
	DD	imagerel $unwind$?__autoclassinit2@TileParam@@QEAAX_K@Z
pdata	ENDS
;	COMDAT pdata
pdata	SEGMENT
$pdata$?setSpinnerType@@YAXPEAVIParamMap2@@HHHHH_N@Z DD imagerel ?setSpinnerType@@YAXPEAVIParamMap2@@HHHHH_N@Z
	DD	imagerel ?setSpinnerType@@YAXPEAVIParamMap2@@HHHHH_N@Z+433
	DD	imagerel $unwind$?setSpinnerType@@YAXPEAVIParamMap2@@HHHHH_N@Z
pdata	ENDS
;	COMDAT pdata
pdata	SEGMENT
$pdata$?EvalParameters@BerconTile@@QEAA?AVTileParam@@AEAVShadeContext@@@Z DD imagerel $LN8
	DD	imagerel $LN8+581
	DD	imagerel $unwind$?EvalParameters@BerconTile@@QEAA?AVTileParam@@AEAVShadeContext@@@Z
pdata	ENDS
;	COMDAT pdata
pdata	SEGMENT
$pdata$?getDistVector@BerconTile@@QEAA?AVPoint3@@AEAVShadeContext@@@Z DD imagerel $LN7
	DD	imagerel $LN7+389
	DD	imagerel $unwind$?getDistVector@BerconTile@@QEAA?AVPoint3@@AEAVShadeContext@@@Z
pdata	ENDS
;	COMDAT pdata
pdata	SEGMENT
$pdata$?EnableStuff@BerconTile@@QEAAXH@Z DD imagerel $LN23
	DD	imagerel $LN23+1787
	DD	imagerel $unwind$?EnableStuff@BerconTile@@QEAAXH@Z
pdata	ENDS
;	COMDAT pdata
pdata	SEGMENT
$pdata$?getColor@BerconTile@@QEAA?AVAColor@@AEAVShadeContext@@H@Z DD imagerel $LN5
	DD	imagerel $LN5+210
	DD	imagerel $unwind$?getColor@BerconTile@@QEAA?AVAColor@@AEAVShadeContext@@H@Z
pdata	ENDS
;	COMDAT pdata
pdata	SEGMENT
$pdata$?getFloat@BerconTile@@QEAAMAEAVShadeContext@@H@Z DD imagerel $LN5
	DD	imagerel $LN5+165
	DD	imagerel $unwind$?getFloat@BerconTile@@QEAAMAEAVShadeContext@@H@Z
pdata	ENDS
;	COMDAT pdata
pdata	SEGMENT
$pdata$?getNormal@BerconTile@@QEAA?AVPoint3@@AEAVShadeContext@@H@Z DD imagerel $LN5
	DD	imagerel $LN5+187
	DD	imagerel $unwind$?getNormal@BerconTile@@QEAA?AVPoint3@@AEAVShadeContext@@H@Z
pdata	ENDS
;	COMDAT pdata
pdata	SEGMENT
$pdata$?DiscardTexHandle@BerconTile@@QEAAXXZ DD imagerel $LN4
	DD	imagerel $LN4+75
	DD	imagerel $unwind$?DiscardTexHandle@BerconTile@@QEAAXXZ
pdata	ENDS
;	COMDAT pdata
pdata	SEGMENT
$pdata$?ActivateTexDisplay@BerconTile@@UEAAXH@Z DD imagerel $LN4
	DD	imagerel $LN4+35
	DD	imagerel $unwind$?ActivateTexDisplay@BerconTile@@UEAAXH@Z
pdata	ENDS
;	COMDAT pdata
pdata	SEGMENT
$pdata$?GetActiveTexHandle@BerconTile@@UEAA_KHAEAVTexHandleMaker@@@Z DD imagerel $LN6
	DD	imagerel $LN6+260
	DD	imagerel $unwind$?GetActiveTexHandle@BerconTile@@UEAA_KHAEAVTexHandleMaker@@@Z
pdata	ENDS
;	COMDAT pdata
pdata	SEGMENT
$pdata$?CreateParamDlg@BerconTile@@UEAAPEAVParamDlg@@PEAUHWND__@@PEAVIMtlParams@@@Z DD imagerel $LN9
	DD	imagerel $LN9+410
	DD	imagerel $unwind$?CreateParamDlg@BerconTile@@UEAAPEAVParamDlg@@PEAUHWND__@@PEAVIMtlParams@@@Z
pdata	ENDS
;	COMDAT pdata
pdata	SEGMENT
$pdata$?dtor$0@?0??CreateParamDlg@BerconTile@@UEAAPEAVParamDlg@@PEAUHWND__@@PEAVIMtlParams@@@Z@4HA DD imagerel ?dtor$0@?0??CreateParamDlg@BerconTile@@UEAAPEAVParamDlg@@PEAUHWND__@@PEAVIMtlParams@@@Z@4HA
	DD	imagerel ?dtor$0@?0??CreateParamDlg@BerconTile@@UEAAPEAVParamDlg@@PEAUHWND__@@PEAVIMtlParams@@@Z@4HA+25
	DD	imagerel $unwind$?dtor$0@?0??CreateParamDlg@BerconTile@@UEAAPEAVParamDlg@@PEAUHWND__@@PEAVIMtlParams@@@Z@4HA
pdata	ENDS
;	COMDAT pdata
pdata	SEGMENT
$pdata$?dtor$1@?0??CreateParamDlg@BerconTile@@UEAAPEAVParamDlg@@PEAUHWND__@@PEAVIMtlParams@@@Z@4HA DD imagerel ?dtor$1@?0??CreateParamDlg@BerconTile@@UEAAPEAVParamDlg@@PEAUHWND__@@PEAVIMtlParams@@@Z@4HA
	DD	imagerel ?dtor$1@?0??CreateParamDlg@BerconTile@@UEAAPEAVParamDlg@@PEAUHWND__@@PEAVIMtlParams@@@Z@4HA+25
	DD	imagerel $unwind$?dtor$1@?0??CreateParamDlg@BerconTile@@UEAAPEAVParamDlg@@PEAUHWND__@@PEAVIMtlParams@@@Z@4HA
pdata	ENDS
;	COMDAT pdata
pdata	SEGMENT
$pdata$?SetDlgThing@BerconTile@@UEAAHPEAVParamDlg@@@Z DD imagerel $LN5
	DD	imagerel $LN5+76
	DD	imagerel $unwind$?SetDlgThing@BerconTile@@UEAAHPEAVParamDlg@@@Z
pdata	ENDS
;	COMDAT pdata
pdata	SEGMENT
$pdata$?Update@BerconTile@@UEAAXHAEAVInterval@@@Z DD imagerel $LN21
	DD	imagerel $LN21+6438
	DD	imagerel $unwind$?Update@BerconTile@@UEAAXHAEAVInterval@@@Z
pdata	ENDS
;	COMDAT pdata
pdata	SEGMENT
$pdata$?dtor$0@?0??Update@BerconTile@@UEAAXHAEAVInterval@@@Z@4HA DD imagerel ?dtor$0@?0??Update@BerconTile@@UEAAXHAEAVInterval@@@Z@4HA
	DD	imagerel ?dtor$0@?0??Update@BerconTile@@UEAAXHAEAVInterval@@@Z@4HA+27
	DD	imagerel $unwind$?dtor$0@?0??Update@BerconTile@@UEAAXHAEAVInterval@@@Z@4HA
pdata	ENDS
;	COMDAT pdata
pdata	SEGMENT
$pdata$?Reset@BerconTile@@UEAAXXZ DD imagerel $LN11
	DD	imagerel $LN11+2956
	DD	imagerel $unwind$?Reset@BerconTile@@UEAAXXZ
pdata	ENDS
;	COMDAT pdata
pdata	SEGMENT
$pdata$?Validity@BerconTile@@UEAA?AVInterval@@H@Z DD imagerel $LN3
	DD	imagerel $LN3+115
	DD	imagerel $unwind$?Validity@BerconTile@@UEAA?AVInterval@@H@Z
pdata	ENDS
;	COMDAT pdata
pdata	SEGMENT
$pdata$?LocalRequirements@BerconTile@@UEAAKH@Z DD imagerel $LN3
	DD	imagerel $LN3+37
	DD	imagerel $unwind$?LocalRequirements@BerconTile@@UEAAKH@Z
pdata	ENDS
;	COMDAT pdata
pdata	SEGMENT
$pdata$?MappingsRequired@BerconTile@@UEAAXHAEAVBitArray@@0@Z DD imagerel $LN3
	DD	imagerel $LN3+61
	DD	imagerel $unwind$?MappingsRequired@BerconTile@@UEAAXHAEAVBitArray@@0@Z
pdata	ENDS
;	COMDAT pdata
pdata	SEGMENT
$pdata$?SetSubTexmap@BerconTile@@UEAAXHPEAVTexmap@@@Z DD imagerel $LN13
	DD	imagerel $LN13+379
	DD	imagerel $unwind$?SetSubTexmap@BerconTile@@UEAAXHPEAVTexmap@@@Z
pdata	ENDS
;	COMDAT pdata
pdata	SEGMENT
$pdata$?GetSubTexmapSlotName@BerconTile@@UEAA?AVWStr@@H@Z DD imagerel $LN16
	DD	imagerel $LN16+464
	DD	imagerel $unwind$?GetSubTexmapSlotName@BerconTile@@UEAA?AVWStr@@H@Z
pdata	ENDS
;	COMDAT pdata
pdata	SEGMENT
$pdata$?dtor$0@?0??GetSubTexmapSlotName@BerconTile@@UEAA?AVWStr@@H@Z@4HA DD imagerel ?dtor$0@?0??GetSubTexmapSlotName@BerconTile@@UEAA?AVWStr@@H@Z@4HA
	DD	imagerel ?dtor$0@?0??GetSubTexmapSlotName@BerconTile@@UEAA?AVWStr@@H@Z@4HA+39
	DD	imagerel $unwind$?dtor$0@?0??GetSubTexmapSlotName@BerconTile@@UEAA?AVWStr@@H@Z@4HA
pdata	ENDS
;	COMDAT pdata
pdata	SEGMENT
$pdata$?EvalColor@BerconTile@@UEAA?AVAColor@@AEAVShadeContext@@@Z DD imagerel $LN22
	DD	imagerel $LN22+1787
	DD	imagerel $unwind$?EvalColor@BerconTile@@UEAA?AVAColor@@AEAVShadeContext@@@Z
pdata	ENDS
;	COMDAT pdata
pdata	SEGMENT
$pdata$?dtor$0@?0??EvalColor@BerconTile@@UEAA?AVAColor@@AEAVShadeContext@@@Z@4HA DD imagerel ?dtor$0@?0??EvalColor@BerconTile@@UEAA?AVAColor@@AEAVShadeContext@@@Z@4HA
	DD	imagerel ?dtor$0@?0??EvalColor@BerconTile@@UEAA?AVAColor@@AEAVShadeContext@@@Z@4HA+27
	DD	imagerel $unwind$?dtor$0@?0??EvalColor@BerconTile@@UEAA?AVAColor@@AEAVShadeContext@@@Z@4HA
pdata	ENDS
;	COMDAT pdata
pdata	SEGMENT
$pdata$?EvalMono@BerconTile@@UEAAMAEAVShadeContext@@@Z DD imagerel $LN3
	DD	imagerel $LN3+56
	DD	imagerel $unwind$?EvalMono@BerconTile@@UEAAMAEAVShadeContext@@@Z
pdata	ENDS
;	COMDAT pdata
pdata	SEGMENT
$pdata$?EvalNormalPerturb@BerconTile@@UEAA?AVPoint3@@AEAVShadeContext@@@Z DD imagerel $LN29
	DD	imagerel $LN29+3040
	DD	imagerel $unwind$?EvalNormalPerturb@BerconTile@@UEAA?AVPoint3@@AEAVShadeContext@@@Z
pdata	ENDS
;	COMDAT pdata
pdata	SEGMENT
$pdata$?dtor$0@?0??EvalNormalPerturb@BerconTile@@UEAA?AVPoint3@@AEAVShadeContext@@@Z@4HA DD imagerel ?dtor$0@?0??EvalNormalPerturb@BerconTile@@UEAA?AVPoint3@@AEAVShadeContext@@@Z@4HA
	DD	imagerel ?dtor$0@?0??EvalNormalPerturb@BerconTile@@UEAA?AVPoint3@@AEAVShadeContext@@@Z@4HA+27
	DD	imagerel $unwind$?dtor$0@?0??EvalNormalPerturb@BerconTile@@UEAA?AVPoint3@@AEAVShadeContext@@@Z@4HA
pdata	ENDS
;	COMDAT pdata
pdata	SEGMENT
$pdata$?ClassID@BerconTile@@UEAA?AVClass_ID@@XZ DD imagerel $LN3
	DD	imagerel $LN3+45
	DD	imagerel $unwind$?ClassID@BerconTile@@UEAA?AVClass_ID@@XZ
pdata	ENDS
;	COMDAT pdata
pdata	SEGMENT
$pdata$?GetClassName@BerconTile@@UEAAXAEAVWStr@@@Z DD imagerel $LN3
	DD	imagerel $LN3+43
	DD	imagerel $unwind$?GetClassName@BerconTile@@UEAAXAEAVWStr@@@Z
pdata	ENDS
;	COMDAT pdata
pdata	SEGMENT
$pdata$?Clone@BerconTile@@UEAAPEAVReferenceTarget@@AEAVRemapDir@@@Z DD imagerel $LN10
	DD	imagerel $LN10+544
	DD	imagerel $unwind$?Clone@BerconTile@@UEAAPEAVReferenceTarget@@AEAVRemapDir@@@Z
pdata	ENDS
;	COMDAT pdata
pdata	SEGMENT
$pdata$?dtor$0@?0??Clone@BerconTile@@UEAAPEAVReferenceTarget@@AEAVRemapDir@@@Z@4HA DD imagerel ?dtor$0@?0??Clone@BerconTile@@UEAAPEAVReferenceTarget@@AEAVRemapDir@@@Z@4HA
	DD	imagerel ?dtor$0@?0??Clone@BerconTile@@UEAAPEAVReferenceTarget@@AEAVRemapDir@@@Z@4HA+25
	DD	imagerel $unwind$?dtor$0@?0??Clone@BerconTile@@UEAAPEAVReferenceTarget@@AEAVRemapDir@@@Z@4HA
pdata	ENDS
;	COMDAT pdata
pdata	SEGMENT
$pdata$?NotifyRefChanged@BerconTile@@UEAA?AW4RefResult@@AEBVInterval@@PEAVReferenceTarget@@AEA_KIH@Z DD imagerel $LN11
	DD	imagerel $LN11+277
	DD	imagerel $unwind$?NotifyRefChanged@BerconTile@@UEAA?AW4RefResult@@AEBVInterval@@PEAVReferenceTarget@@AEA_KIH@Z
pdata	ENDS
;	COMDAT pdata
pdata	SEGMENT
$pdata$?SubAnim@BerconTile@@UEAAPEAVAnimatable@@H@Z DD imagerel $LN10
	DD	imagerel $LN10+129
	DD	imagerel $unwind$?SubAnim@BerconTile@@UEAAPEAVAnimatable@@H@Z
pdata	ENDS
;	COMDAT pdata
pdata	SEGMENT
$pdata$?SubAnimName@BerconTile@@UEAA?AVWStr@@H@Z DD imagerel $LN12
	DD	imagerel $LN12+312
	DD	imagerel $unwind$?SubAnimName@BerconTile@@UEAA?AVWStr@@H@Z
pdata	ENDS
;	COMDAT pdata
pdata	SEGMENT
$pdata$?dtor$0@?0??SubAnimName@BerconTile@@UEAA?AVWStr@@H@Z@4HA DD imagerel ?dtor$0@?0??SubAnimName@BerconTile@@UEAA?AVWStr@@H@Z@4HA
	DD	imagerel ?dtor$0@?0??SubAnimName@BerconTile@@UEAA?AVWStr@@H@Z@4HA+39
	DD	imagerel $unwind$?dtor$0@?0??SubAnimName@BerconTile@@UEAA?AVWStr@@H@Z@4HA
pdata	ENDS
;	COMDAT pdata
pdata	SEGMENT
$pdata$?GetReference@BerconTile@@UEAAPEAVReferenceTarget@@H@Z DD imagerel $LN10
	DD	imagerel $LN10+129
	DD	imagerel $unwind$?GetReference@BerconTile@@UEAAPEAVReferenceTarget@@H@Z
pdata	ENDS
;	COMDAT pdata
pdata	SEGMENT
$pdata$?SetReference@BerconTile@@UEAAXHPEAVReferenceTarget@@@Z DD imagerel $LN10
	DD	imagerel $LN10+159
	DD	imagerel $unwind$?SetReference@BerconTile@@UEAAXHPEAVReferenceTarget@@@Z
pdata	ENDS
;	COMDAT pdata
pdata	SEGMENT
$pdata$?GetParamBlock@BerconTile@@UEAAPEAVIParamBlock2@@H@Z DD imagerel $LN8
	DD	imagerel $LN8+89
	DD	imagerel $unwind$?GetParamBlock@BerconTile@@UEAAPEAVIParamBlock2@@H@Z
pdata	ENDS
;	COMDAT pdata
pdata	SEGMENT
$pdata$?GetParamBlockByID@BerconTile@@UEAAPEAVIParamBlock2@@F@Z DD imagerel $LN6
	DD	imagerel $LN6+192
	DD	imagerel $unwind$?GetParamBlockByID@BerconTile@@UEAAPEAVIParamBlock2@@F@Z
pdata	ENDS
;	COMDAT pdata
pdata	SEGMENT
$pdata$?DeleteThis@BerconTile@@UEAAXXZ DD imagerel $LN5
	DD	imagerel $LN5+78
	DD	imagerel $unwind$?DeleteThis@BerconTile@@UEAAXXZ
pdata	ENDS
;	COMDAT pdata
pdata	SEGMENT
$pdata$??0BerconTile@@QEAA@XZ DD imagerel $LN8
	DD	imagerel $LN8+417
	DD	imagerel $unwind$??0BerconTile@@QEAA@XZ
pdata	ENDS
;	COMDAT pdata
pdata	SEGMENT
$pdata$?dtor$0@?0???0BerconTile@@QEAA@XZ@4HA DD imagerel ?dtor$0@?0???0BerconTile@@QEAA@XZ@4HA
	DD	imagerel ?dtor$0@?0???0BerconTile@@QEAA@XZ@4HA+24
	DD	imagerel $unwind$?dtor$0@?0???0BerconTile@@QEAA@XZ@4HA
pdata	ENDS
;	COMDAT pdata
pdata	SEGMENT
$pdata$?dtor$1@?0???0BerconTile@@QEAA@XZ@4HA DD imagerel ?dtor$1@?0???0BerconTile@@QEAA@XZ@4HA
	DD	imagerel ?dtor$1@?0???0BerconTile@@QEAA@XZ@4HA+31
	DD	imagerel $unwind$?dtor$1@?0???0BerconTile@@QEAA@XZ@4HA
pdata	ENDS
;	COMDAT pdata
pdata	SEGMENT
$pdata$??1BerconTile@@UEAA@XZ DD imagerel $LN5
	DD	imagerel $LN5+115
	DD	imagerel $unwind$??1BerconTile@@UEAA@XZ
pdata	ENDS
;	COMDAT pdata
pdata	SEGMENT
$pdata$?dtor$0@?0???1BerconTile@@UEAA@XZ@4HA DD imagerel ?dtor$0@?0???1BerconTile@@UEAA@XZ@4HA
	DD	imagerel ?dtor$0@?0???1BerconTile@@UEAA@XZ@4HA+24
	DD	imagerel $unwind$?dtor$0@?0???1BerconTile@@UEAA@XZ@4HA
pdata	ENDS
;	COMDAT pdata
pdata	SEGMENT
$pdata$?dtor$1@?0???1BerconTile@@UEAA@XZ@4HA DD imagerel ?dtor$1@?0???1BerconTile@@UEAA@XZ@4HA
	DD	imagerel ?dtor$1@?0???1BerconTile@@UEAA@XZ@4HA+31
	DD	imagerel $unwind$?dtor$1@?0???1BerconTile@@UEAA@XZ@4HA
pdata	ENDS
;	COMDAT pdata
pdata	SEGMENT
$pdata$?GetInterface@BerconTile@@UEAAPEAXK@Z DD imagerel $LN7
	DD	imagerel $LN7+87
	DD	imagerel $unwind$?GetInterface@BerconTile@@UEAAPEAXK@Z
pdata	ENDS
;	COMDAT pdata
pdata	SEGMENT
$pdata$?__autoclassinit2@BerconTile@@QEAAX_K@Z DD imagerel $LN3
	DD	imagerel $LN3+27
	DD	imagerel $unwind$?__autoclassinit2@BerconTile@@QEAAX_K@Z
pdata	ENDS
;	COMDAT pdata
pdata	SEGMENT
$pdata$??_GBerconTile@@UEAAPEAXI@Z DD imagerel $LN7
	DD	imagerel $LN7+85
	DD	imagerel $unwind$??_GBerconTile@@UEAAPEAXI@Z
pdata	ENDS
;	COMDAT pdata
pdata	SEGMENT
$pdata$??0BerconTileClassDesc@@QEAA@XZ DD imagerel $LN4
	DD	imagerel $LN4+55
	DD	imagerel $unwind$??0BerconTileClassDesc@@QEAA@XZ
pdata	ENDS
;	COMDAT pdata
pdata	SEGMENT
$pdata$?dtor$0@?0???0BerconTileClassDesc@@QEAA@XZ@4HA DD imagerel ?dtor$0@?0???0BerconTileClassDesc@@QEAA@XZ@4HA
	DD	imagerel ?dtor$0@?0???0BerconTileClassDesc@@QEAA@XZ@4HA+25
	DD	imagerel $unwind$?dtor$0@?0???0BerconTileClassDesc@@QEAA@XZ@4HA
pdata	ENDS
;	COMDAT pdata
pdata	SEGMENT
$pdata$??1BerconTileClassDesc@@UEAA@XZ DD imagerel $LN4
	DD	imagerel $LN4+50
	DD	imagerel $unwind$??1BerconTileClassDesc@@UEAA@XZ
pdata	ENDS
;	COMDAT pdata
pdata	SEGMENT
$pdata$?dtor$0@?0???1BerconTileClassDesc@@UEAA@XZ@4HA DD imagerel ?dtor$0@?0???1BerconTileClassDesc@@UEAA@XZ@4HA
	DD	imagerel ?dtor$0@?0???1BerconTileClassDesc@@UEAA@XZ@4HA+25
	DD	imagerel $unwind$?dtor$0@?0???1BerconTileClassDesc@@UEAA@XZ@4HA
pdata	ENDS
;	COMDAT pdata
pdata	SEGMENT
$pdata$?Create@BerconTileClassDesc@@UEAAPEAXH@Z DD imagerel $LN6
	DD	imagerel $LN6+107
	DD	imagerel $unwind$?Create@BerconTileClassDesc@@UEAAPEAXH@Z
pdata	ENDS
;	COMDAT pdata
pdata	SEGMENT
$pdata$?dtor$0@?0??Create@BerconTileClassDesc@@UEAAPEAXH@Z@4HA DD imagerel ?dtor$0@?0??Create@BerconTileClassDesc@@UEAAPEAXH@Z@4HA
	DD	imagerel ?dtor$0@?0??Create@BerconTileClassDesc@@UEAAPEAXH@Z@4HA+25
	DD	imagerel $unwind$?dtor$0@?0??Create@BerconTileClassDesc@@UEAAPEAXH@Z@4HA
pdata	ENDS
;	COMDAT pdata
pdata	SEGMENT
$pdata$?ClassName@BerconTileClassDesc@@UEAAPEB_WXZ DD imagerel $LN3
	DD	imagerel $LN3+24
	DD	imagerel $unwind$?ClassName@BerconTileClassDesc@@UEAAPEB_WXZ
pdata	ENDS
;	COMDAT pdata
pdata	SEGMENT
$pdata$?ClassID@BerconTileClassDesc@@UEAA?AVClass_ID@@XZ DD imagerel $LN3
	DD	imagerel $LN3+45
	DD	imagerel $unwind$?ClassID@BerconTileClassDesc@@UEAA?AVClass_ID@@XZ
pdata	ENDS
;	COMDAT pdata
pdata	SEGMENT
$pdata$?__autoclassinit2@BerconTileClassDesc@@QEAAX_K@Z DD imagerel $LN3
	DD	imagerel $LN3+27
	DD	imagerel $unwind$?__autoclassinit2@BerconTileClassDesc@@QEAAX_K@Z
pdata	ENDS
;	COMDAT pdata
pdata	SEGMENT
$pdata$??_GBerconTileClassDesc@@UEAAPEAXI@Z DD imagerel $LN7
	DD	imagerel $LN7+85
	DD	imagerel $unwind$??_GBerconTileClassDesc@@UEAAPEAXI@Z
pdata	ENDS
;	COMDAT pdata
pdata	SEGMENT
$pdata$??0BerconSC@@QEAA@QEAVShadeContext@@@Z DD imagerel $LN4
	DD	imagerel $LN4+408
	DD	imagerel $unwind$??0BerconSC@@QEAA@QEAVShadeContext@@@Z
pdata	ENDS
;	COMDAT pdata
pdata	SEGMENT
$pdata$?dtor$0@?0???0BerconSC@@QEAA@QEAVShadeContext@@@Z@4HA DD imagerel ?dtor$0@?0???0BerconSC@@QEAA@QEAVShadeContext@@@Z@4HA
	DD	imagerel ?dtor$0@?0???0BerconSC@@QEAA@QEAVShadeContext@@@Z@4HA+24
	DD	imagerel $unwind$?dtor$0@?0???0BerconSC@@QEAA@QEAVShadeContext@@@Z@4HA
pdata	ENDS
;	COMDAT pdata
pdata	SEGMENT
$pdata$?setUV1@BerconSC@@QEAAXVPoint3@@H@Z DD imagerel $LN3
	DD	imagerel $LN3+59
	DD	imagerel $unwind$?setUV1@BerconSC@@QEAAXVPoint3@@H@Z
pdata	ENDS
;	COMDAT pdata
pdata	SEGMENT
$pdata$?setUV2@BerconSC@@QEAAXVPoint3@@H@Z DD imagerel $LN3
	DD	imagerel $LN3+59
	DD	imagerel $unwind$?setUV2@BerconSC@@QEAAXVPoint3@@H@Z
pdata	ENDS
;	COMDAT pdata
pdata	SEGMENT
$pdata$?ClassID@BerconSC@@UEAA?AVClass_ID@@XZ DD imagerel $LN3
	DD	imagerel $LN3+45
	DD	imagerel $unwind$?ClassID@BerconSC@@UEAA?AVClass_ID@@XZ
pdata	ENDS
;	COMDAT pdata
pdata	SEGMENT
$pdata$?InMtlEditor@BerconSC@@UEAAHXZ DD imagerel $LN3
	DD	imagerel $LN3+44
	DD	imagerel $unwind$?InMtlEditor@BerconSC@@UEAAHXZ
pdata	ENDS
;	COMDAT pdata
pdata	SEGMENT
$pdata$?Antialias@BerconSC@@UEAAHXZ DD imagerel $LN3
	DD	imagerel $LN3+44
	DD	imagerel $unwind$?Antialias@BerconSC@@UEAAHXZ
pdata	ENDS
;	COMDAT pdata
pdata	SEGMENT
$pdata$?ProjType@BerconSC@@UEAAHXZ DD imagerel $LN3
	DD	imagerel $LN3+44
	DD	imagerel $unwind$?ProjType@BerconSC@@UEAAHXZ
pdata	ENDS
;	COMDAT pdata
pdata	SEGMENT
$pdata$?Light@BerconSC@@UEAAPEAVLightDesc@@H@Z DD imagerel $LN3
	DD	imagerel $LN3+52
	DD	imagerel $unwind$?Light@BerconSC@@UEAAPEAVLightDesc@@H@Z
pdata	ENDS
;	COMDAT pdata
pdata	SEGMENT
$pdata$?CurTime@BerconSC@@UEAAHXZ DD imagerel $LN3
	DD	imagerel $LN3+44
	DD	imagerel $unwind$?CurTime@BerconSC@@UEAAHXZ
pdata	ENDS
;	COMDAT pdata
pdata	SEGMENT
$pdata$?NodeID@BerconSC@@UEAAHXZ DD imagerel $LN3
	DD	imagerel $LN3+44
	DD	imagerel $unwind$?NodeID@BerconSC@@UEAAHXZ
pdata	ENDS
;	COMDAT pdata
pdata	SEGMENT
$pdata$?Node@BerconSC@@UEAAPEAVINode@@XZ DD imagerel $LN3
	DD	imagerel $LN3+44
	DD	imagerel $unwind$?Node@BerconSC@@UEAAPEAVINode@@XZ
pdata	ENDS
;	COMDAT pdata
pdata	SEGMENT
$pdata$?GetEvalObject@BerconSC@@UEAAPEAVObject@@XZ DD imagerel $LN3
	DD	imagerel $LN3+44
	DD	imagerel $unwind$?GetEvalObject@BerconSC@@UEAAPEAVObject@@XZ
pdata	ENDS
;	COMDAT pdata
pdata	SEGMENT
$pdata$?BarycentricCoords@BerconSC@@UEAA?AVPoint3@@XZ DD imagerel $LN3
	DD	imagerel $LN3+59
	DD	imagerel $unwind$?BarycentricCoords@BerconSC@@UEAA?AVPoint3@@XZ
pdata	ENDS
;	COMDAT pdata
pdata	SEGMENT
$pdata$?FaceNumber@BerconSC@@UEAAHXZ DD imagerel $LN3
	DD	imagerel $LN3+44
	DD	imagerel $unwind$?FaceNumber@BerconSC@@UEAAHXZ
pdata	ENDS
;	COMDAT pdata
pdata	SEGMENT
$pdata$?Normal@BerconSC@@UEAA?AVPoint3@@XZ DD imagerel $LN3
	DD	imagerel $LN3+59
	DD	imagerel $unwind$?Normal@BerconSC@@UEAA?AVPoint3@@XZ
pdata	ENDS
;	COMDAT pdata
pdata	SEGMENT
$pdata$?SetNormal@BerconSC@@UEAAXVPoint3@@@Z DD imagerel $LN3
	DD	imagerel $LN3+101
	DD	imagerel $unwind$?SetNormal@BerconSC@@UEAAXVPoint3@@@Z
pdata	ENDS
;	COMDAT pdata
pdata	SEGMENT
$pdata$?OrigNormal@BerconSC@@UEAA?AVPoint3@@XZ DD imagerel $LN3
	DD	imagerel $LN3+59
	DD	imagerel $unwind$?OrigNormal@BerconSC@@UEAA?AVPoint3@@XZ
pdata	ENDS
;	COMDAT pdata
pdata	SEGMENT
$pdata$?GNormal@BerconSC@@UEAA?AVPoint3@@XZ DD imagerel $LN3
	DD	imagerel $LN3+62
	DD	imagerel $unwind$?GNormal@BerconSC@@UEAA?AVPoint3@@XZ
pdata	ENDS
;	COMDAT pdata
pdata	SEGMENT
$pdata$?Curve@BerconSC@@UEAAMXZ DD imagerel $LN3
	DD	imagerel $LN3+47
	DD	imagerel $unwind$?Curve@BerconSC@@UEAAMXZ
pdata	ENDS
;	COMDAT pdata
pdata	SEGMENT
$pdata$?V@BerconSC@@UEAA?AVPoint3@@XZ DD imagerel $LN3
	DD	imagerel $LN3+62
	DD	imagerel $unwind$?V@BerconSC@@UEAA?AVPoint3@@XZ
pdata	ENDS
;	COMDAT pdata
pdata	SEGMENT
$pdata$?SetView@BerconSC@@UEAAXVPoint3@@@Z DD imagerel $LN3
	DD	imagerel $LN3+104
	DD	imagerel $unwind$?SetView@BerconSC@@UEAAXVPoint3@@@Z
pdata	ENDS
;	COMDAT pdata
pdata	SEGMENT
$pdata$?OrigView@BerconSC@@UEAA?AVPoint3@@XZ DD imagerel $LN3
	DD	imagerel $LN3+62
	DD	imagerel $unwind$?OrigView@BerconSC@@UEAA?AVPoint3@@XZ
pdata	ENDS
;	COMDAT pdata
pdata	SEGMENT
$pdata$?ReflectVector@BerconSC@@UEAA?AVPoint3@@XZ DD imagerel $LN3
	DD	imagerel $LN3+62
	DD	imagerel $unwind$?ReflectVector@BerconSC@@UEAA?AVPoint3@@XZ
pdata	ENDS
;	COMDAT pdata
pdata	SEGMENT
$pdata$?RefractVector@BerconSC@@UEAA?AVPoint3@@M@Z DD imagerel $LN3
	DD	imagerel $LN3+74
	DD	imagerel $unwind$?RefractVector@BerconSC@@UEAA?AVPoint3@@M@Z
pdata	ENDS
;	COMDAT pdata
pdata	SEGMENT
$pdata$?SetIOR@BerconSC@@UEAAXM@Z DD imagerel $LN3
	DD	imagerel $LN3+59
	DD	imagerel $unwind$?SetIOR@BerconSC@@UEAAXM@Z
pdata	ENDS
;	COMDAT pdata
pdata	SEGMENT
$pdata$?GetIOR@BerconSC@@UEAAMXZ DD imagerel $LN3
	DD	imagerel $LN3+47
	DD	imagerel $unwind$?GetIOR@BerconSC@@UEAAMXZ
pdata	ENDS
;	COMDAT pdata
pdata	SEGMENT
$pdata$?CamPos@BerconSC@@UEAA?AVPoint3@@XZ DD imagerel $LN3
	DD	imagerel $LN3+62
	DD	imagerel $unwind$?CamPos@BerconSC@@UEAA?AVPoint3@@XZ
pdata	ENDS
;	COMDAT pdata
pdata	SEGMENT
$pdata$?P@BerconSC@@UEAA?AVPoint3@@XZ DD imagerel $LN5
	DD	imagerel $LN5+139
	DD	imagerel $unwind$?P@BerconSC@@UEAA?AVPoint3@@XZ
pdata	ENDS
;	COMDAT pdata
pdata	SEGMENT
$pdata$?DP@BerconSC@@UEAA?AVPoint3@@XZ DD imagerel $LN3
	DD	imagerel $LN3+62
	DD	imagerel $unwind$?DP@BerconSC@@UEAA?AVPoint3@@XZ
pdata	ENDS
;	COMDAT pdata
pdata	SEGMENT
$pdata$?DP@BerconSC@@UEAAXAEAVPoint3@@0@Z DD imagerel $LN3
	DD	imagerel $LN3+67
	DD	imagerel $unwind$?DP@BerconSC@@UEAAXAEAVPoint3@@0@Z
pdata	ENDS
;	COMDAT pdata
pdata	SEGMENT
$pdata$?PObj@BerconSC@@UEAA?AVPoint3@@XZ DD imagerel $LN5
	DD	imagerel $LN5+139
	DD	imagerel $unwind$?PObj@BerconSC@@UEAA?AVPoint3@@XZ
pdata	ENDS
;	COMDAT pdata
pdata	SEGMENT
$pdata$?DPObj@BerconSC@@UEAA?AVPoint3@@XZ DD imagerel $LN3
	DD	imagerel $LN3+62
	DD	imagerel $unwind$?DPObj@BerconSC@@UEAA?AVPoint3@@XZ
pdata	ENDS
;	COMDAT pdata
pdata	SEGMENT
$pdata$?ObjectBox@BerconSC@@UEAA?AVBox3@@XZ DD imagerel $LN3
	DD	imagerel $LN3+62
	DD	imagerel $unwind$?ObjectBox@BerconSC@@UEAA?AVBox3@@XZ
pdata	ENDS
;	COMDAT pdata
pdata	SEGMENT
$pdata$?PObjRelBox@BerconSC@@UEAA?AVPoint3@@XZ DD imagerel $LN3
	DD	imagerel $LN3+62
	DD	imagerel $unwind$?PObjRelBox@BerconSC@@UEAA?AVPoint3@@XZ
pdata	ENDS
;	COMDAT pdata
pdata	SEGMENT
$pdata$?DPObjRelBox@BerconSC@@UEAA?AVPoint3@@XZ DD imagerel $LN3
	DD	imagerel $LN3+62
	DD	imagerel $unwind$?DPObjRelBox@BerconSC@@UEAA?AVPoint3@@XZ
pdata	ENDS
;	COMDAT pdata
pdata	SEGMENT
$pdata$?ScreenUV@BerconSC@@UEAAXAEAVPoint2@@0@Z DD imagerel $LN4
	DD	imagerel $LN4+126
	DD	imagerel $unwind$?ScreenUV@BerconSC@@UEAAXAEAVPoint2@@0@Z
pdata	ENDS
;	COMDAT pdata
pdata	SEGMENT
$pdata$?ScreenCoord@BerconSC@@UEAA?AVIPoint2@@XZ DD imagerel $LN3
	DD	imagerel $LN3+62
	DD	imagerel $unwind$?ScreenCoord@BerconSC@@UEAA?AVIPoint2@@XZ
pdata	ENDS
;	COMDAT pdata
pdata	SEGMENT
$pdata$?SurfacePtScreen@BerconSC@@UEAA?AVPoint2@@XZ DD imagerel $LN3
	DD	imagerel $LN3+62
	DD	imagerel $unwind$?SurfacePtScreen@BerconSC@@UEAA?AVPoint2@@XZ
pdata	ENDS
;	COMDAT pdata
pdata	SEGMENT
$pdata$?UVW@BerconSC@@UEAA?AVPoint3@@H@Z DD imagerel $LN8
	DD	imagerel $LN8+361
	DD	imagerel $unwind$?UVW@BerconSC@@UEAA?AVPoint3@@H@Z
pdata	ENDS
;	COMDAT pdata
pdata	SEGMENT
$pdata$?DUVW@BerconSC@@UEAA?AVPoint3@@H@Z DD imagerel $LN3
	DD	imagerel $LN3+72
	DD	imagerel $unwind$?DUVW@BerconSC@@UEAA?AVPoint3@@H@Z
pdata	ENDS
;	COMDAT pdata
pdata	SEGMENT
$pdata$?DPdUVW@BerconSC@@UEAAXQEAVPoint3@@H@Z DD imagerel $LN3
	DD	imagerel $LN3+67
	DD	imagerel $unwind$?DPdUVW@BerconSC@@UEAAXQEAVPoint3@@H@Z
pdata	ENDS
;	COMDAT pdata
pdata	SEGMENT
$pdata$?BumpBasisVectors@BerconSC@@UEAAHQEAVPoint3@@HH@Z DD imagerel $LN3
	DD	imagerel $LN3+77
	DD	imagerel $unwind$?BumpBasisVectors@BerconSC@@UEAAHQEAVPoint3@@HH@Z
pdata	ENDS
;	COMDAT pdata
pdata	SEGMENT
$pdata$?IsSuperSampleOn@BerconSC@@UEAAHXZ DD imagerel $LN3
	DD	imagerel $LN3+47
	DD	imagerel $unwind$?IsSuperSampleOn@BerconSC@@UEAAHXZ
pdata	ENDS
;	COMDAT pdata
pdata	SEGMENT
$pdata$?IsTextureSuperSampleOn@BerconSC@@UEAAHXZ DD imagerel $LN3
	DD	imagerel $LN3+47
	DD	imagerel $unwind$?IsTextureSuperSampleOn@BerconSC@@UEAAHXZ
pdata	ENDS
;	COMDAT pdata
pdata	SEGMENT
$pdata$?GetNSuperSample@BerconSC@@UEAAHXZ DD imagerel $LN3
	DD	imagerel $LN3+47
	DD	imagerel $unwind$?GetNSuperSample@BerconSC@@UEAAHXZ
pdata	ENDS
;	COMDAT pdata
pdata	SEGMENT
$pdata$?GetSampleSizeScale@BerconSC@@UEAAMXZ DD imagerel $LN3
	DD	imagerel $LN3+47
	DD	imagerel $unwind$?GetSampleSizeScale@BerconSC@@UEAAMXZ
pdata	ENDS
;	COMDAT pdata
pdata	SEGMENT
$pdata$?UVWNormal@BerconSC@@UEAA?AVPoint3@@H@Z DD imagerel $LN3
	DD	imagerel $LN3+72
	DD	imagerel $unwind$?UVWNormal@BerconSC@@UEAA?AVPoint3@@H@Z
pdata	ENDS
;	COMDAT pdata
pdata	SEGMENT
$pdata$?RayDiam@BerconSC@@UEAAMXZ DD imagerel $LN3
	DD	imagerel $LN3+47
	DD	imagerel $unwind$?RayDiam@BerconSC@@UEAAMXZ
pdata	ENDS
;	COMDAT pdata
pdata	SEGMENT
$pdata$?RayConeAngle@BerconSC@@UEAAMXZ DD imagerel $LN3
	DD	imagerel $LN3+47
	DD	imagerel $unwind$?RayConeAngle@BerconSC@@UEAAMXZ
pdata	ENDS
;	COMDAT pdata
pdata	SEGMENT
$pdata$?EvalEnvironMap@BerconSC@@UEAA?AVAColor@@PEAVTexmap@@VPoint3@@@Z DD imagerel $LN3
	DD	imagerel $LN3+129
	DD	imagerel $unwind$?EvalEnvironMap@BerconSC@@UEAA?AVAColor@@PEAVTexmap@@VPoint3@@@Z
pdata	ENDS
;	COMDAT pdata
pdata	SEGMENT
$pdata$?GetBGColor@BerconSC@@UEAAXAEAVColor@@0H@Z DD imagerel $LN3
	DD	imagerel $LN3+77
	DD	imagerel $unwind$?GetBGColor@BerconSC@@UEAAXAEAVColor@@0H@Z
pdata	ENDS
;	COMDAT pdata
pdata	SEGMENT
$pdata$?CamNearRange@BerconSC@@UEAAMXZ DD imagerel $LN3
	DD	imagerel $LN3+47
	DD	imagerel $unwind$?CamNearRange@BerconSC@@UEAAMXZ
pdata	ENDS
;	COMDAT pdata
pdata	SEGMENT
$pdata$?CamFarRange@BerconSC@@UEAAMXZ DD imagerel $LN3
	DD	imagerel $LN3+47
	DD	imagerel $unwind$?CamFarRange@BerconSC@@UEAAMXZ
pdata	ENDS
;	COMDAT pdata
pdata	SEGMENT
$pdata$?PointTo@BerconSC@@UEAA?AVPoint3@@AEBV2@W4RefFrame@@@Z DD imagerel $LN3
	DD	imagerel $LN3+82
	DD	imagerel $unwind$?PointTo@BerconSC@@UEAA?AVPoint3@@AEBV2@W4RefFrame@@@Z
pdata	ENDS
;	COMDAT pdata
pdata	SEGMENT
$pdata$?PointFrom@BerconSC@@UEAA?AVPoint3@@AEBV2@W4RefFrame@@@Z DD imagerel $LN3
	DD	imagerel $LN3+82
	DD	imagerel $unwind$?PointFrom@BerconSC@@UEAA?AVPoint3@@AEBV2@W4RefFrame@@@Z
pdata	ENDS
;	COMDAT pdata
pdata	SEGMENT
$pdata$?VectorTo@BerconSC@@UEAA?AVPoint3@@AEBV2@W4RefFrame@@@Z DD imagerel $LN3
	DD	imagerel $LN3+82
	DD	imagerel $unwind$?VectorTo@BerconSC@@UEAA?AVPoint3@@AEBV2@W4RefFrame@@@Z
pdata	ENDS
;	COMDAT pdata
pdata	SEGMENT
$pdata$?VectorFrom@BerconSC@@UEAA?AVPoint3@@AEBV2@W4RefFrame@@@Z DD imagerel $LN3
	DD	imagerel $LN3+82
	DD	imagerel $unwind$?VectorFrom@BerconSC@@UEAA?AVPoint3@@AEBV2@W4RefFrame@@@Z
pdata	ENDS
;	COMDAT pdata
pdata	SEGMENT
$pdata$?VectorToNoScale@BerconSC@@UEAA?AVPoint3@@AEBV2@W4RefFrame@@@Z DD imagerel $LN3
	DD	imagerel $LN3+82
	DD	imagerel $unwind$?VectorToNoScale@BerconSC@@UEAA?AVPoint3@@AEBV2@W4RefFrame@@@Z
pdata	ENDS
;	COMDAT pdata
pdata	SEGMENT
$pdata$?VectorFromNoScale@BerconSC@@UEAA?AVPoint3@@AEBV2@W4RefFrame@@@Z DD imagerel $LN3
	DD	imagerel $LN3+82
	DD	imagerel $unwind$?VectorFromNoScale@BerconSC@@UEAA?AVPoint3@@AEBV2@W4RefFrame@@@Z
pdata	ENDS
;	COMDAT pdata
pdata	SEGMENT
$pdata$?SetGBufferID@BerconSC@@UEAAXH@Z DD imagerel $LN3
	DD	imagerel $LN3+55
	DD	imagerel $unwind$?SetGBufferID@BerconSC@@UEAAXH@Z
pdata	ENDS
;	COMDAT pdata
pdata	SEGMENT
$pdata$?DebugFile@BerconSC@@UEAAPEAU_iobuf@@XZ DD imagerel $LN3
	DD	imagerel $LN3+47
	DD	imagerel $unwind$?DebugFile@BerconSC@@UEAAPEAU_iobuf@@XZ
pdata	ENDS
;	COMDAT pdata
pdata	SEGMENT
$pdata$?EvalGlobalEnvironMap@BerconSC@@UEAA?AVAColor@@VPoint3@@@Z DD imagerel $LN3
	DD	imagerel $LN3+119
	DD	imagerel $unwind$?EvalGlobalEnvironMap@BerconSC@@UEAA?AVAColor@@VPoint3@@@Z
pdata	ENDS
;	COMDAT pdata
pdata	SEGMENT
$pdata$?GetCache@BerconSC@@UEAAHPEAVTexmap@@AEAVAColor@@@Z DD imagerel $LN3
	DD	imagerel $LN3+67
	DD	imagerel $unwind$?GetCache@BerconSC@@UEAAHPEAVTexmap@@AEAVAColor@@@Z
pdata	ENDS
;	COMDAT pdata
pdata	SEGMENT
$pdata$?GetCache@BerconSC@@UEAAHPEAVTexmap@@AEAM@Z DD imagerel $LN3
	DD	imagerel $LN3+67
	DD	imagerel $unwind$?GetCache@BerconSC@@UEAAHPEAVTexmap@@AEAM@Z
pdata	ENDS
;	COMDAT pdata
pdata	SEGMENT
$pdata$?GetCache@BerconSC@@UEAAHPEAVTexmap@@AEAVPoint3@@@Z DD imagerel $LN3
	DD	imagerel $LN3+67
	DD	imagerel $unwind$?GetCache@BerconSC@@UEAAHPEAVTexmap@@AEAVPoint3@@@Z
pdata	ENDS
;	COMDAT pdata
pdata	SEGMENT
$pdata$?PutCache@BerconSC@@UEAAXPEAVTexmap@@AEBVAColor@@@Z DD imagerel $LN3
	DD	imagerel $LN3+67
	DD	imagerel $unwind$?PutCache@BerconSC@@UEAAXPEAVTexmap@@AEBVAColor@@@Z
pdata	ENDS
;	COMDAT pdata
pdata	SEGMENT
$pdata$?PutCache@BerconSC@@UEAAXPEAVTexmap@@M@Z DD imagerel $LN3
	DD	imagerel $LN3+69
	DD	imagerel $unwind$?PutCache@BerconSC@@UEAAXPEAVTexmap@@M@Z
pdata	ENDS
;	COMDAT pdata
pdata	SEGMENT
$pdata$?PutCache@BerconSC@@UEAAXPEAVTexmap@@AEBVPoint3@@@Z DD imagerel $LN3
	DD	imagerel $LN3+67
	DD	imagerel $unwind$?PutCache@BerconSC@@UEAAXPEAVTexmap@@AEBVPoint3@@@Z
pdata	ENDS
;	COMDAT pdata
pdata	SEGMENT
$pdata$?TossCache@BerconSC@@UEAAXPEAVTexmap@@@Z DD imagerel $LN3
	DD	imagerel $LN3+57
	DD	imagerel $unwind$?TossCache@BerconSC@@UEAAXPEAVTexmap@@@Z
pdata	ENDS
;	COMDAT pdata
pdata	SEGMENT
$pdata$?Execute@BerconSC@@UEAA_JH_K00@Z DD imagerel $LN3
	DD	imagerel $LN3+85
	DD	imagerel $unwind$?Execute@BerconSC@@UEAA_JH_K00@Z
pdata	ENDS
;	COMDAT pdata
pdata	SEGMENT
$pdata$?NRenderElements@BerconSC@@UEAAHXZ DD imagerel $LN3
	DD	imagerel $LN3+47
	DD	imagerel $unwind$?NRenderElements@BerconSC@@UEAAHXZ
pdata	ENDS
;	COMDAT pdata
pdata	SEGMENT
$pdata$?GetRenderElement@BerconSC@@UEAAPEAVIRenderElement@@H@Z DD imagerel $LN3
	DD	imagerel $LN3+55
	DD	imagerel $unwind$?GetRenderElement@BerconSC@@UEAAPEAVIRenderElement@@H@Z
pdata	ENDS
;	COMDAT pdata
pdata	SEGMENT
$pdata$?DiffuseIllum@BerconSC@@UEAA?AVColor@@XZ DD imagerel $LN3
	DD	imagerel $LN3+62
	DD	imagerel $unwind$?DiffuseIllum@BerconSC@@UEAA?AVColor@@XZ
pdata	ENDS
;	COMDAT pdata
pdata	SEGMENT
$pdata$??1BerconSC@@UEAA@XZ DD imagerel $LN4
	DD	imagerel $LN4+34
	DD	imagerel $unwind$??1BerconSC@@UEAA@XZ
pdata	ENDS
;	COMDAT pdata
pdata	SEGMENT
$pdata$?dtor$0@?0???1BerconSC@@UEAA@XZ@4HA DD imagerel ?dtor$0@?0???1BerconSC@@UEAA@XZ@4HA
	DD	imagerel ?dtor$0@?0???1BerconSC@@UEAA@XZ@4HA+24
	DD	imagerel $unwind$?dtor$0@?0???1BerconSC@@UEAA@XZ@4HA
pdata	ENDS
;	COMDAT pdata
pdata	SEGMENT
$pdata$?__autoclassinit2@BerconSC@@QEAAX_K@Z DD imagerel $LN3
	DD	imagerel $LN3+27
	DD	imagerel $unwind$?__autoclassinit2@BerconSC@@QEAAX_K@Z
pdata	ENDS
;	COMDAT pdata
pdata	SEGMENT
$pdata$??_GBerconSC@@UEAAPEAXI@Z DD imagerel $LN7
	DD	imagerel $LN7+85
	DD	imagerel $unwind$??_GBerconSC@@UEAAPEAXI@Z
pdata	ENDS
;	COMDAT pdata
pdata	SEGMENT
$pdata$??__EBerconTileDesc@@YAXXZ DD imagerel ??__EBerconTileDesc@@YAXXZ
	DD	imagerel ??__EBerconTileDesc@@YAXXZ+50
	DD	imagerel $unwind$??__EBerconTileDesc@@YAXXZ
pdata	ENDS
;	COMDAT pdata
pdata	SEGMENT
$pdata$??__FBerconTileDesc@@YAXXZ DD imagerel ??__FBerconTileDesc@@YAXXZ
	DD	imagerel ??__FBerconTileDesc@@YAXXZ+21
	DD	imagerel $unwind$??__FBerconTileDesc@@YAXXZ
pdata	ENDS
;	COMDAT pdata
pdata	SEGMENT
$pdata$??__Exyz_blk@@YAXXZ DD imagerel ??__Exyz_blk@@YAXXZ
	DD	imagerel ??__Exyz_blk@@YAXXZ+103
	DD	imagerel $unwind$??__Exyz_blk@@YAXXZ
pdata	ENDS
;	COMDAT pdata
pdata	SEGMENT
$pdata$??__Fxyz_blk@@YAXXZ DD imagerel ??__Fxyz_blk@@YAXXZ
	DD	imagerel ??__Fxyz_blk@@YAXXZ+21
	DD	imagerel $unwind$??__Fxyz_blk@@YAXXZ
pdata	ENDS
;	COMDAT pdata
pdata	SEGMENT
$pdata$??__EBerconTile_param_blk@@YAXXZ DD imagerel ??__EBerconTile_param_blk@@YAXXZ
	DD	imagerel ??__EBerconTile_param_blk@@YAXXZ+7681
	DD	imagerel $unwind$??__EBerconTile_param_blk@@YAXXZ
pdata	ENDS
;	COMDAT pdata
pdata	SEGMENT
$pdata$??__FBerconTile_param_blk@@YAXXZ DD imagerel ??__FBerconTile_param_blk@@YAXXZ
	DD	imagerel ??__FBerconTile_param_blk@@YAXXZ+22
	DD	imagerel $unwind$??__FBerconTile_param_blk@@YAXXZ
pdata	ENDS
;	COMDAT pdata
pdata	SEGMENT
$pdata$??__EBerconMap_param_blk@@YAXXZ DD imagerel ??__EBerconMap_param_blk@@YAXXZ
	DD	imagerel ??__EBerconMap_param_blk@@YAXXZ+687
	DD	imagerel $unwind$??__EBerconMap_param_blk@@YAXXZ
pdata	ENDS
;	COMDAT pdata
pdata	SEGMENT
$pdata$??__FBerconMap_param_blk@@YAXXZ DD imagerel ??__FBerconMap_param_blk@@YAXXZ
	DD	imagerel ??__FBerconMap_param_blk@@YAXXZ+22
	DD	imagerel $unwind$??__FBerconMap_param_blk@@YAXXZ
pdata	ENDS
;	COMDAT pdata
pdata	SEGMENT
$pdata$??0BerconTileDlgProc@@QEAA@PEAVBerconTile@@@Z DD imagerel $LN4
	DD	imagerel $LN4+73
	DD	imagerel $unwind$??0BerconTileDlgProc@@QEAA@PEAVBerconTile@@@Z
pdata	ENDS
;	COMDAT pdata
pdata	SEGMENT
$pdata$?dtor$0@?0???0BerconTileDlgProc@@QEAA@PEAVBerconTile@@@Z@4HA DD imagerel ?dtor$0@?0???0BerconTileDlgProc@@QEAA@PEAVBerconTile@@@Z@4HA
	DD	imagerel ?dtor$0@?0???0BerconTileDlgProc@@QEAA@PEAVBerconTile@@@Z@4HA+24
	DD	imagerel $unwind$?dtor$0@?0???0BerconTileDlgProc@@QEAA@PEAVBerconTile@@@Z@4HA
pdata	ENDS
;	COMDAT pdata
pdata	SEGMENT
$pdata$?DlgProc@BerconTileDlgProc@@UEAA_JHPEAVIParamMap2@@PEAUHWND__@@I_K_J@Z DD imagerel $LN8
	DD	imagerel $LN8+2404
	DD	imagerel $unwind$?DlgProc@BerconTileDlgProc@@UEAA_JHPEAVIParamMap2@@PEAUHWND__@@I_K_J@Z
pdata	ENDS
;	COMDAT pdata
pdata	SEGMENT
$pdata$?DeleteThis@BerconTileDlgProc@@UEAAXXZ DD imagerel $LN5
	DD	imagerel $LN5+78
	DD	imagerel $unwind$?DeleteThis@BerconTileDlgProc@@UEAAXXZ
pdata	ENDS
;	COMDAT pdata
pdata	SEGMENT
$pdata$?SetThing@BerconTileDlgProc@@UEAAXPEAVReferenceTarget@@@Z DD imagerel $LN3
	DD	imagerel $LN3+79
	DD	imagerel $unwind$?SetThing@BerconTileDlgProc@@UEAAXPEAVReferenceTarget@@@Z
pdata	ENDS
;	COMDAT pdata
pdata	SEGMENT
$pdata$??1BerconTileDlgProc@@UEAA@XZ DD imagerel $LN4
	DD	imagerel $LN4+34
	DD	imagerel $unwind$??1BerconTileDlgProc@@UEAA@XZ
pdata	ENDS
;	COMDAT pdata
pdata	SEGMENT
$pdata$?dtor$0@?0???1BerconTileDlgProc@@UEAA@XZ@4HA DD imagerel ?dtor$0@?0???1BerconTileDlgProc@@UEAA@XZ@4HA
	DD	imagerel ?dtor$0@?0???1BerconTileDlgProc@@UEAA@XZ@4HA+24
	DD	imagerel $unwind$?dtor$0@?0???1BerconTileDlgProc@@UEAA@XZ@4HA
pdata	ENDS
;	COMDAT pdata
pdata	SEGMENT
$pdata$?__autoclassinit2@BerconTileDlgProc@@QEAAX_K@Z DD imagerel $LN3
	DD	imagerel $LN3+27
	DD	imagerel $unwind$?__autoclassinit2@BerconTileDlgProc@@QEAAX_K@Z
pdata	ENDS
;	COMDAT pdata
pdata	SEGMENT
$pdata$??_GBerconTileDlgProc@@UEAAPEAXI@Z DD imagerel $LN7
	DD	imagerel $LN7+85
	DD	imagerel $unwind$??_GBerconTileDlgProc@@UEAAPEAXI@Z
pdata	ENDS
;	COMDAT pdata
pdata	SEGMENT
$pdata$??__Eblack@@YAXXZ DD imagerel ??__Eblack@@YAXXZ
	DD	imagerel ??__Eblack@@YAXXZ+44
	DD	imagerel $unwind$??__Eblack@@YAXXZ
pdata	ENDS
;	COMDAT pdata
pdata	SEGMENT
$pdata$??__Ewhite@@YAXXZ DD imagerel ??__Ewhite@@YAXXZ
	DD	imagerel ??__Ewhite@@YAXXZ+59
	DD	imagerel $unwind$??__Ewhite@@YAXXZ
pdata	ENDS
;	COMDAT pdata
pdata	SEGMENT
$pdata$??$?0$$V@?$_Compressed_pair@U?$_Wrap_alloc@V?$allocator@VTileRow@@@std@@@std@@V?$_Vector_val@U?$_Simple_types@VTileRow@@@std@@@2@$00@std@@QEAA@U_Zero_then_variadic_args_t@1@@Z DD imagerel $LN4
	DD	imagerel $LN4+56
	DD	imagerel $unwind$??$?0$$V@?$_Compressed_pair@U?$_Wrap_alloc@V?$allocator@VTileRow@@@std@@@std@@V?$_Vector_val@U?$_Simple_types@VTileRow@@@std@@@2@$00@std@@QEAA@U_Zero_then_variadic_args_t@1@@Z
pdata	ENDS
;	COMDAT pdata
pdata	SEGMENT
$pdata$?dtor$0@?0???$?0$$V@?$_Compressed_pair@U?$_Wrap_alloc@V?$allocator@VTileRow@@@std@@@std@@V?$_Vector_val@U?$_Simple_types@VTileRow@@@std@@@2@$00@std@@QEAA@U_Zero_then_variadic_args_t@1@@Z@4HA DD imagerel ?dtor$0@?0???$?0$$V@?$_Compressed_pair@U?$_Wrap_alloc@V?$allocator@VTileRow@@@std@@@std@@V?$_Vector_val@U?$_Simple_types@VTileRow@@@std@@@2@$00@std@@QEAA@U_Zero_then_variadic_args_t@1@@Z@4HA
	DD	imagerel ?dtor$0@?0???$?0$$V@?$_Compressed_pair@U?$_Wrap_alloc@V?$allocator@VTileRow@@@std@@@std@@V?$_Vector_val@U?$_Simple_types@VTileRow@@@std@@@2@$00@std@@QEAA@U_Zero_then_variadic_args_t@1@@Z@4HA+24
	DD	imagerel $unwind$?dtor$0@?0???$?0$$V@?$_Compressed_pair@U?$_Wrap_alloc@V?$allocator@VTileRow@@@std@@@std@@V?$_Vector_val@U?$_Simple_types@VTileRow@@@std@@@2@$00@std@@QEAA@U_Zero_then_variadic_args_t@1@@Z@4HA
pdata	ENDS
;	COMDAT pdata
pdata	SEGMENT
$pdata$??$?0$$V@?$_Compressed_pair@U?$_Wrap_alloc@V?$allocator@M@std@@@std@@V?$_Vector_val@U?$_Simple_types@M@std@@@2@$00@std@@QEAA@U_Zero_then_variadic_args_t@1@@Z DD imagerel $LN4
	DD	imagerel $LN4+56
	DD	imagerel $unwind$??$?0$$V@?$_Compressed_pair@U?$_Wrap_alloc@V?$allocator@M@std@@@std@@V?$_Vector_val@U?$_Simple_types@M@std@@@2@$00@std@@QEAA@U_Zero_then_variadic_args_t@1@@Z
pdata	ENDS
;	COMDAT pdata
pdata	SEGMENT
$pdata$?dtor$0@?0???$?0$$V@?$_Compressed_pair@U?$_Wrap_alloc@V?$allocator@M@std@@@std@@V?$_Vector_val@U?$_Simple_types@M@std@@@2@$00@std@@QEAA@U_Zero_then_variadic_args_t@1@@Z@4HA DD imagerel ?dtor$0@?0???$?0$$V@?$_Compressed_pair@U?$_Wrap_alloc@V?$allocator@M@std@@@std@@V?$_Vector_val@U?$_Simple_types@M@std@@@2@$00@std@@QEAA@U_Zero_then_variadic_args_t@1@@Z@4HA
	DD	imagerel ?dtor$0@?0???$?0$$V@?$_Compressed_pair@U?$_Wrap_alloc@V?$allocator@M@std@@@std@@V?$_Vector_val@U?$_Simple_types@M@std@@@2@$00@std@@QEAA@U_Zero_then_variadic_args_t@1@@Z@4HA+24
	DD	imagerel $unwind$?dtor$0@?0???$?0$$V@?$_Compressed_pair@U?$_Wrap_alloc@V?$allocator@M@std@@@std@@V?$_Vector_val@U?$_Simple_types@M@std@@@2@$00@std@@QEAA@U_Zero_then_variadic_args_t@1@@Z@4HA
pdata	ENDS
;	COMDAT pdata
pdata	SEGMENT
$pdata$??$?0$$V@?$_Compressed_pair@U?$_Wrap_alloc@V?$allocator@_W@std@@@std@@V?$_String_val@U?$_Simple_types@_W@std@@@2@$00@std@@QEAA@U_Zero_then_variadic_args_t@1@@Z DD imagerel $LN4
	DD	imagerel $LN4+56
	DD	imagerel $unwind$??$?0$$V@?$_Compressed_pair@U?$_Wrap_alloc@V?$allocator@_W@std@@@std@@V?$_String_val@U?$_Simple_types@_W@std@@@2@$00@std@@QEAA@U_Zero_then_variadic_args_t@1@@Z
pdata	ENDS
;	COMDAT pdata
pdata	SEGMENT
$pdata$?dtor$0@?0???$?0$$V@?$_Compressed_pair@U?$_Wrap_alloc@V?$allocator@_W@std@@@std@@V?$_String_val@U?$_Simple_types@_W@std@@@2@$00@std@@QEAA@U_Zero_then_variadic_args_t@1@@Z@4HA DD imagerel ?dtor$0@?0???$?0$$V@?$_Compressed_pair@U?$_Wrap_alloc@V?$allocator@_W@std@@@std@@V?$_String_val@U?$_Simple_types@_W@std@@@2@$00@std@@QEAA@U_Zero_then_variadic_args_t@1@@Z@4HA
	DD	imagerel ?dtor$0@?0???$?0$$V@?$_Compressed_pair@U?$_Wrap_alloc@V?$allocator@_W@std@@@std@@V?$_String_val@U?$_Simple_types@_W@std@@@2@$00@std@@QEAA@U_Zero_then_variadic_args_t@1@@Z@4HA+24
	DD	imagerel $unwind$?dtor$0@?0???$?0$$V@?$_Compressed_pair@U?$_Wrap_alloc@V?$allocator@_W@std@@@std@@V?$_String_val@U?$_Simple_types@_W@std@@@2@$00@std@@QEAA@U_Zero_then_variadic_args_t@1@@Z@4HA
pdata	ENDS
;	COMDAT pdata
pdata	SEGMENT
$pdata$??$destroy@PEA_W@?$_Wrap_alloc@V?$allocator@_W@std@@@std@@QEAAXPEAPEA_W@Z DD imagerel $LN3
	DD	imagerel $LN3+34
	DD	imagerel $unwind$??$destroy@PEA_W@?$_Wrap_alloc@V?$allocator@_W@std@@@std@@QEAAXPEAPEA_W@Z
pdata	ENDS
;	COMDAT pdata
pdata	SEGMENT
$pdata$??$_Debug_pointer@$$CB_W@std@@YAXPEB_W0I@Z DD imagerel $LN4
	DD	imagerel $LN4+55
	DD	imagerel $unwind$??$_Debug_pointer@$$CB_W@std@@YAXPEB_W0I@Z
pdata	ENDS
;	COMDAT pdata
pdata	SEGMENT
$pdata$??$_Debug_pointer_if@$$CB_W@std@@YAX_NPEB_W1I@Z DD imagerel $LN4
	DD	imagerel $LN4+68
	DD	imagerel $unwind$??$_Debug_pointer_if@$$CB_W@std@@YAX_NPEB_W1I@Z
pdata	ENDS
;	COMDAT pdata
pdata	SEGMENT
$pdata$?deallocate@?$allocator@U_Container_proxy@std@@@std@@QEAAXPEAU_Container_proxy@2@_K@Z DD imagerel $LN3
	DD	imagerel $LN3+45
	DD	imagerel $unwind$?deallocate@?$allocator@U_Container_proxy@std@@@std@@QEAAXPEAU_Container_proxy@2@_K@Z
pdata	ENDS
;	COMDAT pdata
pdata	SEGMENT
$pdata$?allocate@?$allocator@U_Container_proxy@std@@@std@@QEAAPEAU_Container_proxy@2@_K@Z DD imagerel $LN3
	DD	imagerel $LN3+37
	DD	imagerel $unwind$?allocate@?$allocator@U_Container_proxy@std@@@std@@QEAAPEAU_Container_proxy@2@_K@Z
pdata	ENDS
;	COMDAT pdata
pdata	SEGMENT
$pdata$?address@?$_Wrap_alloc@V?$allocator@U_Container_proxy@std@@@std@@@std@@QEBAPEAU_Container_proxy@2@AEAU32@@Z DD imagerel $LN3
	DD	imagerel $LN3+29
	DD	imagerel $unwind$?address@?$_Wrap_alloc@V?$allocator@U_Container_proxy@std@@@std@@@std@@QEBAPEAU_Container_proxy@2@AEAU32@@Z
pdata	ENDS
;	COMDAT pdata
pdata	SEGMENT
$pdata$?allocate@?$_Wrap_alloc@V?$allocator@U_Container_proxy@std@@@std@@@std@@QEAAPEAU_Container_proxy@2@_K@Z DD imagerel $LN3
	DD	imagerel $LN3+34
	DD	imagerel $unwind$?allocate@?$_Wrap_alloc@V?$allocator@U_Container_proxy@std@@@std@@@std@@QEAAPEAU_Container_proxy@2@_K@Z
pdata	ENDS
;	COMDAT pdata
pdata	SEGMENT
$pdata$?deallocate@?$_Wrap_alloc@V?$allocator@U_Container_proxy@std@@@std@@@std@@QEAAXPEAU_Container_proxy@2@_K@Z DD imagerel $LN3
	DD	imagerel $LN3+44
	DD	imagerel $unwind$?deallocate@?$_Wrap_alloc@V?$allocator@U_Container_proxy@std@@@std@@@std@@QEAAXPEAU_Container_proxy@2@_K@Z
pdata	ENDS
;	COMDAT pdata
pdata	SEGMENT
$pdata$??$?0AEAU?$_Wrap_alloc@V?$allocator@VTileRow@@@std@@@std@@@?$_Wrap_alloc@V?$allocator@U_Container_proxy@std@@@std@@@std@@QEAA@AEAU?$_Wrap_alloc@V?$allocator@VTileRow@@@std@@@1@@Z DD imagerel $LN3
	DD	imagerel $LN3+47
	DD	imagerel $unwind$??$?0AEAU?$_Wrap_alloc@V?$allocator@VTileRow@@@std@@@std@@@?$_Wrap_alloc@V?$allocator@U_Container_proxy@std@@@std@@@std@@QEAA@AEAU?$_Wrap_alloc@V?$allocator@VTileRow@@@std@@@1@@Z
pdata	ENDS
;	COMDAT pdata
pdata	SEGMENT
$pdata$??$destroy@U_Container_proxy@std@@@?$_Wrap_alloc@V?$allocator@U_Container_proxy@std@@@std@@@std@@QEAAXPEAU_Container_proxy@1@@Z DD imagerel $LN3
	DD	imagerel $LN3+34
	DD	imagerel $unwind$??$destroy@U_Container_proxy@std@@@?$_Wrap_alloc@V?$allocator@U_Container_proxy@std@@@std@@@std@@QEAAXPEAU_Container_proxy@1@@Z
pdata	ENDS
;	COMDAT pdata
pdata	SEGMENT
$pdata$??$construct@U_Container_proxy@std@@U12@@?$_Wrap_alloc@V?$allocator@U_Container_proxy@std@@@std@@@std@@QEAAXPEAU_Container_proxy@1@$$QEAU21@@Z DD imagerel $LN3
	DD	imagerel $LN3+52
	DD	imagerel $unwind$??$construct@U_Container_proxy@std@@U12@@?$_Wrap_alloc@V?$allocator@U_Container_proxy@std@@@std@@@std@@QEAAXPEAU_Container_proxy@1@$$QEAU21@@Z
pdata	ENDS
;	COMDAT pdata
pdata	SEGMENT
$pdata$??$_Destroy_range@V?$allocator@VTileRow@@@std@@PEAVTileRow@@@std@@YAXPEAVTileRow@@0AEAU?$_Wrap_alloc@V?$allocator@VTileRow@@@std@@@0@@Z DD imagerel $LN3
	DD	imagerel $LN3+50
	DD	imagerel $unwind$??$_Destroy_range@V?$allocator@VTileRow@@@std@@PEAVTileRow@@@std@@YAXPEAVTileRow@@0AEAU?$_Wrap_alloc@V?$allocator@VTileRow@@@std@@@0@@Z
pdata	ENDS
;	COMDAT pdata
pdata	SEGMENT
$pdata$??$?0AEAU?$_Wrap_alloc@V?$allocator@M@std@@@std@@@?$_Wrap_alloc@V?$allocator@U_Container_proxy@std@@@std@@@std@@QEAA@AEAU?$_Wrap_alloc@V?$allocator@M@std@@@1@@Z DD imagerel $LN3
	DD	imagerel $LN3+47
	DD	imagerel $unwind$??$?0AEAU?$_Wrap_alloc@V?$allocator@M@std@@@std@@@?$_Wrap_alloc@V?$allocator@U_Container_proxy@std@@@std@@@std@@QEAA@AEAU?$_Wrap_alloc@V?$allocator@M@std@@@1@@Z
pdata	ENDS
;	COMDAT pdata
pdata	SEGMENT
$pdata$??$_Destroy_range@V?$allocator@M@std@@PEAM@std@@YAXPEAM0AEAU?$_Wrap_alloc@V?$allocator@M@std@@@0@@Z DD imagerel $LN3
	DD	imagerel $LN3+50
	DD	imagerel $unwind$??$_Destroy_range@V?$allocator@M@std@@PEAM@std@@YAXPEAM0AEAU?$_Wrap_alloc@V?$allocator@M@std@@@0@@Z
pdata	ENDS
;	COMDAT pdata
pdata	SEGMENT
$pdata$??$?0AEAU?$_Wrap_alloc@V?$allocator@_W@std@@@std@@@?$_Wrap_alloc@V?$allocator@U_Container_proxy@std@@@std@@@std@@QEAA@AEAU?$_Wrap_alloc@V?$allocator@_W@std@@@1@@Z DD imagerel $LN3
	DD	imagerel $LN3+47
	DD	imagerel $unwind$??$?0AEAU?$_Wrap_alloc@V?$allocator@_W@std@@@std@@@?$_Wrap_alloc@V?$allocator@U_Container_proxy@std@@@std@@@std@@QEAA@AEAU?$_Wrap_alloc@V?$allocator@_W@std@@@1@@Z
pdata	ENDS
;	COMDAT pdata
pdata	SEGMENT
$pdata$??$construct@PEA_WAEAPEA_W@?$_Wrap_alloc@V?$allocator@_W@std@@@std@@QEAAXPEAPEA_WAEAPEA_W@Z DD imagerel $LN3
	DD	imagerel $LN3+52
	DD	imagerel $unwind$??$construct@PEA_WAEAPEA_W@?$_Wrap_alloc@V?$allocator@_W@std@@@std@@QEAAXPEAPEA_WAEAPEA_W@Z
pdata	ENDS
;	COMDAT pdata
pdata	SEGMENT
$pdata$?pointer_to@?$pointer_traits@PEAU_Container_proxy@std@@@std@@SAPEAU_Container_proxy@2@AEAU32@@Z DD imagerel $LN3
	DD	imagerel $LN3+24
	DD	imagerel $unwind$?pointer_to@?$pointer_traits@PEAU_Container_proxy@std@@@std@@SAPEAU_Container_proxy@2@AEAU32@@Z
pdata	ENDS
;	COMDAT pdata
pdata	SEGMENT
$pdata$??$destroy@PEA_W@?$allocator_traits@V?$allocator@_W@std@@@std@@SAXAEAV?$allocator@_W@1@PEAPEA_W@Z DD imagerel $LN3
	DD	imagerel $LN3+34
	DD	imagerel $unwind$??$destroy@PEA_W@?$allocator_traits@V?$allocator@_W@std@@@std@@SAXAEAV?$allocator@_W@1@PEAPEA_W@Z
pdata	ENDS
;	COMDAT pdata
pdata	SEGMENT
$pdata$??$destroy@U_Container_proxy@std@@@?$allocator_traits@V?$allocator@U_Container_proxy@std@@@std@@@std@@SAXAEAV?$allocator@U_Container_proxy@std@@@1@PEAU_Container_proxy@1@@Z DD imagerel $LN3
	DD	imagerel $LN3+34
	DD	imagerel $unwind$??$destroy@U_Container_proxy@std@@@?$allocator_traits@V?$allocator@U_Container_proxy@std@@@std@@@std@@SAXAEAV?$allocator@U_Container_proxy@std@@@1@PEAU_Container_proxy@1@@Z
pdata	ENDS
;	COMDAT pdata
pdata	SEGMENT
$pdata$??$construct@U_Container_proxy@std@@U12@@?$allocator_traits@V?$allocator@U_Container_proxy@std@@@std@@@std@@SAXAEAV?$allocator@U_Container_proxy@std@@@1@PEAU_Container_proxy@1@$$QEAU31@@Z DD imagerel $LN3
	DD	imagerel $LN3+52
	DD	imagerel $unwind$??$construct@U_Container_proxy@std@@U12@@?$allocator_traits@V?$allocator@U_Container_proxy@std@@@std@@@std@@SAXAEAV?$allocator@U_Container_proxy@std@@@1@PEAU_Container_proxy@1@$$QEAU31@@Z
pdata	ENDS
;	COMDAT pdata
pdata	SEGMENT
$pdata$??$_Destroy_range1@V?$allocator@VTileRow@@@std@@PEAVTileRow@@@std@@YAXPEAVTileRow@@0AEAU?$_Wrap_alloc@V?$allocator@VTileRow@@@std@@@0@U?$integral_constant@_N$0A@@0@@Z DD imagerel $LN6
	DD	imagerel $LN6+82
	DD	imagerel $unwind$??$_Destroy_range1@V?$allocator@VTileRow@@@std@@PEAVTileRow@@@std@@YAXPEAVTileRow@@0AEAU?$_Wrap_alloc@V?$allocator@VTileRow@@@std@@@0@U?$integral_constant@_N$0A@@0@@Z
pdata	ENDS
;	COMDAT pdata
pdata	SEGMENT
$pdata$??$construct@PEA_WAEAPEA_W@?$allocator_traits@V?$allocator@_W@std@@@std@@SAXAEAV?$allocator@_W@1@PEAPEA_WAEAPEA_W@Z DD imagerel $LN3
	DD	imagerel $LN3+52
	DD	imagerel $unwind$??$construct@PEA_WAEAPEA_W@?$allocator_traits@V?$allocator@_W@std@@@std@@SAXAEAV?$allocator@_W@1@PEAPEA_WAEAPEA_W@Z
pdata	ENDS
;	COMDAT pdata
pdata	SEGMENT
$pdata$??$construct@U_Container_proxy@std@@U12@@?$allocator@U_Container_proxy@std@@@std@@QEAAXPEAU_Container_proxy@1@$$QEAU21@@Z DD imagerel $LN5
	DD	imagerel $LN5+102
	DD	imagerel $unwind$??$construct@U_Container_proxy@std@@U12@@?$allocator@U_Container_proxy@std@@@std@@QEAAXPEAU_Container_proxy@1@$$QEAU21@@Z
pdata	ENDS
;	COMDAT pdata
pdata	SEGMENT
$pdata$??$destroy@VTileRow@@@?$_Wrap_alloc@V?$allocator@VTileRow@@@std@@@std@@QEAAXPEAVTileRow@@@Z DD imagerel $LN3
	DD	imagerel $LN3+34
	DD	imagerel $unwind$??$destroy@VTileRow@@@?$_Wrap_alloc@V?$allocator@VTileRow@@@std@@@std@@QEAAXPEAVTileRow@@@Z
pdata	ENDS
;	COMDAT pdata
pdata	SEGMENT
$pdata$??$construct@PEA_WAEAPEA_W@?$allocator@_W@std@@QEAAXPEAPEA_WAEAPEA_W@Z DD imagerel $LN5
	DD	imagerel $LN5+94
	DD	imagerel $unwind$??$construct@PEA_WAEAPEA_W@?$allocator@_W@std@@QEAAXPEAPEA_WAEAPEA_W@Z
pdata	ENDS
;	COMDAT pdata
pdata	SEGMENT
$pdata$??$destroy@VTileRow@@@?$allocator_traits@V?$allocator@VTileRow@@@std@@@std@@SAXAEAV?$allocator@VTileRow@@@1@PEAVTileRow@@@Z DD imagerel $LN3
	DD	imagerel $LN3+34
	DD	imagerel $unwind$??$destroy@VTileRow@@@?$allocator_traits@V?$allocator@VTileRow@@@std@@@std@@SAXAEAV?$allocator@VTileRow@@@1@PEAVTileRow@@@Z
pdata	ENDS
;	COMDAT pdata
pdata	SEGMENT
$pdata$??$destroy@VTileRow@@@?$allocator@VTileRow@@@std@@QEAAXPEAVTileRow@@@Z DD imagerel $LN3
	DD	imagerel $LN3+31
	DD	imagerel $unwind$??$destroy@VTileRow@@@?$allocator@VTileRow@@@std@@QEAAXPEAVTileRow@@@Z
pdata	ENDS
CRT$XCU	SEGMENT
?kInvalidId$initializer$@AssetManagement@MaxSDK@@3P6AXXZEA DQ FLAT:??__EkInvalidId@AssetManagement@MaxSDK@@YAXXZ ; MaxSDK::AssetManagement::kInvalidId$initializer$
CRT$XCU	ENDS
;	COMDAT __real@c9742400
CONST	SEGMENT
__real@c9742400 DD 0c9742400r			; -1e+06
CONST	ENDS
;	COMDAT __real@c12e848000000000
CONST	SEGMENT
__real@c12e848000000000 DQ 0c12e848000000000r	; -1e+06
CONST	ENDS
;	COMDAT __real@bff0000000000000
CONST	SEGMENT
__real@bff0000000000000 DQ 0bff0000000000000r	; -1
CONST	ENDS
;	COMDAT __real@bf000000
CONST	SEGMENT
__real@bf000000 DD 0bf000000r			; -0.5
CONST	ENDS
;	COMDAT __real@49742400
CONST	SEGMENT
__real@49742400 DD 049742400r			; 1e+06
CONST	ENDS
;	COMDAT __real@43480000
CONST	SEGMENT
__real@43480000 DD 043480000r			; 200
CONST	ENDS
;	COMDAT __real@43340000
CONST	SEGMENT
__real@43340000 DD 043340000r			; 180
CONST	ENDS
;	COMDAT __real@42c80000
CONST	SEGMENT
__real@42c80000 DD 042c80000r			; 100
CONST	ENDS
;	COMDAT __real@412e848000000000
CONST	SEGMENT
__real@412e848000000000 DQ 0412e848000000000r	; 1e+06
CONST	ENDS
;	COMDAT __real@408f400000000000
CONST	SEGMENT
__real@408f400000000000 DQ 0408f400000000000r	; 1000
CONST	ENDS
;	COMDAT __real@40800000
CONST	SEGMENT
__real@40800000 DD 040800000r			; 4
CONST	ENDS
;	COMDAT __real@4066800000000000
CONST	SEGMENT
__real@4066800000000000 DQ 04066800000000000r	; 180
CONST	ENDS
;	COMDAT __real@4059000000000000
CONST	SEGMENT
__real@4059000000000000 DQ 04059000000000000r	; 100
CONST	ENDS
;	COMDAT __real@40400000
CONST	SEGMENT
__real@40400000 DD 040400000r			; 3
CONST	ENDS
;	COMDAT __real@4039000000000000
CONST	SEGMENT
__real@4039000000000000 DQ 04039000000000000r	; 25
CONST	ENDS
;	COMDAT __real@4010000000000000
CONST	SEGMENT
__real@4010000000000000 DQ 04010000000000000r	; 4
CONST	ENDS
;	COMDAT __real@4000000000000000
CONST	SEGMENT
__real@4000000000000000 DQ 04000000000000000r	; 2
CONST	ENDS
;	COMDAT __real@40000000
CONST	SEGMENT
__real@40000000 DD 040000000r			; 2
CONST	ENDS
;	COMDAT __real@3ff0000000000000
CONST	SEGMENT
__real@3ff0000000000000 DQ 03ff0000000000000r	; 1
CONST	ENDS
;	COMDAT __real@3fd3333340000000
CONST	SEGMENT
__real@3fd3333340000000 DQ 03fd3333340000000r	; 0.3
CONST	ENDS
;	COMDAT __real@3fb99999a0000000
CONST	SEGMENT
__real@3fb99999a0000000 DQ 03fb99999a0000000r	; 0.1
CONST	ENDS
;	COMDAT __real@3f800000
CONST	SEGMENT
__real@3f800000 DD 03f800000r			; 1
CONST	ENDS
;	COMDAT __real@3f1a36e2e0000000
CONST	SEGMENT
__real@3f1a36e2e0000000 DQ 03f1a36e2e0000000r	; 0.0001
CONST	ENDS
;	COMDAT __real@3f000000
CONST	SEGMENT
__real@3f000000 DD 03f000000r			; 0.5
CONST	ENDS
;	COMDAT __real@3dcccccd
CONST	SEGMENT
__real@3dcccccd DD 03dcccccdr			; 0.1
CONST	ENDS
;	COMDAT __real@3c8efa35
CONST	SEGMENT
__real@3c8efa35 DD 03c8efa35r			; 0.0174533
CONST	ENDS
;	COMDAT __real@3a83126f
CONST	SEGMENT
__real@3a83126f DD 03a83126fr			; 0.001
CONST	ENDS
;	COMDAT __real@38d1b717
CONST	SEGMENT
__real@38d1b717 DD 038d1b717r			; 0.0001
CONST	ENDS
;	COMDAT __real@00000000
CONST	SEGMENT
__real@00000000 DD 000000000r			; 0
CONST	ENDS
;	COMDAT ??_R1A@?0A@EA@BerconTileDlgProc@@8
rdata$r	SEGMENT
??_R1A@?0A@EA@BerconTileDlgProc@@8 DD imagerel ??_R0?AVBerconTileDlgProc@@@8 ; BerconTileDlgProc::`RTTI Base Class Descriptor at (0,-1,0,64)'
	DD	02H
	DD	00H
	DD	0ffffffffH
	DD	00H
	DD	040H
	DD	imagerel ??_R3BerconTileDlgProc@@8
rdata$r	ENDS
;	COMDAT ??_R2BerconTileDlgProc@@8
rdata$r	SEGMENT
??_R2BerconTileDlgProc@@8 DD imagerel ??_R1A@?0A@EA@BerconTileDlgProc@@8 ; BerconTileDlgProc::`RTTI Base Class Array'
	DD	imagerel ??_R1A@?0A@EA@ParamMap2UserDlgProc@@8
	DD	imagerel ??_R17?0A@EA@MaxHeapOperators@@8
	ORG $+3
rdata$r	ENDS
;	COMDAT ??_R3BerconTileDlgProc@@8
rdata$r	SEGMENT
??_R3BerconTileDlgProc@@8 DD 00H			; BerconTileDlgProc::`RTTI Class Hierarchy Descriptor'
	DD	00H
	DD	03H
	DD	imagerel ??_R2BerconTileDlgProc@@8
rdata$r	ENDS
;	COMDAT ??_R0?AVBerconTileDlgProc@@@8
data$r	SEGMENT
??_R0?AVBerconTileDlgProc@@@8 DQ FLAT:??_7type_info@@6B@ ; BerconTileDlgProc `RTTI Type Descriptor'
	DQ	0000000000000000H
	DB	'.?AVBerconTileDlgProc@@', 00H
data$r	ENDS
;	COMDAT ??_R4BerconTileDlgProc@@6B@
rdata$r	SEGMENT
??_R4BerconTileDlgProc@@6B@ DD 01H			; BerconTileDlgProc::`RTTI Complete Object Locator'
	DD	00H
	DD	00H
	DD	imagerel ??_R0?AVBerconTileDlgProc@@@8
	DD	imagerel ??_R3BerconTileDlgProc@@8
	DD	imagerel ??_R4BerconTileDlgProc@@6B@
rdata$r	ENDS
;	COMDAT ??_R1A@?0A@EA@BerconSC@@8
rdata$r	SEGMENT
??_R1A@?0A@EA@BerconSC@@8 DD imagerel ??_R0?AVBerconSC@@@8 ; BerconSC::`RTTI Base Class Descriptor at (0,-1,0,64)'
	DD	03H
	DD	00H
	DD	0ffffffffH
	DD	00H
	DD	040H
	DD	imagerel ??_R3BerconSC@@8
rdata$r	ENDS
;	COMDAT ??_R2BerconSC@@8
rdata$r	SEGMENT
??_R2BerconSC@@8 DD imagerel ??_R1A@?0A@EA@BerconSC@@8	; BerconSC::`RTTI Base Class Array'
	DD	imagerel ??_R1A@?0A@EA@ShadeContext@@8
	DD	imagerel ??_R1A@?0A@EA@InterfaceServer@@8
	DD	imagerel ??_R17?0A@EA@MaxHeapOperators@@8
	ORG $+3
rdata$r	ENDS
;	COMDAT ??_R3BerconSC@@8
rdata$r	SEGMENT
??_R3BerconSC@@8 DD 00H					; BerconSC::`RTTI Class Hierarchy Descriptor'
	DD	00H
	DD	04H
	DD	imagerel ??_R2BerconSC@@8
rdata$r	ENDS
;	COMDAT ??_R0?AVBerconSC@@@8
data$r	SEGMENT
??_R0?AVBerconSC@@@8 DQ FLAT:??_7type_info@@6B@		; BerconSC `RTTI Type Descriptor'
	DQ	0000000000000000H
	DB	'.?AVBerconSC@@', 00H
data$r	ENDS
;	COMDAT ??_R4BerconSC@@6B@
rdata$r	SEGMENT
??_R4BerconSC@@6B@ DD 01H				; BerconSC::`RTTI Complete Object Locator'
	DD	00H
	DD	00H
	DD	imagerel ??_R0?AVBerconSC@@@8
	DD	imagerel ??_R3BerconSC@@8
	DD	imagerel ??_R4BerconSC@@6B@
rdata$r	ENDS
;	COMDAT ??_R2ClassDesc2@@8
rdata$r	SEGMENT
??_R2ClassDesc2@@8 DD imagerel ??_R1A@?0A@EA@ClassDesc2@@8 ; ClassDesc2::`RTTI Base Class Array'
	DD	imagerel ??_R1A@?0A@EA@ClassDesc@@8
	DD	imagerel ??_R17?0A@EA@MaxHeapOperators@@8
	ORG $+3
rdata$r	ENDS
;	COMDAT ??_R3ClassDesc2@@8
rdata$r	SEGMENT
??_R3ClassDesc2@@8 DD 00H				; ClassDesc2::`RTTI Class Hierarchy Descriptor'
	DD	00H
	DD	03H
	DD	imagerel ??_R2ClassDesc2@@8
rdata$r	ENDS
;	COMDAT ??_R1A@?0A@EA@ClassDesc2@@8
rdata$r	SEGMENT
??_R1A@?0A@EA@ClassDesc2@@8 DD imagerel ??_R0?AVClassDesc2@@@8 ; ClassDesc2::`RTTI Base Class Descriptor at (0,-1,0,64)'
	DD	02H
	DD	00H
	DD	0ffffffffH
	DD	00H
	DD	040H
	DD	imagerel ??_R3ClassDesc2@@8
rdata$r	ENDS
;	COMDAT ??_R1A@?0A@EA@BerconTileClassDesc@@8
rdata$r	SEGMENT
??_R1A@?0A@EA@BerconTileClassDesc@@8 DD imagerel ??_R0?AVBerconTileClassDesc@@@8 ; BerconTileClassDesc::`RTTI Base Class Descriptor at (0,-1,0,64)'
	DD	03H
	DD	00H
	DD	0ffffffffH
	DD	00H
	DD	040H
	DD	imagerel ??_R3BerconTileClassDesc@@8
rdata$r	ENDS
;	COMDAT ??_R2BerconTileClassDesc@@8
rdata$r	SEGMENT
??_R2BerconTileClassDesc@@8 DD imagerel ??_R1A@?0A@EA@BerconTileClassDesc@@8 ; BerconTileClassDesc::`RTTI Base Class Array'
	DD	imagerel ??_R1A@?0A@EA@ClassDesc2@@8
	DD	imagerel ??_R1A@?0A@EA@ClassDesc@@8
	DD	imagerel ??_R17?0A@EA@MaxHeapOperators@@8
	ORG $+3
rdata$r	ENDS
;	COMDAT ??_R3BerconTileClassDesc@@8
rdata$r	SEGMENT
??_R3BerconTileClassDesc@@8 DD 00H			; BerconTileClassDesc::`RTTI Class Hierarchy Descriptor'
	DD	00H
	DD	04H
	DD	imagerel ??_R2BerconTileClassDesc@@8
rdata$r	ENDS
;	COMDAT ??_R0?AVBerconTileClassDesc@@@8
data$r	SEGMENT
??_R0?AVBerconTileClassDesc@@@8 DQ FLAT:??_7type_info@@6B@ ; BerconTileClassDesc `RTTI Type Descriptor'
	DQ	0000000000000000H
	DB	'.?AVBerconTileClassDesc@@', 00H
data$r	ENDS
;	COMDAT ??_R4BerconTileClassDesc@@6B@
rdata$r	SEGMENT
??_R4BerconTileClassDesc@@6B@ DD 01H			; BerconTileClassDesc::`RTTI Complete Object Locator'
	DD	00H
	DD	00H
	DD	imagerel ??_R0?AVBerconTileClassDesc@@@8
	DD	imagerel ??_R3BerconTileClassDesc@@8
	DD	imagerel ??_R4BerconTileClassDesc@@6B@
rdata$r	ENDS
;	COMDAT ??_R4BerconTile@@6B@
rdata$r	SEGMENT
??_R4BerconTile@@6B@ DD 01H				; BerconTile::`RTTI Complete Object Locator'
	DD	090H
	DD	00H
	DD	imagerel ??_R0?AVBerconTile@@@8
	DD	imagerel ??_R3BerconTile@@8
	DD	imagerel ??_R4BerconTile@@6B@
rdata$r	ENDS
;	COMDAT ??_R4BerconTile@@6BISubMap@@@
rdata$r	SEGMENT
??_R4BerconTile@@6BISubMap@@@ DD 01H			; BerconTile::`RTTI Complete Object Locator'
	DD	040H
	DD	00H
	DD	imagerel ??_R0?AVBerconTile@@@8
	DD	imagerel ??_R3BerconTile@@8
	DD	imagerel ??_R4BerconTile@@6BISubMap@@@
rdata$r	ENDS
;	COMDAT ??_R1JI@?0A@EC@MaxHeapOperators@@8
rdata$r	SEGMENT
??_R1JI@?0A@EC@MaxHeapOperators@@8 DD imagerel ??_R0?AVMaxHeapOperators@@@8 ; MaxHeapOperators::`RTTI Base Class Descriptor at (152,-1,0,66)'
	DD	00H
	DD	098H
	DD	0ffffffffH
	DD	00H
	DD	042H
	DD	imagerel ??_R3MaxHeapOperators@@8
rdata$r	ENDS
;	COMDAT ??_R1JA@?0A@EA@ResourceMakerCallback@@8
rdata$r	SEGMENT
??_R1JA@?0A@EA@ResourceMakerCallback@@8 DD imagerel ??_R0?AVResourceMakerCallback@@@8 ; ResourceMakerCallback::`RTTI Base Class Descriptor at (144,-1,0,64)'
	DD	01H
	DD	090H
	DD	0ffffffffH
	DD	00H
	DD	040H
	DD	imagerel ??_R3ResourceMakerCallback@@8
rdata$r	ENDS
;	COMDAT ??_R1EA@?0A@EA@ISubMap@@8
rdata$r	SEGMENT
??_R1EA@?0A@EA@ISubMap@@8 DD imagerel ??_R0?AVISubMap@@@8 ; ISubMap::`RTTI Base Class Descriptor at (64,-1,0,64)'
	DD	01H
	DD	040H
	DD	0ffffffffH
	DD	00H
	DD	040H
	DD	imagerel ??_R3ISubMap@@8
rdata$r	ENDS
;	COMDAT ??_R2MtlBase@@8
rdata$r	SEGMENT
??_R2MtlBase@@8 DD imagerel ??_R1A@?0A@EA@MtlBase@@8	; MtlBase::`RTTI Base Class Array'
	DD	imagerel ??_R1A@?0A@EA@ReferenceTarget@@8
	DD	imagerel ??_R1A@?0A@EA@ReferenceMaker@@8
	DD	imagerel ??_R1A@?0A@EA@Animatable@@8
	DD	imagerel ??_R1A@?0A@EA@InterfaceServer@@8
	DD	imagerel ??_R17?0A@EC@MaxHeapOperators@@8
	DD	imagerel ??_R18?0A@EA@Noncopyable@Util@MaxSDK@@8
	DD	imagerel ??_R18?0A@EC@MaxHeapOperators@@8
	DD	imagerel ??_R1EA@?0A@EA@ISubMap@@8
	DD	imagerel ??_R1EI@?0A@EC@MaxHeapOperators@@8
	ORG $+3
rdata$r	ENDS
;	COMDAT ??_R3MtlBase@@8
rdata$r	SEGMENT
??_R3MtlBase@@8 DD 00H					; MtlBase::`RTTI Class Hierarchy Descriptor'
	DD	01H
	DD	0aH
	DD	imagerel ??_R2MtlBase@@8
rdata$r	ENDS
;	COMDAT ??_R0?AVMtlBase@@@8
data$r	SEGMENT
??_R0?AVMtlBase@@@8 DQ FLAT:??_7type_info@@6B@		; MtlBase `RTTI Type Descriptor'
	DQ	0000000000000000H
	DB	'.?AVMtlBase@@', 00H
data$r	ENDS
;	COMDAT ??_R1A@?0A@EA@MtlBase@@8
rdata$r	SEGMENT
??_R1A@?0A@EA@MtlBase@@8 DD imagerel ??_R0?AVMtlBase@@@8 ; MtlBase::`RTTI Base Class Descriptor at (0,-1,0,64)'
	DD	09H
	DD	00H
	DD	0ffffffffH
	DD	00H
	DD	040H
	DD	imagerel ??_R3MtlBase@@8
rdata$r	ENDS
;	COMDAT ??_R2Texmap@@8
rdata$r	SEGMENT
??_R2Texmap@@8 DD imagerel ??_R1A@?0A@EA@Texmap@@8	; Texmap::`RTTI Base Class Array'
	DD	imagerel ??_R1A@?0A@EA@MtlBase@@8
	DD	imagerel ??_R1A@?0A@EA@ReferenceTarget@@8
	DD	imagerel ??_R1A@?0A@EA@ReferenceMaker@@8
	DD	imagerel ??_R1A@?0A@EA@Animatable@@8
	DD	imagerel ??_R1A@?0A@EA@InterfaceServer@@8
	DD	imagerel ??_R17?0A@EC@MaxHeapOperators@@8
	DD	imagerel ??_R18?0A@EA@Noncopyable@Util@MaxSDK@@8
	DD	imagerel ??_R18?0A@EC@MaxHeapOperators@@8
	DD	imagerel ??_R1EA@?0A@EA@ISubMap@@8
	DD	imagerel ??_R1EI@?0A@EC@MaxHeapOperators@@8
	ORG $+3
rdata$r	ENDS
;	COMDAT ??_R3Texmap@@8
rdata$r	SEGMENT
??_R3Texmap@@8 DD 00H					; Texmap::`RTTI Class Hierarchy Descriptor'
	DD	01H
	DD	0bH
	DD	imagerel ??_R2Texmap@@8
rdata$r	ENDS
;	COMDAT ??_R0?AVTexmap@@@8
data$r	SEGMENT
??_R0?AVTexmap@@@8 DQ FLAT:??_7type_info@@6B@		; Texmap `RTTI Type Descriptor'
	DQ	0000000000000000H
	DB	'.?AVTexmap@@', 00H
data$r	ENDS
;	COMDAT ??_R1A@?0A@EA@Texmap@@8
rdata$r	SEGMENT
??_R1A@?0A@EA@Texmap@@8 DD imagerel ??_R0?AVTexmap@@@8	; Texmap::`RTTI Base Class Descriptor at (0,-1,0,64)'
	DD	0aH
	DD	00H
	DD	0ffffffffH
	DD	00H
	DD	040H
	DD	imagerel ??_R3Texmap@@8
rdata$r	ENDS
;	COMDAT ??_R1A@?0A@EA@BerconTile@@8
rdata$r	SEGMENT
??_R1A@?0A@EA@BerconTile@@8 DD imagerel ??_R0?AVBerconTile@@@8 ; BerconTile::`RTTI Base Class Descriptor at (0,-1,0,64)'
	DD	0dH
	DD	00H
	DD	0ffffffffH
	DD	00H
	DD	040H
	DD	imagerel ??_R3BerconTile@@8
rdata$r	ENDS
;	COMDAT ??_R2BerconTile@@8
rdata$r	SEGMENT
??_R2BerconTile@@8 DD imagerel ??_R1A@?0A@EA@BerconTile@@8 ; BerconTile::`RTTI Base Class Array'
	DD	imagerel ??_R1A@?0A@EA@Texmap@@8
	DD	imagerel ??_R1A@?0A@EA@MtlBase@@8
	DD	imagerel ??_R1A@?0A@EA@ReferenceTarget@@8
	DD	imagerel ??_R1A@?0A@EA@ReferenceMaker@@8
	DD	imagerel ??_R1A@?0A@EA@Animatable@@8
	DD	imagerel ??_R1A@?0A@EA@InterfaceServer@@8
	DD	imagerel ??_R17?0A@EC@MaxHeapOperators@@8
	DD	imagerel ??_R18?0A@EA@Noncopyable@Util@MaxSDK@@8
	DD	imagerel ??_R18?0A@EC@MaxHeapOperators@@8
	DD	imagerel ??_R1EA@?0A@EA@ISubMap@@8
	DD	imagerel ??_R1EI@?0A@EC@MaxHeapOperators@@8
	DD	imagerel ??_R1JA@?0A@EA@ResourceMakerCallback@@8
	DD	imagerel ??_R1JI@?0A@EC@MaxHeapOperators@@8
	ORG $+3
rdata$r	ENDS
;	COMDAT ??_R3BerconTile@@8
rdata$r	SEGMENT
??_R3BerconTile@@8 DD 00H				; BerconTile::`RTTI Class Hierarchy Descriptor'
	DD	05H
	DD	0eH
	DD	imagerel ??_R2BerconTile@@8
rdata$r	ENDS
;	COMDAT ??_R0?AVBerconTile@@@8
data$r	SEGMENT
??_R0?AVBerconTile@@@8 DQ FLAT:??_7type_info@@6B@	; BerconTile `RTTI Type Descriptor'
	DQ	0000000000000000H
	DB	'.?AVBerconTile@@', 00H
data$r	ENDS
;	COMDAT ??_R4BerconTile@@6BReferenceTarget@@@
rdata$r	SEGMENT
??_R4BerconTile@@6BReferenceTarget@@@ DD 01H		; BerconTile::`RTTI Complete Object Locator'
	DD	00H
	DD	00H
	DD	imagerel ??_R0?AVBerconTile@@@8
	DD	imagerel ??_R3BerconTile@@8
	DD	imagerel ??_R4BerconTile@@6BReferenceTarget@@@
rdata$r	ENDS
;	COMDAT ??_R1A@?0A@EA@BerconXYZDlgProc@@8
rdata$r	SEGMENT
??_R1A@?0A@EA@BerconXYZDlgProc@@8 DD imagerel ??_R0?AVBerconXYZDlgProc@@@8 ; BerconXYZDlgProc::`RTTI Base Class Descriptor at (0,-1,0,64)'
	DD	02H
	DD	00H
	DD	0ffffffffH
	DD	00H
	DD	040H
	DD	imagerel ??_R3BerconXYZDlgProc@@8
rdata$r	ENDS
;	COMDAT ??_R2BerconXYZDlgProc@@8
rdata$r	SEGMENT
??_R2BerconXYZDlgProc@@8 DD imagerel ??_R1A@?0A@EA@BerconXYZDlgProc@@8 ; BerconXYZDlgProc::`RTTI Base Class Array'
	DD	imagerel ??_R1A@?0A@EA@ParamMap2UserDlgProc@@8
	DD	imagerel ??_R17?0A@EA@MaxHeapOperators@@8
	ORG $+3
rdata$r	ENDS
;	COMDAT ??_R3BerconXYZDlgProc@@8
rdata$r	SEGMENT
??_R3BerconXYZDlgProc@@8 DD 00H				; BerconXYZDlgProc::`RTTI Class Hierarchy Descriptor'
	DD	00H
	DD	03H
	DD	imagerel ??_R2BerconXYZDlgProc@@8
rdata$r	ENDS
;	COMDAT ??_R0?AVBerconXYZDlgProc@@@8
data$r	SEGMENT
??_R0?AVBerconXYZDlgProc@@@8 DQ FLAT:??_7type_info@@6B@	; BerconXYZDlgProc `RTTI Type Descriptor'
	DQ	0000000000000000H
	DB	'.?AVBerconXYZDlgProc@@', 00H
data$r	ENDS
;	COMDAT ??_R4BerconXYZDlgProc@@6B@
rdata$r	SEGMENT
??_R4BerconXYZDlgProc@@6B@ DD 01H			; BerconXYZDlgProc::`RTTI Complete Object Locator'
	DD	00H
	DD	00H
	DD	imagerel ??_R0?AVBerconXYZDlgProc@@@8
	DD	imagerel ??_R3BerconXYZDlgProc@@8
	DD	imagerel ??_R4BerconXYZDlgProc@@6B@
rdata$r	ENDS
;	COMDAT ??_R2ParamBlockDesc2@@8
rdata$r	SEGMENT
??_R2ParamBlockDesc2@@8 DD imagerel ??_R1A@?0A@EA@ParamBlockDesc2@@8 ; ParamBlockDesc2::`RTTI Base Class Array'
	DD	imagerel ??_R1A@?0A@EA@BaseInterfaceServer@@8
	DD	imagerel ??_R1A@?0A@EA@InterfaceServer@@8
	DD	imagerel ??_R17?0A@EA@MaxHeapOperators@@8
	ORG $+3
rdata$r	ENDS
;	COMDAT ??_R3ParamBlockDesc2@@8
rdata$r	SEGMENT
??_R3ParamBlockDesc2@@8 DD 00H				; ParamBlockDesc2::`RTTI Class Hierarchy Descriptor'
	DD	00H
	DD	04H
	DD	imagerel ??_R2ParamBlockDesc2@@8
rdata$r	ENDS
;	COMDAT ??_R0?AVParamBlockDesc2@@@8
data$r	SEGMENT
??_R0?AVParamBlockDesc2@@@8 DQ FLAT:??_7type_info@@6B@	; ParamBlockDesc2 `RTTI Type Descriptor'
	DQ	0000000000000000H
	DB	'.?AVParamBlockDesc2@@', 00H
data$r	ENDS
;	COMDAT ??_R1A@?0A@EA@ParamBlockDesc2@@8
rdata$r	SEGMENT
??_R1A@?0A@EA@ParamBlockDesc2@@8 DD imagerel ??_R0?AVParamBlockDesc2@@@8 ; ParamBlockDesc2::`RTTI Base Class Descriptor at (0,-1,0,64)'
	DD	03H
	DD	00H
	DD	0ffffffffH
	DD	00H
	DD	040H
	DD	imagerel ??_R3ParamBlockDesc2@@8
rdata$r	ENDS
;	COMDAT ??_R1A@?0A@EA@XYZ_Desc@@8
rdata$r	SEGMENT
??_R1A@?0A@EA@XYZ_Desc@@8 DD imagerel ??_R0?AVXYZ_Desc@@@8 ; XYZ_Desc::`RTTI Base Class Descriptor at (0,-1,0,64)'
	DD	04H
	DD	00H
	DD	0ffffffffH
	DD	00H
	DD	040H
	DD	imagerel ??_R3XYZ_Desc@@8
rdata$r	ENDS
;	COMDAT ??_R2XYZ_Desc@@8
rdata$r	SEGMENT
??_R2XYZ_Desc@@8 DD imagerel ??_R1A@?0A@EA@XYZ_Desc@@8	; XYZ_Desc::`RTTI Base Class Array'
	DD	imagerel ??_R1A@?0A@EA@ParamBlockDesc2@@8
	DD	imagerel ??_R1A@?0A@EA@BaseInterfaceServer@@8
	DD	imagerel ??_R1A@?0A@EA@InterfaceServer@@8
	DD	imagerel ??_R17?0A@EA@MaxHeapOperators@@8
	ORG $+3
rdata$r	ENDS
;	COMDAT ??_R3XYZ_Desc@@8
rdata$r	SEGMENT
??_R3XYZ_Desc@@8 DD 00H					; XYZ_Desc::`RTTI Class Hierarchy Descriptor'
	DD	00H
	DD	05H
	DD	imagerel ??_R2XYZ_Desc@@8
rdata$r	ENDS
;	COMDAT ??_R0?AVXYZ_Desc@@@8
data$r	SEGMENT
??_R0?AVXYZ_Desc@@@8 DQ FLAT:??_7type_info@@6B@		; XYZ_Desc `RTTI Type Descriptor'
	DQ	0000000000000000H
	DB	'.?AVXYZ_Desc@@', 00H
data$r	ENDS
;	COMDAT ??_R4XYZ_Desc@@6B@
rdata$r	SEGMENT
??_R4XYZ_Desc@@6B@ DD 01H				; XYZ_Desc::`RTTI Complete Object Locator'
	DD	00H
	DD	00H
	DD	imagerel ??_R0?AVXYZ_Desc@@@8
	DD	imagerel ??_R3XYZ_Desc@@8
	DD	imagerel ??_R4XYZ_Desc@@6B@
rdata$r	ENDS
;	COMDAT ??_R1A@?0A@EA@ResourceMakerCallback@@8
rdata$r	SEGMENT
??_R1A@?0A@EA@ResourceMakerCallback@@8 DD imagerel ??_R0?AVResourceMakerCallback@@@8 ; ResourceMakerCallback::`RTTI Base Class Descriptor at (0,-1,0,64)'
	DD	01H
	DD	00H
	DD	0ffffffffH
	DD	00H
	DD	040H
	DD	imagerel ??_R3ResourceMakerCallback@@8
rdata$r	ENDS
;	COMDAT ??_R2ResourceMakerCallback@@8
rdata$r	SEGMENT
??_R2ResourceMakerCallback@@8 DD imagerel ??_R1A@?0A@EA@ResourceMakerCallback@@8 ; ResourceMakerCallback::`RTTI Base Class Array'
	DD	imagerel ??_R17?0A@EA@MaxHeapOperators@@8
	ORG $+3
rdata$r	ENDS
;	COMDAT ??_R3ResourceMakerCallback@@8
rdata$r	SEGMENT
??_R3ResourceMakerCallback@@8 DD 00H			; ResourceMakerCallback::`RTTI Class Hierarchy Descriptor'
	DD	00H
	DD	02H
	DD	imagerel ??_R2ResourceMakerCallback@@8
rdata$r	ENDS
;	COMDAT ??_R0?AVResourceMakerCallback@@@8
data$r	SEGMENT
??_R0?AVResourceMakerCallback@@@8 DQ FLAT:??_7type_info@@6B@ ; ResourceMakerCallback `RTTI Type Descriptor'
	DQ	0000000000000000H
	DB	'.?AVResourceMakerCallback@@', 00H
data$r	ENDS
;	COMDAT ??_R4ResourceMakerCallback@@6B@
rdata$r	SEGMENT
??_R4ResourceMakerCallback@@6B@ DD 01H			; ResourceMakerCallback::`RTTI Complete Object Locator'
	DD	00H
	DD	00H
	DD	imagerel ??_R0?AVResourceMakerCallback@@@8
	DD	imagerel ??_R3ResourceMakerCallback@@8
	DD	imagerel ??_R4ResourceMakerCallback@@6B@
rdata$r	ENDS
;	COMDAT ??_R1A@?0A@EA@ISubMap@@8
rdata$r	SEGMENT
??_R1A@?0A@EA@ISubMap@@8 DD imagerel ??_R0?AVISubMap@@@8 ; ISubMap::`RTTI Base Class Descriptor at (0,-1,0,64)'
	DD	01H
	DD	00H
	DD	0ffffffffH
	DD	00H
	DD	040H
	DD	imagerel ??_R3ISubMap@@8
rdata$r	ENDS
;	COMDAT ??_R2ISubMap@@8
rdata$r	SEGMENT
??_R2ISubMap@@8 DD imagerel ??_R1A@?0A@EA@ISubMap@@8	; ISubMap::`RTTI Base Class Array'
	DD	imagerel ??_R17?0A@EA@MaxHeapOperators@@8
	ORG $+3
rdata$r	ENDS
;	COMDAT ??_R3ISubMap@@8
rdata$r	SEGMENT
??_R3ISubMap@@8 DD 00H					; ISubMap::`RTTI Class Hierarchy Descriptor'
	DD	00H
	DD	02H
	DD	imagerel ??_R2ISubMap@@8
rdata$r	ENDS
;	COMDAT ??_R0?AVISubMap@@@8
data$r	SEGMENT
??_R0?AVISubMap@@@8 DQ FLAT:??_7type_info@@6B@		; ISubMap `RTTI Type Descriptor'
	DQ	0000000000000000H
	DB	'.?AVISubMap@@', 00H
data$r	ENDS
;	COMDAT ??_R1A@?0A@EA@ShadeOutput@@8
rdata$r	SEGMENT
??_R1A@?0A@EA@ShadeOutput@@8 DD imagerel ??_R0?AVShadeOutput@@@8 ; ShadeOutput::`RTTI Base Class Descriptor at (0,-1,0,64)'
	DD	03H
	DD	00H
	DD	0ffffffffH
	DD	00H
	DD	040H
	DD	imagerel ??_R3ShadeOutput@@8
rdata$r	ENDS
;	COMDAT ??_R2ShadeOutput@@8
rdata$r	SEGMENT
??_R2ShadeOutput@@8 DD imagerel ??_R1A@?0A@EA@ShadeOutput@@8 ; ShadeOutput::`RTTI Base Class Array'
	DD	imagerel ??_R1A@?0A@EA@BaseInterfaceServer@@8
	DD	imagerel ??_R1A@?0A@EA@InterfaceServer@@8
	DD	imagerel ??_R17?0A@EA@MaxHeapOperators@@8
	ORG $+3
rdata$r	ENDS
;	COMDAT ??_R3ShadeOutput@@8
rdata$r	SEGMENT
??_R3ShadeOutput@@8 DD 00H				; ShadeOutput::`RTTI Class Hierarchy Descriptor'
	DD	00H
	DD	04H
	DD	imagerel ??_R2ShadeOutput@@8
rdata$r	ENDS
;	COMDAT ??_R0?AVShadeOutput@@@8
data$r	SEGMENT
??_R0?AVShadeOutput@@@8 DQ FLAT:??_7type_info@@6B@	; ShadeOutput `RTTI Type Descriptor'
	DQ	0000000000000000H
	DB	'.?AVShadeOutput@@', 00H
data$r	ENDS
;	COMDAT ??_R4ShadeOutput@@6B@
rdata$r	SEGMENT
??_R4ShadeOutput@@6B@ DD 01H				; ShadeOutput::`RTTI Complete Object Locator'
	DD	00H
	DD	00H
	DD	imagerel ??_R0?AVShadeOutput@@@8
	DD	imagerel ??_R3ShadeOutput@@8
	DD	imagerel ??_R4ShadeOutput@@6B@
rdata$r	ENDS
;	COMDAT ??_R1A@?0A@EA@ShadeContext@@8
rdata$r	SEGMENT
??_R1A@?0A@EA@ShadeContext@@8 DD imagerel ??_R0?AVShadeContext@@@8 ; ShadeContext::`RTTI Base Class Descriptor at (0,-1,0,64)'
	DD	02H
	DD	00H
	DD	0ffffffffH
	DD	00H
	DD	040H
	DD	imagerel ??_R3ShadeContext@@8
rdata$r	ENDS
;	COMDAT ??_R2ShadeContext@@8
rdata$r	SEGMENT
??_R2ShadeContext@@8 DD imagerel ??_R1A@?0A@EA@ShadeContext@@8 ; ShadeContext::`RTTI Base Class Array'
	DD	imagerel ??_R1A@?0A@EA@InterfaceServer@@8
	DD	imagerel ??_R17?0A@EA@MaxHeapOperators@@8
	ORG $+3
rdata$r	ENDS
;	COMDAT ??_R3ShadeContext@@8
rdata$r	SEGMENT
??_R3ShadeContext@@8 DD 00H				; ShadeContext::`RTTI Class Hierarchy Descriptor'
	DD	00H
	DD	03H
	DD	imagerel ??_R2ShadeContext@@8
rdata$r	ENDS
;	COMDAT ??_R0?AVShadeContext@@@8
data$r	SEGMENT
??_R0?AVShadeContext@@@8 DQ FLAT:??_7type_info@@6B@	; ShadeContext `RTTI Type Descriptor'
	DQ	0000000000000000H
	DB	'.?AVShadeContext@@', 00H
data$r	ENDS
;	COMDAT ??_R4ShadeContext@@6B@
rdata$r	SEGMENT
??_R4ShadeContext@@6B@ DD 01H				; ShadeContext::`RTTI Complete Object Locator'
	DD	00H
	DD	00H
	DD	imagerel ??_R0?AVShadeContext@@@8
	DD	imagerel ??_R3ShadeContext@@8
	DD	imagerel ??_R4ShadeContext@@6B@
rdata$r	ENDS
;	COMDAT ??_R1A@?0A@EA@ClassDesc@@8
rdata$r	SEGMENT
??_R1A@?0A@EA@ClassDesc@@8 DD imagerel ??_R0?AVClassDesc@@@8 ; ClassDesc::`RTTI Base Class Descriptor at (0,-1,0,64)'
	DD	01H
	DD	00H
	DD	0ffffffffH
	DD	00H
	DD	040H
	DD	imagerel ??_R3ClassDesc@@8
rdata$r	ENDS
;	COMDAT ??_R2ClassDesc@@8
rdata$r	SEGMENT
??_R2ClassDesc@@8 DD imagerel ??_R1A@?0A@EA@ClassDesc@@8 ; ClassDesc::`RTTI Base Class Array'
	DD	imagerel ??_R17?0A@EA@MaxHeapOperators@@8
	ORG $+3
rdata$r	ENDS
;	COMDAT ??_R3ClassDesc@@8
rdata$r	SEGMENT
??_R3ClassDesc@@8 DD 00H				; ClassDesc::`RTTI Class Hierarchy Descriptor'
	DD	00H
	DD	02H
	DD	imagerel ??_R2ClassDesc@@8
rdata$r	ENDS
;	COMDAT ??_R0?AVClassDesc@@@8
data$r	SEGMENT
??_R0?AVClassDesc@@@8 DQ FLAT:??_7type_info@@6B@	; ClassDesc `RTTI Type Descriptor'
	DQ	0000000000000000H
	DB	'.?AVClassDesc@@', 00H
data$r	ENDS
;	COMDAT ??_R1A@?0A@EA@ParamMap2UserDlgProc@@8
rdata$r	SEGMENT
??_R1A@?0A@EA@ParamMap2UserDlgProc@@8 DD imagerel ??_R0?AVParamMap2UserDlgProc@@@8 ; ParamMap2UserDlgProc::`RTTI Base Class Descriptor at (0,-1,0,64)'
	DD	01H
	DD	00H
	DD	0ffffffffH
	DD	00H
	DD	040H
	DD	imagerel ??_R3ParamMap2UserDlgProc@@8
rdata$r	ENDS
;	COMDAT ??_R2ParamMap2UserDlgProc@@8
rdata$r	SEGMENT
??_R2ParamMap2UserDlgProc@@8 DD imagerel ??_R1A@?0A@EA@ParamMap2UserDlgProc@@8 ; ParamMap2UserDlgProc::`RTTI Base Class Array'
	DD	imagerel ??_R17?0A@EA@MaxHeapOperators@@8
	ORG $+3
rdata$r	ENDS
;	COMDAT ??_R3ParamMap2UserDlgProc@@8
rdata$r	SEGMENT
??_R3ParamMap2UserDlgProc@@8 DD 00H			; ParamMap2UserDlgProc::`RTTI Class Hierarchy Descriptor'
	DD	00H
	DD	02H
	DD	imagerel ??_R2ParamMap2UserDlgProc@@8
rdata$r	ENDS
;	COMDAT ??_R0?AVParamMap2UserDlgProc@@@8
data$r	SEGMENT
??_R0?AVParamMap2UserDlgProc@@@8 DQ FLAT:??_7type_info@@6B@ ; ParamMap2UserDlgProc `RTTI Type Descriptor'
	DQ	0000000000000000H
	DB	'.?AVParamMap2UserDlgProc@@', 00H
data$r	ENDS
;	COMDAT ??_R4ParamMap2UserDlgProc@@6B@
rdata$r	SEGMENT
??_R4ParamMap2UserDlgProc@@6B@ DD 01H			; ParamMap2UserDlgProc::`RTTI Complete Object Locator'
	DD	00H
	DD	00H
	DD	imagerel ??_R0?AVParamMap2UserDlgProc@@@8
	DD	imagerel ??_R3ParamMap2UserDlgProc@@8
	DD	imagerel ??_R4ParamMap2UserDlgProc@@6B@
rdata$r	ENDS
;	COMDAT ??_R1EI@?0A@EC@MaxHeapOperators@@8
rdata$r	SEGMENT
??_R1EI@?0A@EC@MaxHeapOperators@@8 DD imagerel ??_R0?AVMaxHeapOperators@@@8 ; MaxHeapOperators::`RTTI Base Class Descriptor at (72,-1,0,66)'
	DD	00H
	DD	048H
	DD	0ffffffffH
	DD	00H
	DD	042H
	DD	imagerel ??_R3MaxHeapOperators@@8
rdata$r	ENDS
;	COMDAT ??_R18?0A@EC@MaxHeapOperators@@8
rdata$r	SEGMENT
??_R18?0A@EC@MaxHeapOperators@@8 DD imagerel ??_R0?AVMaxHeapOperators@@@8 ; MaxHeapOperators::`RTTI Base Class Descriptor at (9,-1,0,66)'
	DD	00H
	DD	09H
	DD	0ffffffffH
	DD	00H
	DD	042H
	DD	imagerel ??_R3MaxHeapOperators@@8
rdata$r	ENDS
;	COMDAT ??_R1A@?0A@EA@Noncopyable@Util@MaxSDK@@8
rdata$r	SEGMENT
??_R1A@?0A@EA@Noncopyable@Util@MaxSDK@@8 DD imagerel ??_R0?AVNoncopyable@Util@MaxSDK@@@8 ; MaxSDK::Util::Noncopyable::`RTTI Base Class Descriptor at (0,-1,0,64)'
	DD	01H
	DD	00H
	DD	0ffffffffH
	DD	00H
	DD	040H
	DD	imagerel ??_R3Noncopyable@Util@MaxSDK@@8
rdata$r	ENDS
;	COMDAT ??_R2Noncopyable@Util@MaxSDK@@8
rdata$r	SEGMENT
??_R2Noncopyable@Util@MaxSDK@@8 DD imagerel ??_R1A@?0A@EA@Noncopyable@Util@MaxSDK@@8 ; MaxSDK::Util::Noncopyable::`RTTI Base Class Array'
	DD	imagerel ??_R1A@?0A@EA@MaxHeapOperators@@8
	ORG $+3
rdata$r	ENDS
;	COMDAT ??_R3Noncopyable@Util@MaxSDK@@8
rdata$r	SEGMENT
??_R3Noncopyable@Util@MaxSDK@@8 DD 00H			; MaxSDK::Util::Noncopyable::`RTTI Class Hierarchy Descriptor'
	DD	00H
	DD	02H
	DD	imagerel ??_R2Noncopyable@Util@MaxSDK@@8
rdata$r	ENDS
;	COMDAT ??_R0?AVNoncopyable@Util@MaxSDK@@@8
data$r	SEGMENT
??_R0?AVNoncopyable@Util@MaxSDK@@@8 DQ FLAT:??_7type_info@@6B@ ; MaxSDK::Util::Noncopyable `RTTI Type Descriptor'
	DQ	0000000000000000H
	DB	'.?AVNoncopyable@Util@MaxSDK@@', 00H
data$r	ENDS
;	COMDAT ??_R18?0A@EA@Noncopyable@Util@MaxSDK@@8
rdata$r	SEGMENT
??_R18?0A@EA@Noncopyable@Util@MaxSDK@@8 DD imagerel ??_R0?AVNoncopyable@Util@MaxSDK@@@8 ; MaxSDK::Util::Noncopyable::`RTTI Base Class Descriptor at (9,-1,0,64)'
	DD	01H
	DD	09H
	DD	0ffffffffH
	DD	00H
	DD	040H
	DD	imagerel ??_R3Noncopyable@Util@MaxSDK@@8
rdata$r	ENDS
;	COMDAT ??_R17?0A@EC@MaxHeapOperators@@8
rdata$r	SEGMENT
??_R17?0A@EC@MaxHeapOperators@@8 DD imagerel ??_R0?AVMaxHeapOperators@@@8 ; MaxHeapOperators::`RTTI Base Class Descriptor at (8,-1,0,66)'
	DD	00H
	DD	08H
	DD	0ffffffffH
	DD	00H
	DD	042H
	DD	imagerel ??_R3MaxHeapOperators@@8
rdata$r	ENDS
;	COMDAT ??_R2Animatable@@8
rdata$r	SEGMENT
??_R2Animatable@@8 DD imagerel ??_R1A@?0A@EA@Animatable@@8 ; Animatable::`RTTI Base Class Array'
	DD	imagerel ??_R1A@?0A@EA@InterfaceServer@@8
	DD	imagerel ??_R17?0A@EC@MaxHeapOperators@@8
	DD	imagerel ??_R18?0A@EA@Noncopyable@Util@MaxSDK@@8
	DD	imagerel ??_R18?0A@EC@MaxHeapOperators@@8
	ORG $+3
rdata$r	ENDS
;	COMDAT ??_R3Animatable@@8
rdata$r	SEGMENT
??_R3Animatable@@8 DD 00H				; Animatable::`RTTI Class Hierarchy Descriptor'
	DD	05H
	DD	05H
	DD	imagerel ??_R2Animatable@@8
rdata$r	ENDS
;	COMDAT ??_R0?AVAnimatable@@@8
data$r	SEGMENT
??_R0?AVAnimatable@@@8 DQ FLAT:??_7type_info@@6B@	; Animatable `RTTI Type Descriptor'
	DQ	0000000000000000H
	DB	'.?AVAnimatable@@', 00H
data$r	ENDS
;	COMDAT ??_R1A@?0A@EA@Animatable@@8
rdata$r	SEGMENT
??_R1A@?0A@EA@Animatable@@8 DD imagerel ??_R0?AVAnimatable@@@8 ; Animatable::`RTTI Base Class Descriptor at (0,-1,0,64)'
	DD	04H
	DD	00H
	DD	0ffffffffH
	DD	00H
	DD	040H
	DD	imagerel ??_R3Animatable@@8
rdata$r	ENDS
;	COMDAT ??_R2ReferenceMaker@@8
rdata$r	SEGMENT
??_R2ReferenceMaker@@8 DD imagerel ??_R1A@?0A@EA@ReferenceMaker@@8 ; ReferenceMaker::`RTTI Base Class Array'
	DD	imagerel ??_R1A@?0A@EA@Animatable@@8
	DD	imagerel ??_R1A@?0A@EA@InterfaceServer@@8
	DD	imagerel ??_R17?0A@EC@MaxHeapOperators@@8
	DD	imagerel ??_R18?0A@EA@Noncopyable@Util@MaxSDK@@8
	DD	imagerel ??_R18?0A@EC@MaxHeapOperators@@8
	ORG $+3
rdata$r	ENDS
;	COMDAT ??_R3ReferenceMaker@@8
rdata$r	SEGMENT
??_R3ReferenceMaker@@8 DD 00H				; ReferenceMaker::`RTTI Class Hierarchy Descriptor'
	DD	01H
	DD	06H
	DD	imagerel ??_R2ReferenceMaker@@8
rdata$r	ENDS
;	COMDAT ??_R0?AVReferenceMaker@@@8
data$r	SEGMENT
??_R0?AVReferenceMaker@@@8 DQ FLAT:??_7type_info@@6B@	; ReferenceMaker `RTTI Type Descriptor'
	DQ	0000000000000000H
	DB	'.?AVReferenceMaker@@', 00H
data$r	ENDS
;	COMDAT ??_R1A@?0A@EA@ReferenceMaker@@8
rdata$r	SEGMENT
??_R1A@?0A@EA@ReferenceMaker@@8 DD imagerel ??_R0?AVReferenceMaker@@@8 ; ReferenceMaker::`RTTI Base Class Descriptor at (0,-1,0,64)'
	DD	05H
	DD	00H
	DD	0ffffffffH
	DD	00H
	DD	040H
	DD	imagerel ??_R3ReferenceMaker@@8
rdata$r	ENDS
;	COMDAT ??_R2ReferenceTarget@@8
rdata$r	SEGMENT
??_R2ReferenceTarget@@8 DD imagerel ??_R1A@?0A@EA@ReferenceTarget@@8 ; ReferenceTarget::`RTTI Base Class Array'
	DD	imagerel ??_R1A@?0A@EA@ReferenceMaker@@8
	DD	imagerel ??_R1A@?0A@EA@Animatable@@8
	DD	imagerel ??_R1A@?0A@EA@InterfaceServer@@8
	DD	imagerel ??_R17?0A@EC@MaxHeapOperators@@8
	DD	imagerel ??_R18?0A@EA@Noncopyable@Util@MaxSDK@@8
	DD	imagerel ??_R18?0A@EC@MaxHeapOperators@@8
	ORG $+3
rdata$r	ENDS
;	COMDAT ??_R3ReferenceTarget@@8
rdata$r	SEGMENT
??_R3ReferenceTarget@@8 DD 00H				; ReferenceTarget::`RTTI Class Hierarchy Descriptor'
	DD	01H
	DD	07H
	DD	imagerel ??_R2ReferenceTarget@@8
rdata$r	ENDS
;	COMDAT ??_R0?AVReferenceTarget@@@8
data$r	SEGMENT
??_R0?AVReferenceTarget@@@8 DQ FLAT:??_7type_info@@6B@	; ReferenceTarget `RTTI Type Descriptor'
	DQ	0000000000000000H
	DB	'.?AVReferenceTarget@@', 00H
