; Listing generated by Microsoft (R) Optimizing Compiler Version 19.00.24231.0 

include listing.inc

INCLUDELIB MSVCRTD
INCLUDELIB OLDNAMES

PUBLIC	?controlsInit@@3HA				; controlsInit
PUBLIC	WinbaseIsolationAwarePrivateT_UnPgpgk
PUBLIC	IsolationAwarePrivateT_SqbjaYRiRY
PUBLIC	IsolationAwarePrivateT_SAbnPgpgk
PUBLIC	WinbaseIsolationAwarePrivateT_SpeRNgRQnPgpgk
PUBLIC	WinbaseIsolationAwarePrivateT_SpYRNahcpNYYRQ
PUBLIC	?hInstance@@3PEAUHINSTANCE__@@EA		; hInstance
_BSS	SEGMENT
?controlsInit@@3HA DD 01H DUP (?)			; controlsInit
_BSS	ENDS
;	COMDAT IsolationAwarePrivateT_SqbjaYRiRY
_BSS	SEGMENT
IsolationAwarePrivateT_SqbjaYRiRY DD 01H DUP (?)
_BSS	ENDS
;	COMDAT IsolationAwarePrivateT_SAbnPgpgk
_BSS	SEGMENT
IsolationAwarePrivateT_SAbnPgpgk DD 01H DUP (?)
_BSS	ENDS
;	COMDAT WinbaseIsolationAwarePrivateT_SpeRNgRQnPgpgk
_BSS	SEGMENT
WinbaseIsolationAwarePrivateT_SpeRNgRQnPgpgk DD 01H DUP (?)
_BSS	ENDS
;	COMDAT WinbaseIsolationAwarePrivateT_SpYRNahcpNYYRQ
_BSS	SEGMENT
WinbaseIsolationAwarePrivateT_SpYRNahcpNYYRQ DD 01H DUP (?)
_BSS	ENDS
_BSS	SEGMENT
	ALIGN	8

?hInstance@@3PEAUHINSTANCE__@@EA DQ 01H DUP (?)		; hInstance
_BSS	ENDS
;	COMDAT WinbaseIsolationAwarePrivateT_UnPgpgk
_DATA	SEGMENT
WinbaseIsolationAwarePrivateT_UnPgpgk DQ ffffffffffffffffH
_DATA	ENDS
PUBLIC	??_H@YAXPEAX_K1P6APEAX0@Z@Z			; `vector constructor iterator'
PUBLIC	?__empty_global_delete@@YAXPEAX@Z		; __empty_global_delete
PUBLIC	?__empty_global_delete@@YAXPEAX_K@Z		; __empty_global_delete
PUBLIC	??0Class_ID@@QEAA@KK@Z				; Class_ID::Class_ID
PUBLIC	??0AssetId@AssetManagement@MaxSDK@@QEAA@XZ	; MaxSDK::AssetManagement::AssetId::AssetId
PUBLIC	?GetString@@YAPEA_WH@Z				; GetString
PUBLIC	DllMain
PUBLIC	?LibNumberClasses@@YAHXZ			; LibNumberClasses
PUBLIC	?LibClassDesc@@YAPEAVClassDesc@@H@Z		; LibClassDesc
PUBLIC	?LibDescription@@YAPEB_WXZ			; LibDescription
PUBLIC	?LibVersion@@YAKXZ				; LibVersion
PUBLIC	?LibInitialize@@YAHXZ				; LibInitialize
PUBLIC	?LibShutdown@@YAHXZ				; LibShutdown
EXTRN	__imp_DisableThreadLibraryCalls:PROC
EXTRN	__imp_LoadStringW:PROC
EXTRN	__imp_?UseLanguagePackLocale@Util@MaxSDK@@YAXPEAUHINSTANCE__@@@Z:PROC
EXTRN	__imp_??0Interval@@QEAA@HH@Z:PROC
EXTRN	?GetBerconNoiseDesc@@YAPEAVClassDesc2@@XZ:PROC	; GetBerconNoiseDesc
EXTRN	?GetBerconWoodDesc@@YAPEAVClassDesc2@@XZ:PROC	; GetBerconWoodDesc
EXTRN	?GetBerconTileDesc@@YAPEAVClassDesc2@@XZ:PROC	; GetBerconTileDesc
EXTRN	?GetBerconDistortionDesc@@YAPEAVClassDesc2@@XZ:PROC ; GetBerconDistortionDesc
EXTRN	?GetBerconGradientDesc@@YAPEAVClassDesc2@@XZ:PROC ; GetBerconGradientDesc
EXTRN	GUID_NULL:BYTE
EXTRN	__ImageBase:BYTE
_BSS	SEGMENT
?kInvalidId@AssetManagement@MaxSDK@@3UAssetId@12@A DB 010H DUP (?) ; MaxSDK::AssetManagement::kInvalidId
?kTriObjNormalXTCID@@3VClass_ID@@B DQ 01H DUP (?)	; kTriObjNormalXTCID
?intvalid@@3VInterval@@A DQ 01H DUP (?)			; intvalid
_BSS	ENDS
;	COMDAT ?buf@?1??GetString@@YAPEA_WH@Z@4PA_WA
_BSS	SEGMENT
?buf@?1??GetString@@YAPEA_WH@Z@4PA_WA DW 0100H DUP (?)	; `GetString'::`2'::buf
_BSS	ENDS
;	COMDAT pdata
pdata	SEGMENT
$pdata$??_H@YAXPEAX_K1P6APEAX0@Z@Z DD imagerel $LN5
	DD	imagerel $LN5+92
	DD	imagerel $unwind$??_H@YAXPEAX_K1P6APEAX0@Z@Z
pdata	ENDS
;	COMDAT pdata
pdata	SEGMENT
$pdata$??0AssetId@AssetManagement@MaxSDK@@QEAA@XZ DD imagerel $LN3
	DD	imagerel $LN3+37
	DD	imagerel $unwind$??0AssetId@AssetManagement@MaxSDK@@QEAA@XZ
pdata	ENDS
;	COMDAT pdata
pdata	SEGMENT
$pdata$??__EkInvalidId@AssetManagement@MaxSDK@@YAXXZ DD imagerel ??__EkInvalidId@AssetManagement@MaxSDK@@YAXXZ
	DD	imagerel ??__EkInvalidId@AssetManagement@MaxSDK@@YAXXZ+21
	DD	imagerel $unwind$??__EkInvalidId@AssetManagement@MaxSDK@@YAXXZ
pdata	ENDS
;	COMDAT pdata
pdata	SEGMENT
$pdata$??__EkTriObjNormalXTCID@@YAXXZ DD imagerel ??__EkTriObjNormalXTCID@@YAXXZ
	DD	imagerel ??__EkTriObjNormalXTCID@@YAXXZ+32
	DD	imagerel $unwind$??__EkTriObjNormalXTCID@@YAXXZ
pdata	ENDS
;	COMDAT pdata
pdata	SEGMENT
$pdata$?GetString@@YAPEA_WH@Z DD imagerel $LN6
	DD	imagerel $LN6+89
	DD	imagerel $unwind$?GetString@@YAPEA_WH@Z
pdata	ENDS
;	COMDAT pdata
pdata	SEGMENT
$pdata$??__Eintvalid@@YAXXZ DD imagerel ??__Eintvalid@@YAXXZ
	DD	imagerel ??__Eintvalid@@YAXXZ+33
	DD	imagerel $unwind$??__Eintvalid@@YAXXZ
pdata	ENDS
;	COMDAT pdata
pdata	SEGMENT
$pdata$DllMain DD imagerel $LN4
	DD	imagerel $LN4+73
	DD	imagerel $unwind$DllMain
pdata	ENDS
;	COMDAT pdata
pdata	SEGMENT
$pdata$?LibClassDesc@@YAPEAVClassDesc@@H@Z DD imagerel $LN11
	DD	imagerel $LN11+98
	DD	imagerel $unwind$?LibClassDesc@@YAPEAVClassDesc@@H@Z
pdata	ENDS
;	COMDAT pdata
pdata	SEGMENT
$pdata$?LibDescription@@YAPEB_WXZ DD imagerel $LN3
	DD	imagerel $LN3+19
	DD	imagerel $unwind$?LibDescription@@YAPEB_WXZ
pdata	ENDS
CRT$XCU	SEGMENT
?kInvalidId$initializer$@AssetManagement@MaxSDK@@3P6AXXZEA DQ FLAT:??__EkInvalidId@AssetManagement@MaxSDK@@YAXXZ ; MaxSDK::AssetManagement::kInvalidId$initializer$
CRT$XCU	ENDS
;	COMDAT xdata
xdata	SEGMENT
$unwind$?LibDescription@@YAPEB_WXZ DD 010401H
	DD	04204H
xdata	ENDS
;	COMDAT xdata
xdata	SEGMENT
$unwind$?LibClassDesc@@YAPEAVClassDesc@@H@Z DD 010801H
	DD	06208H
xdata	ENDS
;	COMDAT xdata
xdata	SEGMENT
$unwind$DllMain DD 011201H
	DD	04212H
xdata	ENDS
;	COMDAT xdata
xdata	SEGMENT
$unwind$??__Eintvalid@@YAXXZ DD 010401H
	DD	04204H
xdata	ENDS
;	COMDAT xdata
xdata	SEGMENT
$unwind$?GetString@@YAPEA_WH@Z DD 010801H
	DD	06208H
xdata	ENDS
;	COMDAT xdata
xdata	SEGMENT
$unwind$??__EkTriObjNormalXTCID@@YAXXZ DD 010401H
	DD	04204H
xdata	ENDS
;	COMDAT xdata
xdata	SEGMENT
$unwind$??__EkInvalidId@AssetManagement@MaxSDK@@YAXXZ DD 010401H
	DD	04204H
xdata	ENDS
;	COMDAT xdata
xdata	SEGMENT
$unwind$??0AssetId@AssetManagement@MaxSDK@@QEAA@XZ DD 020701H
	DD	060067007H
xdata	ENDS
;	COMDAT xdata
xdata	SEGMENT
$unwind$??_H@YAXPEAX_K1P6APEAX0@Z@Z DD 011801H
	DD	06218H
xdata	ENDS
CRT$XCU	SEGMENT
?kTriObjNormalXTCID$initializer$@@3P6AXXZEA DQ FLAT:??__EkTriObjNormalXTCID@@YAXXZ ; kTriObjNormalXTCID$initializer$
CRT$XCU	ENDS
CRT$XCU	SEGMENT
?intvalid$initializer$@@3P6AXXZEA DQ FLAT:??__Eintvalid@@YAXXZ ; intvalid$initializer$
CRT$XCU	ENDS
; Function compile flags: /Odtp
; File c:\users\james\source\repos\berconmaps\src\dllentry.cpp
;	COMDAT ?LibShutdown@@YAHXZ
_TEXT	SEGMENT
?LibShutdown@@YAHXZ PROC				; LibShutdown, COMDAT

; 86   : 	return TRUE;	

	mov	eax, 1

; 87   : }

	ret	0
?LibShutdown@@YAHXZ ENDP				; LibShutdown
_TEXT	ENDS
; Function compile flags: /Odtp
; File c:\users\james\source\repos\berconmaps\src\dllentry.cpp
;	COMDAT ?LibInitialize@@YAHXZ
_TEXT	SEGMENT
?LibInitialize@@YAHXZ PROC				; LibInitialize, COMDAT

; 82   : 	return TRUE;

	mov	eax, 1

; 83   : }

	ret	0
?LibInitialize@@YAHXZ ENDP				; LibInitialize
_TEXT	ENDS
; Function compile flags: /Odtp
; File c:\users\james\source\repos\berconmaps\src\dllentry.cpp
;	COMDAT ?LibVersion@@YAKXZ
_TEXT	SEGMENT
?LibVersion@@YAKXZ PROC					; LibVersion, COMDAT

; 78   : 	return VERSION_3DSMAX;

	mov	eax, 1310732800				; 4e203200H

; 79   : }

	ret	0
?LibVersion@@YAKXZ ENDP					; LibVersion
_TEXT	ENDS
; Function compile flags: /Odtp
; File c:\users\james\source\repos\berconmaps\src\dllentry.cpp
;	COMDAT ?LibDescription@@YAPEB_WXZ
_TEXT	SEGMENT
?LibDescription@@YAPEB_WXZ PROC				; LibDescription, COMDAT

; 72   : {

$LN3:
	sub	rsp, 40					; 00000028H

; 73   : 	return GetString(IDS_LIBDESCRIPTION);

	mov	ecx, 1
	call	?GetString@@YAPEA_WH@Z			; GetString

; 74   : }

	add	rsp, 40					; 00000028H
	ret	0
?LibDescription@@YAPEB_WXZ ENDP				; LibDescription
_TEXT	ENDS
; Function compile flags: /Odtp
; File c:\users\james\source\repos\berconmaps\src\dllentry.cpp
;	COMDAT ?LibClassDesc@@YAPEAVClassDesc@@H@Z
_TEXT	SEGMENT
tv64 = 32
i$ = 64
?LibClassDesc@@YAPEAVClassDesc@@H@Z PROC		; LibClassDesc, COMDAT

; 58   : __declspec( dllexport ) ClassDesc* LibClassDesc(int i) {

$LN11:
	mov	DWORD PTR [rsp+8], ecx
	sub	rsp, 56					; 00000038H

; 59   : 	switch(i) {

	mov	eax, DWORD PTR i$[rsp]
	mov	DWORD PTR tv64[rsp], eax
	cmp	DWORD PTR tv64[rsp], 0
	je	SHORT $LN4@LibClassDe
	cmp	DWORD PTR tv64[rsp], 1
	je	SHORT $LN5@LibClassDe
	cmp	DWORD PTR tv64[rsp], 2
	je	SHORT $LN6@LibClassDe
	cmp	DWORD PTR tv64[rsp], 3
	je	SHORT $LN7@LibClassDe
	cmp	DWORD PTR tv64[rsp], 4
	je	SHORT $LN8@LibClassDe
	jmp	SHORT $LN9@LibClassDe
$LN4@LibClassDe:

; 60   : 		case 0: return GetBerconNoiseDesc();

	call	?GetBerconNoiseDesc@@YAPEAVClassDesc2@@XZ ; GetBerconNoiseDesc
	jmp	SHORT $LN1@LibClassDe
$LN5@LibClassDe:

; 61   : 		case 1: return GetBerconWoodDesc();

	call	?GetBerconWoodDesc@@YAPEAVClassDesc2@@XZ ; GetBerconWoodDesc
	jmp	SHORT $LN1@LibClassDe
$LN6@LibClassDe:

; 62   : 		case 2: return GetBerconTileDesc();

	call	?GetBerconTileDesc@@YAPEAVClassDesc2@@XZ ; GetBerconTileDesc
	jmp	SHORT $LN1@LibClassDe
$LN7@LibClassDe:

; 63   : 		case 3: return GetBerconDistortionDesc();

	call	?GetBerconDistortionDesc@@YAPEAVClassDesc2@@XZ ; GetBerconDistortionDesc
	jmp	SHORT $LN1@LibClassDe
$LN8@LibClassDe:

; 64   : 		case 4: return GetBerconGradientDesc();

	call	?GetBerconGradientDesc@@YAPEAVClassDesc2@@XZ ; GetBerconGradientDesc
	jmp	SHORT $LN1@LibClassDe
$LN9@LibClassDe:

; 65   : 	default: return GetBerconNoiseDesc();

	call	?GetBerconNoiseDesc@@YAPEAVClassDesc2@@XZ ; GetBerconNoiseDesc
$LN1@LibClassDe:

; 66   : 	}
; 67   : }

	add	rsp, 56					; 00000038H
	ret	0
?LibClassDesc@@YAPEAVClassDesc@@H@Z ENDP		; LibClassDesc
_TEXT	ENDS
; Function compile flags: /Odtp
; File c:\users\james\source\repos\berconmaps\src\dllentry.cpp
;	COMDAT ?LibNumberClasses@@YAHXZ
_TEXT	SEGMENT
?LibNumberClasses@@YAHXZ PROC				; LibNumberClasses, COMDAT

; 55   : 	return 5;

	mov	eax, 5

; 56   : }

	ret	0
?LibNumberClasses@@YAHXZ ENDP				; LibNumberClasses
_TEXT	ENDS
; Function compile flags: /Odtp
; File c:\users\james\source\repos\berconmaps\src\dllentry.cpp
;	COMDAT DllMain
_TEXT	SEGMENT
hinstDLL$ = 48
fdwReason$ = 56
__formal$ = 64
DllMain	PROC						; COMDAT

; 41   : {

$LN4:
	mov	QWORD PTR [rsp+24], r8
	mov	DWORD PTR [rsp+16], edx
	mov	QWORD PTR [rsp+8], rcx
	sub	rsp, 40					; 00000028H

; 42   : 	if (fdwReason == DLL_PROCESS_ATTACH)

	cmp	DWORD PTR fdwReason$[rsp], 1
	jne	SHORT $LN2@DllMain

; 43   : 	{
; 44   : 		MaxSDK::Util::UseLanguagePackLocale();

	lea	rcx, OFFSET FLAT:__ImageBase
	call	QWORD PTR __imp_?UseLanguagePackLocale@Util@MaxSDK@@YAXPEAUHINSTANCE__@@@Z

; 45   : 		// Hang on to this DLL's instance handle.
; 46   : 		hInstance = hinstDLL;

	mov	rax, QWORD PTR hinstDLL$[rsp]
	mov	QWORD PTR ?hInstance@@3PEAUHINSTANCE__@@EA, rax ; hInstance

; 47   : 		DisableThreadLibraryCalls(hInstance);

	mov	rcx, QWORD PTR ?hInstance@@3PEAUHINSTANCE__@@EA ; hInstance
	call	QWORD PTR __imp_DisableThreadLibraryCalls
$LN2@DllMain:

; 48   : 		// DO NOT do any initialization here. Use LibInitialize() instead.
; 49   : 	}
; 50   : 	return(TRUE);

	mov	eax, 1

; 51   : }

	add	rsp, 40					; 00000028H
	ret	0
DllMain	ENDP
_TEXT	ENDS
; Function compile flags: /Odtp
; File c:\users\james\source\repos\berconmaps\src\berconcommon.h
;	COMDAT ??__Eintvalid@@YAXXZ
text$di	SEGMENT
??__Eintvalid@@YAXXZ PROC				; `dynamic initializer for 'intvalid'', COMDAT

; 83   : static Interval intvalid = Interval(TIME_NegInfinity, TIME_PosInfinity);

	sub	rsp, 40					; 00000028H
	mov	r8d, 2147483647				; 7fffffffH
	mov	edx, -2147483648			; ffffffff80000000H
	lea	rcx, OFFSET FLAT:?intvalid@@3VInterval@@A
	call	QWORD PTR __imp_??0Interval@@QEAA@HH@Z
	add	rsp, 40					; 00000028H
	ret	0
??__Eintvalid@@YAXXZ ENDP				; `dynamic initializer for 'intvalid''
text$di	ENDS
; Function compile flags: /Odtp
; File c:\users\james\source\repos\berconmaps\src\dllentry.cpp
;	COMDAT ?GetString@@YAPEA_WH@Z
_TEXT	SEGMENT
tv71 = 32
id$ = 64
?GetString@@YAPEA_WH@Z PROC				; GetString, COMDAT

; 90   : {

$LN6:
	mov	DWORD PTR [rsp+8], ecx
	sub	rsp, 56					; 00000038H

; 91   : 	static TCHAR buf[256];
; 92   : 
; 93   : 	if (hInstance)

	cmp	QWORD PTR ?hInstance@@3PEAUHINSTANCE__@@EA, 0 ; hInstance
	je	SHORT $LN2@GetString

; 94   : 		return LoadStringW(hInstance, id, buf, _countof(buf)) ? buf : NULL;

	mov	r9d, 256				; 00000100H
	lea	r8, OFFSET FLAT:?buf@?1??GetString@@YAPEA_WH@Z@4PA_WA
	mov	edx, DWORD PTR id$[rsp]
	mov	rcx, QWORD PTR ?hInstance@@3PEAUHINSTANCE__@@EA ; hInstance
	call	QWORD PTR __imp_LoadStringW
	test	eax, eax
	je	SHORT $LN4@GetString
	lea	rax, OFFSET FLAT:?buf@?1??GetString@@YAPEA_WH@Z@4PA_WA
	mov	QWORD PTR tv71[rsp], rax
	jmp	SHORT $LN5@GetString
$LN4@GetString:
	mov	QWORD PTR tv71[rsp], 0
$LN5@GetString:
	mov	rax, QWORD PTR tv71[rsp]
	jmp	SHORT $LN1@GetString
$LN2@GetString:

; 95   : 	return NULL;

	xor	eax, eax
$LN1@GetString:

; 96   : }

	add	rsp, 56					; 00000038H
	ret	0
?GetString@@YAPEA_WH@Z ENDP				; GetString
_TEXT	ENDS
; Function compile flags: /Odtp
; File c:\program files\autodesk\3ds max 2018 sdk\maxsdk\include\triobj.h
;	COMDAT ??__EkTriObjNormalXTCID@@YAXXZ
text$di	SEGMENT
??__EkTriObjNormalXTCID@@YAXXZ PROC			; `dynamic initializer for 'kTriObjNormalXTCID'', COMDAT

; 289  : const Class_ID kTriObjNormalXTCID = Class_ID(0x730a33d7, 0x27246c55);

	sub	rsp, 40					; 00000028H
	mov	r8d, 656698453				; 27246c55H
	mov	edx, 1930048471				; 730a33d7H
	lea	rcx, OFFSET FLAT:?kTriObjNormalXTCID@@3VClass_ID@@B
	call	??0Class_ID@@QEAA@KK@Z			; Class_ID::Class_ID
	add	rsp, 40					; 00000028H
	ret	0
??__EkTriObjNormalXTCID@@YAXXZ ENDP			; `dynamic initializer for 'kTriObjNormalXTCID''
text$di	ENDS
; Function compile flags: /Odtp
; File c:\program files\autodesk\3ds max 2018 sdk\maxsdk\include\assetmanagement\assetid.h
;	COMDAT ??__EkInvalidId@AssetManagement@MaxSDK@@YAXXZ
text$di	SEGMENT
??__EkInvalidId@AssetManagement@MaxSDK@@YAXXZ PROC	; MaxSDK::AssetManagement::`dynamic initializer for 'kInvalidId'', COMDAT

; 32   : 		static AssetId kInvalidId;

	sub	rsp, 40					; 00000028H
	lea	rcx, OFFSET FLAT:?kInvalidId@AssetManagement@MaxSDK@@3UAssetId@12@A
	call	??0AssetId@AssetManagement@MaxSDK@@QEAA@XZ ; MaxSDK::AssetManagement::AssetId::AssetId
	add	rsp, 40					; 00000028H
	ret	0
??__EkInvalidId@AssetManagement@MaxSDK@@YAXXZ ENDP	; MaxSDK::AssetManagement::`dynamic initializer for 'kInvalidId''
text$di	ENDS
; Function compile flags: /Odtp
; File c:\program files\autodesk\3ds max 2018 sdk\maxsdk\include\assetmanagement\assetid.h
;	COMDAT ??0AssetId@AssetManagement@MaxSDK@@QEAA@XZ
_TEXT	SEGMENT
this$ = 24
??0AssetId@AssetManagement@MaxSDK@@QEAA@XZ PROC		; MaxSDK::AssetManagement::AssetId::AssetId, COMDAT

; 29   : 			AssetId() { *static_cast<GUID*>(this) = CLSID_NULL; }

$LN3:
	mov	QWORD PTR [rsp+8], rcx
	push	rsi
	push	rdi
	lea	rax, OFFSET FLAT:GUID_NULL
	mov	rdi, QWORD PTR this$[rsp]
	mov	rsi, rax
	mov	ecx, 16
	rep movsb
	mov	rax, QWORD PTR this$[rsp]
	pop	rdi
	pop	rsi
	ret	0
??0AssetId@AssetManagement@MaxSDK@@QEAA@XZ ENDP		; MaxSDK::AssetManagement::AssetId::AssetId
_TEXT	ENDS
; Function compile flags: /Odtp
; File c:\program files\autodesk\3ds max 2018 sdk\maxsdk\include\maxtypes.h
;	COMDAT ??0Class_ID@@QEAA@KK@Z
_TEXT	SEGMENT
this$ = 8
aa$ = 16
bb$ = 24
??0Class_ID@@QEAA@KK@Z PROC				; Class_ID::Class_ID, COMDAT

; 160  : 	Class_ID(ulong aa, ulong bb) { a = aa; b = bb; }

	mov	DWORD PTR [rsp+24], r8d
	mov	DWORD PTR [rsp+16], edx
	mov	QWORD PTR [rsp+8], rcx
	mov	rax, QWORD PTR this$[rsp]
	mov	ecx, DWORD PTR aa$[rsp]
	mov	DWORD PTR [rax], ecx
	mov	rax, QWORD PTR this$[rsp]
	mov	ecx, DWORD PTR bb$[rsp]
	mov	DWORD PTR [rax+4], ecx
	mov	rax, QWORD PTR this$[rsp]
	ret	0
??0Class_ID@@QEAA@KK@Z ENDP				; Class_ID::Class_ID
_TEXT	ENDS
; Function compile flags: /Odtp
; File c:\users\james\source\repos\berconmaps\src\dllentry.cpp
;	COMDAT ?__empty_global_delete@@YAXPEAX_K@Z
_TEXT	SEGMENT
__formal$ = 8
__formal$ = 16
?__empty_global_delete@@YAXPEAX_K@Z PROC		; __empty_global_delete, COMDAT

	mov	QWORD PTR [rsp+16], rdx
	mov	QWORD PTR [rsp+8], rcx
	ret	0
?__empty_global_delete@@YAXPEAX_K@Z ENDP		; __empty_global_delete
_TEXT	ENDS
; Function compile flags: /Odtp
; File c:\users\james\source\repos\berconmaps\src\dllentry.cpp
;	COMDAT ?__empty_global_delete@@YAXPEAX@Z
_TEXT	SEGMENT
__formal$ = 8
?__empty_global_delete@@YAXPEAX@Z PROC			; __empty_global_delete, COMDAT

; 97   : }

	mov	QWORD PTR [rsp+8], rcx
	ret	0
?__empty_global_delete@@YAXPEAX@Z ENDP			; __empty_global_delete
_TEXT	ENDS
; Function compile flags: /Odtp
;	COMDAT ??_H@YAXPEAX_K1P6APEAX0@Z@Z
_TEXT	SEGMENT
tv66 = 32
__t$ = 64
__s$ = 72
__n$ = 80
__f$ = 88
??_H@YAXPEAX_K1P6APEAX0@Z@Z PROC			; `vector constructor iterator', COMDAT
$LN5:
	mov	QWORD PTR [rsp+32], r9
	mov	QWORD PTR [rsp+24], r8
	mov	QWORD PTR [rsp+16], rdx
	mov	QWORD PTR [rsp+8], rcx
	sub	rsp, 56					; 00000038H
$LN2@vector:
	mov	rax, QWORD PTR __n$[rsp]
	mov	QWORD PTR tv66[rsp], rax
	mov	rax, QWORD PTR __n$[rsp]
	dec	rax
	mov	QWORD PTR __n$[rsp], rax
	cmp	QWORD PTR tv66[rsp], 0
	jbe	SHORT $LN3@vector
	mov	rcx, QWORD PTR __t$[rsp]
	call	QWORD PTR __f$[rsp]
	mov	rax, QWORD PTR __s$[rsp]
	mov	rcx, QWORD PTR __t$[rsp]
	add	rcx, rax
	mov	rax, rcx
	mov	QWORD PTR __t$[rsp], rax
	jmp	SHORT $LN2@vector
$LN3@vector:
	add	rsp, 56					; 00000038H
	ret	0
??_H@YAXPEAX_K1P6APEAX0@Z@Z ENDP			; `vector constructor iterator'
_TEXT	ENDS
END
